ARM GAS  C:\Users\simon\AppData\Local\Temp\cc07ySAM.s 			page 1


   1              		.syntax unified
   2              		.cpu cortex-m0
   3              		.fpu softvfp
   4              		.eabi_attribute 20, 1
   5              		.eabi_attribute 21, 1
   6              		.eabi_attribute 23, 3
   7              		.eabi_attribute 24, 1
   8              		.eabi_attribute 25, 1
   9              		.eabi_attribute 26, 1
  10              		.eabi_attribute 30, 1
  11              		.eabi_attribute 34, 0
  12              		.eabi_attribute 18, 4
  13              		.thumb
  14              		.syntax unified
  15              		.file	"bme280.c"
  16              		.text
  17              	.Ltext0:
  18              		.cfi_sections	.debug_frame
  19              		.section	.text.fill_filter_settings,"ax",%progbits
  20              		.align	2
  21              		.code	16
  22              		.thumb_func
  23              		.type	fill_filter_settings, %function
  24              	fill_filter_settings:
  25              	.LFB16:
  26              		.file 1 "bme280.c"
   1:bme280.c      **** /**
   2:bme280.c      **** * Copyright (c) 2020 Bosch Sensortec GmbH. All rights reserved.
   3:bme280.c      **** *
   4:bme280.c      **** * BSD-3-Clause
   5:bme280.c      **** *
   6:bme280.c      **** * Redistribution and use in source and binary forms, with or without
   7:bme280.c      **** * modification, are permitted provided that the following conditions are met:
   8:bme280.c      **** *
   9:bme280.c      **** * 1. Redistributions of source code must retain the above copyright
  10:bme280.c      **** *    notice, this list of conditions and the following disclaimer.
  11:bme280.c      **** *
  12:bme280.c      **** * 2. Redistributions in binary form must reproduce the above copyright
  13:bme280.c      **** *    notice, this list of conditions and the following disclaimer in the
  14:bme280.c      **** *    documentation and/or other materials provided with the distribution.
  15:bme280.c      **** *
  16:bme280.c      **** * 3. Neither the name of the copyright holder nor the names of its
  17:bme280.c      **** *    contributors may be used to endorse or promote products derived from
  18:bme280.c      **** *    this software without specific prior written permission.
  19:bme280.c      **** *
  20:bme280.c      **** * THIS SOFTWARE IS PROVIDED BY THE COPYRIGHT HOLDERS AND CONTRIBUTORS
  21:bme280.c      **** * "AS IS" AND ANY EXPRESS OR IMPLIED WARRANTIES, INCLUDING, BUT NOT
  22:bme280.c      **** * LIMITED TO, THE IMPLIED WARRANTIES OF MERCHANTABILITY AND FITNESS
  23:bme280.c      **** * FOR A PARTICULAR PURPOSE ARE DISCLAIMED. IN NO EVENT SHALL THE
  24:bme280.c      **** * COPYRIGHT HOLDER OR CONTRIBUTORS BE LIABLE FOR ANY DIRECT, INDIRECT,
  25:bme280.c      **** * INCIDENTAL, SPECIAL, EXEMPLARY, OR CONSEQUENTIAL DAMAGES
  26:bme280.c      **** * (INCLUDING, BUT NOT LIMITED TO, PROCUREMENT OF SUBSTITUTE GOODS OR
  27:bme280.c      **** * SERVICES; LOSS OF USE, DATA, OR PROFITS; OR BUSINESS INTERRUPTION)
  28:bme280.c      **** * HOWEVER CAUSED AND ON ANY THEORY OF LIABILITY, WHETHER IN CONTRACT,
  29:bme280.c      **** * STRICT LIABILITY, OR TORT (INCLUDING NEGLIGENCE OR OTHERWISE) ARISING
  30:bme280.c      **** * IN ANY WAY OUT OF THE USE OF THIS SOFTWARE, EVEN IF ADVISED OF THE
  31:bme280.c      **** * POSSIBILITY OF SUCH DAMAGE.
ARM GAS  C:\Users\simon\AppData\Local\Temp\cc07ySAM.s 			page 2


  32:bme280.c      **** *
  33:bme280.c      **** * @file bme280.c
  34:bme280.c      **** * @date 21/01/2020
  35:bme280.c      **** * @version  3.4.2
  36:bme280.c      **** *
  37:bme280.c      **** */
  38:bme280.c      **** 
  39:bme280.c      **** /*! @file bme280.c
  40:bme280.c      ****  * @brief Sensor driver for BME280 sensor
  41:bme280.c      ****  */
  42:bme280.c      **** #include "bme280.h"
  43:bme280.c      **** #include "bme280_defs.h"
  44:bme280.c      **** 
  45:bme280.c      **** /**\name Internal macros */
  46:bme280.c      **** /* To identify osr settings selected by user */
  47:bme280.c      **** #define OVERSAMPLING_SETTINGS   UINT8_C(0x07)
  48:bme280.c      **** 
  49:bme280.c      **** /* To identify filter and standby settings selected by user */
  50:bme280.c      **** #define FILTER_STANDBY_SETTINGS UINT8_C(0x18)
  51:bme280.c      **** 
  52:bme280.c      **** /*!
  53:bme280.c      ****  * @brief This internal API puts the device to sleep mode.
  54:bme280.c      ****  *
  55:bme280.c      ****  * @param[in] dev : Structure instance of bme280_dev.
  56:bme280.c      ****  *
  57:bme280.c      ****  * @return Result of API execution status.
  58:bme280.c      ****  * @retval zero -> Success / +ve value -> Warning / -ve value -> Error
  59:bme280.c      ****  */
  60:bme280.c      **** static int8_t put_device_to_sleep(const struct bme280_dev *dev);
  61:bme280.c      **** 
  62:bme280.c      **** /*!
  63:bme280.c      ****  * @brief This internal API writes the power mode in the sensor.
  64:bme280.c      ****  *
  65:bme280.c      ****  * @param[in] dev : Structure instance of bme280_dev.
  66:bme280.c      ****  * @param[in] sensor_mode : Variable which contains the power mode to be set.
  67:bme280.c      ****  *
  68:bme280.c      ****  * @return Result of API execution status.
  69:bme280.c      ****  * @retval zero -> Success / +ve value -> Warning / -ve value -> Error
  70:bme280.c      ****  */
  71:bme280.c      **** static int8_t write_power_mode(uint8_t sensor_mode, const struct bme280_dev *dev);
  72:bme280.c      **** 
  73:bme280.c      **** /*!
  74:bme280.c      ****  * @brief This internal API is used to validate the device pointer for
  75:bme280.c      ****  * null conditions.
  76:bme280.c      ****  *
  77:bme280.c      ****  * @param[in] dev : Structure instance of bme280_dev.
  78:bme280.c      ****  *
  79:bme280.c      ****  * @return Result of API execution status
  80:bme280.c      ****  * @retval zero -> Success / +ve value -> Warning / -ve value -> Error
  81:bme280.c      ****  */
  82:bme280.c      **** static int8_t null_ptr_check(const struct bme280_dev *dev);
  83:bme280.c      **** 
  84:bme280.c      **** /*!
  85:bme280.c      ****  * @brief This internal API interleaves the register address between the
  86:bme280.c      ****  * register data buffer for burst write operation.
  87:bme280.c      ****  *
  88:bme280.c      ****  * @param[in] reg_addr : Contains the register address array.
ARM GAS  C:\Users\simon\AppData\Local\Temp\cc07ySAM.s 			page 3


  89:bme280.c      ****  * @param[out] temp_buff : Contains the temporary buffer to store the
  90:bme280.c      ****  * register data and register address.
  91:bme280.c      ****  * @param[in] reg_data : Contains the register data to be written in the
  92:bme280.c      ****  * temporary buffer.
  93:bme280.c      ****  * @param[in] len : No of bytes of data to be written for burst write.
  94:bme280.c      ****  */
  95:bme280.c      **** static void interleave_reg_addr(const uint8_t *reg_addr, uint8_t *temp_buff, const uint8_t *reg_dat
  96:bme280.c      **** 
  97:bme280.c      **** /*!
  98:bme280.c      ****  * @brief This internal API reads the calibration data from the sensor, parse
  99:bme280.c      ****  * it and store in the device structure.
 100:bme280.c      ****  *
 101:bme280.c      ****  * @param[in] dev : Structure instance of bme280_dev.
 102:bme280.c      ****  *
 103:bme280.c      ****  * @return Result of API execution status
 104:bme280.c      ****  * @retval zero -> Success / +ve value -> Warning / -ve value -> Error
 105:bme280.c      ****  */
 106:bme280.c      **** static int8_t get_calib_data(struct bme280_dev *dev);
 107:bme280.c      **** 
 108:bme280.c      **** /*!
 109:bme280.c      ****  *  @brief This internal API is used to parse the temperature and
 110:bme280.c      ****  *  pressure calibration data and store it in the device structure.
 111:bme280.c      ****  *
 112:bme280.c      ****  *  @param[out] dev : Structure instance of bme280_dev to store the calib data.
 113:bme280.c      ****  *  @param[in] reg_data : Contains the calibration data to be parsed.
 114:bme280.c      ****  */
 115:bme280.c      **** static void parse_temp_press_calib_data(const uint8_t *reg_data, struct bme280_dev *dev);
 116:bme280.c      **** 
 117:bme280.c      **** /*!
 118:bme280.c      ****  *  @brief This internal API is used to parse the humidity calibration data
 119:bme280.c      ****  *  and store it in device structure.
 120:bme280.c      ****  *
 121:bme280.c      ****  *  @param[out] dev : Structure instance of bme280_dev to store the calib data.
 122:bme280.c      ****  *  @param[in] reg_data : Contains calibration data to be parsed.
 123:bme280.c      ****  */
 124:bme280.c      **** static void parse_humidity_calib_data(const uint8_t *reg_data, struct bme280_dev *dev);
 125:bme280.c      **** 
 126:bme280.c      **** #ifdef BME280_FLOAT_ENABLE
 127:bme280.c      **** 
 128:bme280.c      **** /*!
 129:bme280.c      ****  * @brief This internal API is used to compensate the raw pressure data and
 130:bme280.c      ****  * return the compensated pressure data in double data type.
 131:bme280.c      ****  *
 132:bme280.c      ****  * @param[in] uncomp_data : Contains the uncompensated pressure data.
 133:bme280.c      ****  * @param[in] calib_data : Pointer to the calibration data structure.
 134:bme280.c      ****  *
 135:bme280.c      ****  * @return Compensated pressure data.
 136:bme280.c      ****  * @retval Compensated pressure data in double.
 137:bme280.c      ****  */
 138:bme280.c      **** static double compensate_pressure(const struct bme280_uncomp_data *uncomp_data,
 139:bme280.c      ****                                   const struct bme280_calib_data *calib_data);
 140:bme280.c      **** 
 141:bme280.c      **** /*!
 142:bme280.c      ****  * @brief This internal API is used to compensate the raw humidity data and
 143:bme280.c      ****  * return the compensated humidity data in double data type.
 144:bme280.c      ****  *
 145:bme280.c      ****  * @param[in] uncomp_data : Contains the uncompensated humidity data.
ARM GAS  C:\Users\simon\AppData\Local\Temp\cc07ySAM.s 			page 4


 146:bme280.c      ****  * @param[in] calib_data : Pointer to the calibration data structure.
 147:bme280.c      ****  *
 148:bme280.c      ****  * @return Compensated humidity data.
 149:bme280.c      ****  * @retval Compensated humidity data in double.
 150:bme280.c      ****  */
 151:bme280.c      **** static double compensate_humidity(const struct bme280_uncomp_data *uncomp_data,
 152:bme280.c      ****                                   const struct bme280_calib_data *calib_data);
 153:bme280.c      **** 
 154:bme280.c      **** /*!
 155:bme280.c      ****  * @brief This internal API is used to compensate the raw temperature data and
 156:bme280.c      ****  * return the compensated temperature data in double data type.
 157:bme280.c      ****  *
 158:bme280.c      ****  * @param[in] uncomp_data : Contains the uncompensated temperature data.
 159:bme280.c      ****  * @param[in] calib_data : Pointer to calibration data structure.
 160:bme280.c      ****  *
 161:bme280.c      ****  * @return Compensated temperature data.
 162:bme280.c      ****  * @retval Compensated temperature data in double.
 163:bme280.c      ****  */
 164:bme280.c      **** static double compensate_temperature(const struct bme280_uncomp_data *uncomp_data,
 165:bme280.c      ****                                      struct bme280_calib_data *calib_data);
 166:bme280.c      **** 
 167:bme280.c      **** #else
 168:bme280.c      **** 
 169:bme280.c      **** /*!
 170:bme280.c      ****  * @brief This internal API is used to compensate the raw temperature data and
 171:bme280.c      ****  * return the compensated temperature data in integer data type.
 172:bme280.c      ****  *
 173:bme280.c      ****  * @param[in] uncomp_data : Contains the uncompensated temperature data.
 174:bme280.c      ****  * @param[in] calib_data : Pointer to calibration data structure.
 175:bme280.c      ****  *
 176:bme280.c      ****  * @return Compensated temperature data.
 177:bme280.c      ****  * @retval Compensated temperature data in integer.
 178:bme280.c      ****  */
 179:bme280.c      **** static int32_t compensate_temperature(const struct bme280_uncomp_data *uncomp_data,
 180:bme280.c      ****                                       struct bme280_calib_data *calib_data);
 181:bme280.c      **** 
 182:bme280.c      **** /*!
 183:bme280.c      ****  * @brief This internal API is used to compensate the raw pressure data and
 184:bme280.c      ****  * return the compensated pressure data in integer data type.
 185:bme280.c      ****  *
 186:bme280.c      ****  * @param[in] uncomp_data : Contains the uncompensated pressure data.
 187:bme280.c      ****  * @param[in] calib_data : Pointer to the calibration data structure.
 188:bme280.c      ****  *
 189:bme280.c      ****  * @return Compensated pressure data.
 190:bme280.c      ****  * @retval Compensated pressure data in integer.
 191:bme280.c      ****  */
 192:bme280.c      **** static uint32_t compensate_pressure(const struct bme280_uncomp_data *uncomp_data,
 193:bme280.c      ****                                     const struct bme280_calib_data *calib_data);
 194:bme280.c      **** 
 195:bme280.c      **** /*!
 196:bme280.c      ****  * @brief This internal API is used to compensate the raw humidity data and
 197:bme280.c      ****  * return the compensated humidity data in integer data type.
 198:bme280.c      ****  *
 199:bme280.c      ****  * @param[in] uncomp_data : Contains the uncompensated humidity data.
 200:bme280.c      ****  * @param[in] calib_data : Pointer to the calibration data structure.
 201:bme280.c      ****  *
 202:bme280.c      ****  * @return Compensated humidity data.
ARM GAS  C:\Users\simon\AppData\Local\Temp\cc07ySAM.s 			page 5


 203:bme280.c      ****  * @retval Compensated humidity data in integer.
 204:bme280.c      ****  */
 205:bme280.c      **** static uint32_t compensate_humidity(const struct bme280_uncomp_data *uncomp_data,
 206:bme280.c      ****                                     const struct bme280_calib_data *calib_data);
 207:bme280.c      **** 
 208:bme280.c      **** #endif
 209:bme280.c      **** 
 210:bme280.c      **** /*!
 211:bme280.c      ****  * @brief This internal API is used to identify the settings which the user
 212:bme280.c      ****  * wants to modify in the sensor.
 213:bme280.c      ****  *
 214:bme280.c      ****  * @param[in] sub_settings : Contains the settings subset to identify particular
 215:bme280.c      ****  * group of settings which the user is interested to change.
 216:bme280.c      ****  * @param[in] desired_settings : Contains the user specified settings.
 217:bme280.c      ****  *
 218:bme280.c      ****  * @return Indicates whether user is interested to modify the settings which
 219:bme280.c      ****  * are related to sub_settings.
 220:bme280.c      ****  * @retval True -> User wants to modify this group of settings
 221:bme280.c      ****  * @retval False -> User does not want to modify this group of settings
 222:bme280.c      ****  */
 223:bme280.c      **** static uint8_t are_settings_changed(uint8_t sub_settings, uint8_t desired_settings);
 224:bme280.c      **** 
 225:bme280.c      **** /*!
 226:bme280.c      ****  * @brief This API sets the humidity oversampling settings of the sensor.
 227:bme280.c      ****  *
 228:bme280.c      ****  * @param[in] dev : Structure instance of bme280_dev.
 229:bme280.c      ****  *
 230:bme280.c      ****  * @return Result of API execution status
 231:bme280.c      ****  * @retval zero -> Success / +ve value -> Warning / -ve value -> Error
 232:bme280.c      ****  */
 233:bme280.c      **** static int8_t set_osr_humidity_settings(const struct bme280_settings *settings, const struct bme280
 234:bme280.c      **** 
 235:bme280.c      **** /*!
 236:bme280.c      ****  * @brief This internal API sets the oversampling settings for pressure,
 237:bme280.c      ****  * temperature and humidity in the sensor.
 238:bme280.c      ****  *
 239:bme280.c      ****  * @param[in] desired_settings : Variable used to select the settings which
 240:bme280.c      ****  * are to be set.
 241:bme280.c      ****  * @param[in] dev : Structure instance of bme280_dev.
 242:bme280.c      ****  *
 243:bme280.c      ****  * @return Result of API execution status
 244:bme280.c      ****  * @retval zero -> Success / +ve value -> Warning / -ve value -> Error
 245:bme280.c      ****  */
 246:bme280.c      **** static int8_t set_osr_settings(uint8_t desired_settings,
 247:bme280.c      ****                                const struct bme280_settings *settings,
 248:bme280.c      ****                                const struct bme280_dev *dev);
 249:bme280.c      **** 
 250:bme280.c      **** /*!
 251:bme280.c      ****  * @brief This API sets the pressure and/or temperature oversampling settings
 252:bme280.c      ****  * in the sensor according to the settings selected by the user.
 253:bme280.c      ****  *
 254:bme280.c      ****  * @param[in] dev : Structure instance of bme280_dev.
 255:bme280.c      ****  * @param[in] desired_settings: variable to select the pressure and/or
 256:bme280.c      ****  * temperature oversampling settings.
 257:bme280.c      ****  *
 258:bme280.c      ****  * @return Result of API execution status
 259:bme280.c      ****  * @retval zero -> Success / +ve value -> Warning / -ve value -> Error
ARM GAS  C:\Users\simon\AppData\Local\Temp\cc07ySAM.s 			page 6


 260:bme280.c      ****  */
 261:bme280.c      **** static int8_t set_osr_press_temp_settings(uint8_t desired_settings,
 262:bme280.c      ****                                           const struct bme280_settings *settings,
 263:bme280.c      ****                                           const struct bme280_dev *dev);
 264:bme280.c      **** 
 265:bme280.c      **** /*!
 266:bme280.c      ****  * @brief This internal API fills the pressure oversampling settings provided by
 267:bme280.c      ****  * the user in the data buffer so as to write in the sensor.
 268:bme280.c      ****  *
 269:bme280.c      ****  * @param[in] dev : Structure instance of bme280_dev.
 270:bme280.c      ****  * @param[out] reg_data : Variable which is filled according to the pressure
 271:bme280.c      ****  * oversampling data provided by the user.
 272:bme280.c      ****  */
 273:bme280.c      **** static void fill_osr_press_settings(uint8_t *reg_data, const struct bme280_settings *settings);
 274:bme280.c      **** 
 275:bme280.c      **** /*!
 276:bme280.c      ****  * @brief This internal API fills the temperature oversampling settings provided
 277:bme280.c      ****  * by the user in the data buffer so as to write in the sensor.
 278:bme280.c      ****  *
 279:bme280.c      ****  * @param[in] dev : Structure instance of bme280_dev.
 280:bme280.c      ****  * @param[out] reg_data : Variable which is filled according to the temperature
 281:bme280.c      ****  * oversampling data provided by the user.
 282:bme280.c      ****  */
 283:bme280.c      **** static void fill_osr_temp_settings(uint8_t *reg_data, const struct bme280_settings *settings);
 284:bme280.c      **** 
 285:bme280.c      **** /*!
 286:bme280.c      ****  * @brief This internal API sets the filter and/or standby duration settings
 287:bme280.c      ****  * in the sensor according to the settings selected by the user.
 288:bme280.c      ****  *
 289:bme280.c      ****  * @param[in] dev : Structure instance of bme280_dev.
 290:bme280.c      ****  * @param[in] desired_settings : variable to select the filter and/or
 291:bme280.c      ****  * standby duration settings.
 292:bme280.c      ****  *
 293:bme280.c      ****  * @return Result of API execution status
 294:bme280.c      ****  * @retval zero -> Success / +ve value -> Warning / -ve value -> Error
 295:bme280.c      ****  */
 296:bme280.c      **** static int8_t set_filter_standby_settings(uint8_t desired_settings,
 297:bme280.c      ****                                           const struct bme280_settings *settings,
 298:bme280.c      ****                                           const struct bme280_dev *dev);
 299:bme280.c      **** 
 300:bme280.c      **** /*!
 301:bme280.c      ****  * @brief This internal API fills the filter settings provided by the user
 302:bme280.c      ****  * in the data buffer so as to write in the sensor.
 303:bme280.c      ****  *
 304:bme280.c      ****  * @param[in] dev : Structure instance of bme280_dev.
 305:bme280.c      ****  * @param[out] reg_data : Variable which is filled according to the filter
 306:bme280.c      ****  * settings data provided by the user.
 307:bme280.c      ****  */
 308:bme280.c      **** static void fill_filter_settings(uint8_t *reg_data, const struct bme280_settings *settings);
 309:bme280.c      **** 
 310:bme280.c      **** /*!
 311:bme280.c      ****  * @brief This internal API fills the standby duration settings provided by the
 312:bme280.c      ****  * user in the data buffer so as to write in the sensor.
 313:bme280.c      ****  *
 314:bme280.c      ****  * @param[in] dev : Structure instance of bme280_dev.
 315:bme280.c      ****  * @param[out] reg_data : Variable which is filled according to the standby
 316:bme280.c      ****  * settings data provided by the user.
ARM GAS  C:\Users\simon\AppData\Local\Temp\cc07ySAM.s 			page 7


 317:bme280.c      ****  */
 318:bme280.c      **** static void fill_standby_settings(uint8_t *reg_data, const struct bme280_settings *settings);
 319:bme280.c      **** 
 320:bme280.c      **** /*!
 321:bme280.c      ****  * @brief This internal API parse the oversampling(pressure, temperature
 322:bme280.c      ****  * and humidity), filter and standby duration settings and store in the
 323:bme280.c      ****  * device structure.
 324:bme280.c      ****  *
 325:bme280.c      ****  * @param[out] dev : Structure instance of bme280_dev.
 326:bme280.c      ****  * @param[in] reg_data : Register data to be parsed.
 327:bme280.c      ****  */
 328:bme280.c      **** static void parse_device_settings(const uint8_t *reg_data, struct bme280_settings *settings);
 329:bme280.c      **** 
 330:bme280.c      **** /*!
 331:bme280.c      ****  * @brief This internal API reloads the already existing device settings in the
 332:bme280.c      ****  * sensor after soft reset.
 333:bme280.c      ****  *
 334:bme280.c      ****  * @param[in] dev : Structure instance of bme280_dev.
 335:bme280.c      ****  * @param[in] settings : Pointer variable which contains the settings to
 336:bme280.c      ****  * be set in the sensor.
 337:bme280.c      ****  *
 338:bme280.c      ****  * @return Result of API execution status
 339:bme280.c      ****  * @retval zero -> Success / +ve value -> Warning / -ve value -> Error
 340:bme280.c      ****  */
 341:bme280.c      **** static int8_t reload_device_settings(const struct bme280_settings *settings, const struct bme280_de
 342:bme280.c      **** 
 343:bme280.c      **** /****************** Global Function Definitions *******************************/
 344:bme280.c      **** 
 345:bme280.c      **** /*!
 346:bme280.c      ****  *  @brief This API is the entry point.
 347:bme280.c      ****  *  It reads the chip-id and calibration data from the sensor.
 348:bme280.c      ****  */
 349:bme280.c      **** int8_t bme280_init(struct bme280_dev *dev)
 350:bme280.c      **** {
 351:bme280.c      ****     int8_t rslt;
 352:bme280.c      **** 
 353:bme280.c      ****     /* chip id read try count */
 354:bme280.c      ****     uint8_t try_count = 5;
 355:bme280.c      ****     uint8_t chip_id = 0;
 356:bme280.c      **** 
 357:bme280.c      ****     /* Check for null pointer in the device structure*/
 358:bme280.c      ****     rslt = null_ptr_check(dev);
 359:bme280.c      **** 
 360:bme280.c      ****     /* Proceed if null check is fine */
 361:bme280.c      ****     if (rslt == BME280_OK)
 362:bme280.c      ****     {
 363:bme280.c      ****         while (try_count)
 364:bme280.c      ****         {
 365:bme280.c      ****             /* Read the chip-id of bme280 sensor */
 366:bme280.c      ****             rslt = bme280_get_regs(BME280_CHIP_ID_ADDR, &chip_id, 1, dev);
 367:bme280.c      **** 
 368:bme280.c      ****             /* Check for chip id validity */
 369:bme280.c      ****             if ((rslt == BME280_OK) && (chip_id == BME280_CHIP_ID))
 370:bme280.c      ****             {
 371:bme280.c      ****                 dev->chip_id = chip_id;
 372:bme280.c      **** 
 373:bme280.c      ****                 /* Reset the sensor */
ARM GAS  C:\Users\simon\AppData\Local\Temp\cc07ySAM.s 			page 8


 374:bme280.c      ****                 rslt = bme280_soft_reset(dev);
 375:bme280.c      ****                 if (rslt == BME280_OK)
 376:bme280.c      ****                 {
 377:bme280.c      ****                     /* Read the calibration data */
 378:bme280.c      ****                     rslt = get_calib_data(dev);
 379:bme280.c      ****                 }
 380:bme280.c      ****                 break;
 381:bme280.c      ****             }
 382:bme280.c      **** 
 383:bme280.c      ****             /* Wait for 1 ms */
 384:bme280.c      ****             dev->delay_ms(1);
 385:bme280.c      ****             --try_count;
 386:bme280.c      ****         }
 387:bme280.c      **** 
 388:bme280.c      ****         /* Chip id check failed */
 389:bme280.c      ****         if (!try_count)
 390:bme280.c      ****         {
 391:bme280.c      ****             rslt = BME280_E_DEV_NOT_FOUND;
 392:bme280.c      ****         }
 393:bme280.c      ****     }
 394:bme280.c      **** 
 395:bme280.c      ****     return rslt;
 396:bme280.c      **** }
 397:bme280.c      **** 
 398:bme280.c      **** /*!
 399:bme280.c      ****  * @brief This API reads the data from the given register address of the sensor.
 400:bme280.c      ****  */
 401:bme280.c      **** int8_t bme280_get_regs(uint8_t reg_addr, uint8_t *reg_data, uint16_t len, const struct bme280_dev *
 402:bme280.c      **** {
 403:bme280.c      ****     int8_t rslt;
 404:bme280.c      **** 
 405:bme280.c      ****     /* Check for null pointer in the device structure*/
 406:bme280.c      ****     rslt = null_ptr_check(dev);
 407:bme280.c      **** 
 408:bme280.c      ****     /* Proceed if null check is fine */
 409:bme280.c      ****     if (rslt == BME280_OK)
 410:bme280.c      ****     {
 411:bme280.c      ****         /* If interface selected is SPI */
 412:bme280.c      ****         if (dev->intf != BME280_I2C_INTF)
 413:bme280.c      ****         {
 414:bme280.c      ****             reg_addr = reg_addr | 0x80;
 415:bme280.c      ****         }
 416:bme280.c      **** 
 417:bme280.c      ****         /* Read the data  */
 418:bme280.c      ****         rslt = dev->read(dev->dev_id, reg_addr, reg_data, len);
 419:bme280.c      **** 
 420:bme280.c      ****         /* Check for communication error */
 421:bme280.c      ****         if (rslt != BME280_OK)
 422:bme280.c      ****         {
 423:bme280.c      ****             rslt = BME280_E_COMM_FAIL;
 424:bme280.c      ****         }
 425:bme280.c      ****     }
 426:bme280.c      **** 
 427:bme280.c      ****     return rslt;
 428:bme280.c      **** }
 429:bme280.c      **** 
 430:bme280.c      **** /*!
ARM GAS  C:\Users\simon\AppData\Local\Temp\cc07ySAM.s 			page 9


 431:bme280.c      ****  * @brief This API writes the given data to the register address
 432:bme280.c      ****  * of the sensor.
 433:bme280.c      ****  */
 434:bme280.c      **** int8_t bme280_set_regs(uint8_t *reg_addr, const uint8_t *reg_data, uint8_t len, const struct bme280
 435:bme280.c      **** {
 436:bme280.c      ****     int8_t rslt;
 437:bme280.c      ****     uint8_t temp_buff[20]; /* Typically not to write more than 10 registers */
 438:bme280.c      **** 
 439:bme280.c      ****     if (len > 10)
 440:bme280.c      ****     {
 441:bme280.c      ****         len = 10;
 442:bme280.c      ****     }
 443:bme280.c      ****     uint16_t temp_len;
 444:bme280.c      ****     uint8_t reg_addr_cnt;
 445:bme280.c      **** 
 446:bme280.c      ****     /* Check for null pointer in the device structure*/
 447:bme280.c      ****     rslt = null_ptr_check(dev);
 448:bme280.c      **** 
 449:bme280.c      ****     /* Check for arguments validity */
 450:bme280.c      ****     if ((rslt == BME280_OK) && (reg_addr != NULL) && (reg_data != NULL))
 451:bme280.c      ****     {
 452:bme280.c      ****         if (len != 0)
 453:bme280.c      ****         {
 454:bme280.c      ****             temp_buff[0] = reg_data[0];
 455:bme280.c      **** 
 456:bme280.c      ****             /* If interface selected is SPI */
 457:bme280.c      ****             if (dev->intf != BME280_I2C_INTF)
 458:bme280.c      ****             {
 459:bme280.c      ****                 for (reg_addr_cnt = 0; reg_addr_cnt < len; reg_addr_cnt++)
 460:bme280.c      ****                 {
 461:bme280.c      ****                     reg_addr[reg_addr_cnt] = reg_addr[reg_addr_cnt] & 0x7F;
 462:bme280.c      ****                 }
 463:bme280.c      ****             }
 464:bme280.c      **** 
 465:bme280.c      ****             /* Burst write mode */
 466:bme280.c      ****             if (len > 1)
 467:bme280.c      ****             {
 468:bme280.c      ****                 /* Interleave register address w.r.t data for
 469:bme280.c      ****                  * burst write
 470:bme280.c      ****                  */
 471:bme280.c      ****                 interleave_reg_addr(reg_addr, temp_buff, reg_data, len);
 472:bme280.c      ****                 temp_len = ((len * 2) - 1);
 473:bme280.c      ****             }
 474:bme280.c      ****             else
 475:bme280.c      ****             {
 476:bme280.c      ****                 temp_len = len;
 477:bme280.c      ****             }
 478:bme280.c      ****             rslt = dev->write(dev->dev_id, reg_addr[0], temp_buff, temp_len);
 479:bme280.c      **** 
 480:bme280.c      ****             /* Check for communication error */
 481:bme280.c      ****             if (rslt != BME280_OK)
 482:bme280.c      ****             {
 483:bme280.c      ****                 rslt = BME280_E_COMM_FAIL;
 484:bme280.c      ****             }
 485:bme280.c      ****         }
 486:bme280.c      ****         else
 487:bme280.c      ****         {
ARM GAS  C:\Users\simon\AppData\Local\Temp\cc07ySAM.s 			page 10


 488:bme280.c      ****             rslt = BME280_E_INVALID_LEN;
 489:bme280.c      ****         }
 490:bme280.c      ****     }
 491:bme280.c      ****     else
 492:bme280.c      ****     {
 493:bme280.c      ****         rslt = BME280_E_NULL_PTR;
 494:bme280.c      ****     }
 495:bme280.c      **** 
 496:bme280.c      ****     return rslt;
 497:bme280.c      **** }
 498:bme280.c      **** 
 499:bme280.c      **** /*!
 500:bme280.c      ****  * @brief This API sets the oversampling, filter and standby duration
 501:bme280.c      ****  * (normal mode) settings in the sensor.
 502:bme280.c      ****  */
 503:bme280.c      **** int8_t bme280_set_sensor_settings(uint8_t desired_settings, const struct bme280_dev *dev)
 504:bme280.c      **** {
 505:bme280.c      ****     int8_t rslt;
 506:bme280.c      ****     uint8_t sensor_mode;
 507:bme280.c      **** 
 508:bme280.c      ****     /* Check for null pointer in the device structure*/
 509:bme280.c      ****     rslt = null_ptr_check(dev);
 510:bme280.c      **** 
 511:bme280.c      ****     /* Proceed if null check is fine */
 512:bme280.c      ****     if (rslt == BME280_OK)
 513:bme280.c      ****     {
 514:bme280.c      ****         rslt = bme280_get_sensor_mode(&sensor_mode, dev);
 515:bme280.c      ****         if ((rslt == BME280_OK) && (sensor_mode != BME280_SLEEP_MODE))
 516:bme280.c      ****         {
 517:bme280.c      ****             rslt = put_device_to_sleep(dev);
 518:bme280.c      ****         }
 519:bme280.c      ****         if (rslt == BME280_OK)
 520:bme280.c      ****         {
 521:bme280.c      ****             /* Check if user wants to change oversampling
 522:bme280.c      ****              * settings
 523:bme280.c      ****              */
 524:bme280.c      ****             if (are_settings_changed(OVERSAMPLING_SETTINGS, desired_settings))
 525:bme280.c      ****             {
 526:bme280.c      ****                 rslt = set_osr_settings(desired_settings, &dev->settings, dev);
 527:bme280.c      ****             }
 528:bme280.c      **** 
 529:bme280.c      ****             /* Check if user wants to change filter and/or
 530:bme280.c      ****              * standby settings
 531:bme280.c      ****              */
 532:bme280.c      ****             if ((rslt == BME280_OK) && are_settings_changed(FILTER_STANDBY_SETTINGS, desired_settin
 533:bme280.c      ****             {
 534:bme280.c      ****                 rslt = set_filter_standby_settings(desired_settings, &dev->settings, dev);
 535:bme280.c      ****             }
 536:bme280.c      ****         }
 537:bme280.c      ****     }
 538:bme280.c      **** 
 539:bme280.c      ****     return rslt;
 540:bme280.c      **** }
 541:bme280.c      **** 
 542:bme280.c      **** /*!
 543:bme280.c      ****  * @brief This API gets the oversampling, filter and standby duration
 544:bme280.c      ****  * (normal mode) settings from the sensor.
ARM GAS  C:\Users\simon\AppData\Local\Temp\cc07ySAM.s 			page 11


 545:bme280.c      ****  */
 546:bme280.c      **** int8_t bme280_get_sensor_settings(struct bme280_dev *dev)
 547:bme280.c      **** {
 548:bme280.c      ****     int8_t rslt;
 549:bme280.c      ****     uint8_t reg_data[4];
 550:bme280.c      **** 
 551:bme280.c      ****     /* Check for null pointer in the device structure*/
 552:bme280.c      ****     rslt = null_ptr_check(dev);
 553:bme280.c      **** 
 554:bme280.c      ****     /* Proceed if null check is fine */
 555:bme280.c      ****     if (rslt == BME280_OK)
 556:bme280.c      ****     {
 557:bme280.c      ****         rslt = bme280_get_regs(BME280_CTRL_HUM_ADDR, reg_data, 4, dev);
 558:bme280.c      ****         if (rslt == BME280_OK)
 559:bme280.c      ****         {
 560:bme280.c      ****             parse_device_settings(reg_data, &dev->settings);
 561:bme280.c      ****         }
 562:bme280.c      ****     }
 563:bme280.c      **** 
 564:bme280.c      ****     return rslt;
 565:bme280.c      **** }
 566:bme280.c      **** 
 567:bme280.c      **** /*!
 568:bme280.c      ****  * @brief This API sets the power mode of the sensor.
 569:bme280.c      ****  */
 570:bme280.c      **** int8_t bme280_set_sensor_mode(uint8_t sensor_mode, const struct bme280_dev *dev)
 571:bme280.c      **** {
 572:bme280.c      ****     int8_t rslt;
 573:bme280.c      ****     uint8_t last_set_mode;
 574:bme280.c      **** 
 575:bme280.c      ****     /* Check for null pointer in the device structure*/
 576:bme280.c      ****     rslt = null_ptr_check(dev);
 577:bme280.c      ****     if (rslt == BME280_OK)
 578:bme280.c      ****     {
 579:bme280.c      ****         rslt = bme280_get_sensor_mode(&last_set_mode, dev);
 580:bme280.c      **** 
 581:bme280.c      ****         /* If the sensor is not in sleep mode put the device to sleep
 582:bme280.c      ****          * mode
 583:bme280.c      ****          */
 584:bme280.c      ****         if ((rslt == BME280_OK) && (last_set_mode != BME280_SLEEP_MODE))
 585:bme280.c      ****         {
 586:bme280.c      ****             rslt = put_device_to_sleep(dev);
 587:bme280.c      ****         }
 588:bme280.c      **** 
 589:bme280.c      ****         /* Set the power mode */
 590:bme280.c      ****         if (rslt == BME280_OK)
 591:bme280.c      ****         {
 592:bme280.c      ****             rslt = write_power_mode(sensor_mode, dev);
 593:bme280.c      ****         }
 594:bme280.c      ****     }
 595:bme280.c      **** 
 596:bme280.c      ****     return rslt;
 597:bme280.c      **** }
 598:bme280.c      **** 
 599:bme280.c      **** /*!
 600:bme280.c      ****  * @brief This API gets the power mode of the sensor.
 601:bme280.c      ****  */
ARM GAS  C:\Users\simon\AppData\Local\Temp\cc07ySAM.s 			page 12


 602:bme280.c      **** int8_t bme280_get_sensor_mode(uint8_t *sensor_mode, const struct bme280_dev *dev)
 603:bme280.c      **** {
 604:bme280.c      ****     int8_t rslt;
 605:bme280.c      **** 
 606:bme280.c      ****     /* Check for null pointer in the device structure*/
 607:bme280.c      ****     rslt = null_ptr_check(dev);
 608:bme280.c      ****     if (rslt == BME280_OK)
 609:bme280.c      ****     {
 610:bme280.c      ****         /* Read the power mode register */
 611:bme280.c      ****         rslt = bme280_get_regs(BME280_PWR_CTRL_ADDR, sensor_mode, 1, dev);
 612:bme280.c      **** 
 613:bme280.c      ****         /* Assign the power mode in the device structure */
 614:bme280.c      ****         *sensor_mode = BME280_GET_BITS_POS_0(*sensor_mode, BME280_SENSOR_MODE);
 615:bme280.c      ****     }
 616:bme280.c      **** 
 617:bme280.c      ****     return rslt;
 618:bme280.c      **** }
 619:bme280.c      **** 
 620:bme280.c      **** /*!
 621:bme280.c      ****  * @brief This API performs the soft reset of the sensor.
 622:bme280.c      ****  */
 623:bme280.c      **** int8_t bme280_soft_reset(const struct bme280_dev *dev)
 624:bme280.c      **** {
 625:bme280.c      ****     int8_t rslt;
 626:bme280.c      ****     uint8_t reg_addr = BME280_RESET_ADDR;
 627:bme280.c      ****     uint8_t status_reg = 0;
 628:bme280.c      ****     uint8_t try_run = 5;
 629:bme280.c      **** 
 630:bme280.c      ****     /* 0xB6 is the soft reset command */
 631:bme280.c      ****     uint8_t soft_rst_cmd = BME280_SOFT_RESET_COMMAND;
 632:bme280.c      **** 
 633:bme280.c      ****     /* Check for null pointer in the device structure*/
 634:bme280.c      ****     rslt = null_ptr_check(dev);
 635:bme280.c      **** 
 636:bme280.c      ****     /* Proceed if null check is fine */
 637:bme280.c      ****     if (rslt == BME280_OK)
 638:bme280.c      ****     {
 639:bme280.c      ****         /* Write the soft reset command in the sensor */
 640:bme280.c      ****         rslt = bme280_set_regs(&reg_addr, &soft_rst_cmd, 1, dev);
 641:bme280.c      **** 
 642:bme280.c      ****         if (rslt == BME280_OK)
 643:bme280.c      ****         {
 644:bme280.c      ****             /* If NVM not copied yet, Wait for NVM to copy */
 645:bme280.c      ****             do
 646:bme280.c      ****             {
 647:bme280.c      ****                 /* As per data sheet - Table 1, startup time is 2 ms. */
 648:bme280.c      ****                 dev->delay_ms(2);
 649:bme280.c      ****                 rslt = bme280_get_regs(BME280_STATUS_REG_ADDR, &status_reg, 1, dev);
 650:bme280.c      ****             } while ((rslt == BME280_OK) && (try_run--) && (status_reg & BME280_STATUS_IM_UPDATE));
 651:bme280.c      **** 
 652:bme280.c      ****             if (status_reg & BME280_STATUS_IM_UPDATE)
 653:bme280.c      ****             {
 654:bme280.c      ****                 rslt = BME280_E_NVM_COPY_FAILED;
 655:bme280.c      ****             }
 656:bme280.c      **** 
 657:bme280.c      ****         }
 658:bme280.c      ****     }
ARM GAS  C:\Users\simon\AppData\Local\Temp\cc07ySAM.s 			page 13


 659:bme280.c      **** 
 660:bme280.c      ****     return rslt;
 661:bme280.c      **** }
 662:bme280.c      **** 
 663:bme280.c      **** /*!
 664:bme280.c      ****  * @brief This API reads the pressure, temperature and humidity data from the
 665:bme280.c      ****  * sensor, compensates the data and store it in the bme280_data structure
 666:bme280.c      ****  * instance passed by the user.
 667:bme280.c      ****  */
 668:bme280.c      **** int8_t bme280_get_sensor_data(uint8_t sensor_comp, struct bme280_data *comp_data, struct bme280_dev
 669:bme280.c      **** {
 670:bme280.c      ****     int8_t rslt;
 671:bme280.c      **** 
 672:bme280.c      ****     /* Array to store the pressure, temperature and humidity data read from
 673:bme280.c      ****      * the sensor
 674:bme280.c      ****      */
 675:bme280.c      ****     uint8_t reg_data[BME280_P_T_H_DATA_LEN] = { 0 };
 676:bme280.c      ****     struct bme280_uncomp_data uncomp_data = { 0, 0, 0 };
 677:bme280.c      **** 
 678:bme280.c      ****     /* Check for null pointer in the device structure*/
 679:bme280.c      ****     rslt = null_ptr_check(dev);
 680:bme280.c      ****     if ((rslt == BME280_OK) && (comp_data != NULL))
 681:bme280.c      ****     {
 682:bme280.c      ****         /* Read the pressure and temperature data from the sensor */
 683:bme280.c      ****         rslt = bme280_get_regs(BME280_DATA_ADDR, reg_data, BME280_P_T_H_DATA_LEN, dev);
 684:bme280.c      ****         if (rslt == BME280_OK)
 685:bme280.c      ****         {
 686:bme280.c      ****             /* Parse the read data from the sensor */
 687:bme280.c      ****             bme280_parse_sensor_data(reg_data, &uncomp_data);
 688:bme280.c      **** 
 689:bme280.c      ****             /* Compensate the pressure and/or temperature and/or
 690:bme280.c      ****              * humidity data from the sensor
 691:bme280.c      ****              */
 692:bme280.c      ****             rslt = bme280_compensate_data(sensor_comp, &uncomp_data, comp_data, &dev->calib_data);
 693:bme280.c      ****         }
 694:bme280.c      ****     }
 695:bme280.c      ****     else
 696:bme280.c      ****     {
 697:bme280.c      ****         rslt = BME280_E_NULL_PTR;
 698:bme280.c      ****     }
 699:bme280.c      **** 
 700:bme280.c      ****     return rslt;
 701:bme280.c      **** }
 702:bme280.c      **** 
 703:bme280.c      **** /*!
 704:bme280.c      ****  *  @brief This API is used to parse the pressure, temperature and
 705:bme280.c      ****  *  humidity data and store it in the bme280_uncomp_data structure instance.
 706:bme280.c      ****  */
 707:bme280.c      **** void bme280_parse_sensor_data(const uint8_t *reg_data, struct bme280_uncomp_data *uncomp_data)
 708:bme280.c      **** {
 709:bme280.c      ****     /* Variables to store the sensor data */
 710:bme280.c      ****     uint32_t data_xlsb;
 711:bme280.c      ****     uint32_t data_lsb;
 712:bme280.c      ****     uint32_t data_msb;
 713:bme280.c      **** 
 714:bme280.c      ****     /* Store the parsed register values for pressure data */
 715:bme280.c      ****     data_msb = (uint32_t)reg_data[0] << 12;
ARM GAS  C:\Users\simon\AppData\Local\Temp\cc07ySAM.s 			page 14


 716:bme280.c      ****     data_lsb = (uint32_t)reg_data[1] << 4;
 717:bme280.c      ****     data_xlsb = (uint32_t)reg_data[2] >> 4;
 718:bme280.c      ****     uncomp_data->pressure = data_msb | data_lsb | data_xlsb;
 719:bme280.c      **** 
 720:bme280.c      ****     /* Store the parsed register values for temperature data */
 721:bme280.c      ****     data_msb = (uint32_t)reg_data[3] << 12;
 722:bme280.c      ****     data_lsb = (uint32_t)reg_data[4] << 4;
 723:bme280.c      ****     data_xlsb = (uint32_t)reg_data[5] >> 4;
 724:bme280.c      ****     uncomp_data->temperature = data_msb | data_lsb | data_xlsb;
 725:bme280.c      **** 
 726:bme280.c      ****     /* Store the parsed register values for humidity data */
 727:bme280.c      ****     data_msb = (uint32_t)reg_data[6] << 8;
 728:bme280.c      ****     data_lsb = (uint32_t)reg_data[7];
 729:bme280.c      ****     uncomp_data->humidity = data_msb | data_lsb;
 730:bme280.c      **** }
 731:bme280.c      **** 
 732:bme280.c      **** /*!
 733:bme280.c      ****  * @brief This API is used to compensate the pressure and/or
 734:bme280.c      ****  * temperature and/or humidity data according to the component selected
 735:bme280.c      ****  * by the user.
 736:bme280.c      ****  */
 737:bme280.c      **** int8_t bme280_compensate_data(uint8_t sensor_comp,
 738:bme280.c      ****                               const struct bme280_uncomp_data *uncomp_data,
 739:bme280.c      ****                               struct bme280_data *comp_data,
 740:bme280.c      ****                               struct bme280_calib_data *calib_data)
 741:bme280.c      **** {
 742:bme280.c      ****     int8_t rslt = BME280_OK;
 743:bme280.c      **** 
 744:bme280.c      ****     if ((uncomp_data != NULL) && (comp_data != NULL) && (calib_data != NULL))
 745:bme280.c      ****     {
 746:bme280.c      ****         /* Initialize to zero */
 747:bme280.c      ****         comp_data->temperature = 0;
 748:bme280.c      ****         comp_data->pressure = 0;
 749:bme280.c      ****         comp_data->humidity = 0;
 750:bme280.c      **** 
 751:bme280.c      ****         /* If pressure or temperature component is selected */
 752:bme280.c      ****         if (sensor_comp & (BME280_PRESS | BME280_TEMP | BME280_HUM))
 753:bme280.c      ****         {
 754:bme280.c      ****             /* Compensate the temperature data */
 755:bme280.c      ****             comp_data->temperature = compensate_temperature(uncomp_data, calib_data);
 756:bme280.c      ****         }
 757:bme280.c      ****         if (sensor_comp & BME280_PRESS)
 758:bme280.c      ****         {
 759:bme280.c      ****             /* Compensate the pressure data */
 760:bme280.c      ****             comp_data->pressure = compensate_pressure(uncomp_data, calib_data);
 761:bme280.c      ****         }
 762:bme280.c      ****         if (sensor_comp & BME280_HUM)
 763:bme280.c      ****         {
 764:bme280.c      ****             /* Compensate the humidity data */
 765:bme280.c      ****             comp_data->humidity = compensate_humidity(uncomp_data, calib_data);
 766:bme280.c      ****         }
 767:bme280.c      ****     }
 768:bme280.c      ****     else
 769:bme280.c      ****     {
 770:bme280.c      ****         rslt = BME280_E_NULL_PTR;
 771:bme280.c      ****     }
 772:bme280.c      **** 
ARM GAS  C:\Users\simon\AppData\Local\Temp\cc07ySAM.s 			page 15


 773:bme280.c      ****     return rslt;
 774:bme280.c      **** }
 775:bme280.c      **** 
 776:bme280.c      **** /*!
 777:bme280.c      ****  * @brief This API is used to calculate the maximum delay in milliseconds required for the
 778:bme280.c      ****  * temperature/pressure/humidity(which ever at enabled) measurement to complete.
 779:bme280.c      ****  */
 780:bme280.c      **** uint32_t bme280_cal_meas_delay(const struct bme280_settings *settings)
 781:bme280.c      **** {
 782:bme280.c      ****     uint32_t max_delay;
 783:bme280.c      ****     uint8_t temp_osr;
 784:bme280.c      ****     uint8_t pres_osr;
 785:bme280.c      ****     uint8_t hum_osr;
 786:bme280.c      **** 
 787:bme280.c      ****     /*Array to map OSR config register value to actual OSR */
 788:bme280.c      ****     uint8_t osr_sett_to_act_osr[] = { 0, 1, 2, 4, 8, 16 };
 789:bme280.c      **** 
 790:bme280.c      ****     /* Mapping osr settings to the actual osr values e.g. 0b101 -> osr X16  */
 791:bme280.c      ****     if (settings->osr_t <= 5)
 792:bme280.c      ****     {
 793:bme280.c      ****         temp_osr = osr_sett_to_act_osr[settings->osr_t];
 794:bme280.c      ****     }
 795:bme280.c      ****     else
 796:bme280.c      ****     {
 797:bme280.c      ****         temp_osr = 16;
 798:bme280.c      ****     }
 799:bme280.c      **** 
 800:bme280.c      ****     if (settings->osr_p <= 5)
 801:bme280.c      ****     {
 802:bme280.c      ****         pres_osr = osr_sett_to_act_osr[settings->osr_p];
 803:bme280.c      ****     }
 804:bme280.c      ****     else
 805:bme280.c      ****     {
 806:bme280.c      ****         pres_osr = 16;
 807:bme280.c      ****     }
 808:bme280.c      **** 
 809:bme280.c      ****     if (settings->osr_h <= 5)
 810:bme280.c      ****     {
 811:bme280.c      ****         hum_osr = osr_sett_to_act_osr[settings->osr_h];
 812:bme280.c      ****     }
 813:bme280.c      ****     else
 814:bme280.c      ****     {
 815:bme280.c      ****         hum_osr = 16;
 816:bme280.c      ****     }
 817:bme280.c      **** 
 818:bme280.c      ****     max_delay =
 819:bme280.c      ****         (uint32_t)((BME280_MEAS_OFFSET + (BME280_MEAS_DUR * temp_osr) +
 820:bme280.c      ****                     ((BME280_MEAS_DUR * pres_osr) + BME280_PRES_HUM_MEAS_OFFSET) +
 821:bme280.c      ****                     ((BME280_MEAS_DUR * hum_osr) + BME280_PRES_HUM_MEAS_OFFSET)) / BME280_MEAS_SCAL
 822:bme280.c      **** 
 823:bme280.c      ****     return max_delay;
 824:bme280.c      **** }
 825:bme280.c      **** 
 826:bme280.c      **** /*!
 827:bme280.c      ****  * @brief This internal API sets the oversampling settings for pressure,
 828:bme280.c      ****  * temperature and humidity in the sensor.
 829:bme280.c      ****  */
ARM GAS  C:\Users\simon\AppData\Local\Temp\cc07ySAM.s 			page 16


 830:bme280.c      **** static int8_t set_osr_settings(uint8_t desired_settings,
 831:bme280.c      ****                                const struct bme280_settings *settings,
 832:bme280.c      ****                                const struct bme280_dev *dev)
 833:bme280.c      **** {
 834:bme280.c      ****     int8_t rslt = BME280_W_INVALID_OSR_MACRO;
 835:bme280.c      **** 
 836:bme280.c      ****     if (desired_settings & BME280_OSR_HUM_SEL)
 837:bme280.c      ****     {
 838:bme280.c      ****         rslt = set_osr_humidity_settings(settings, dev);
 839:bme280.c      ****     }
 840:bme280.c      ****     if (desired_settings & (BME280_OSR_PRESS_SEL | BME280_OSR_TEMP_SEL))
 841:bme280.c      ****     {
 842:bme280.c      ****         rslt = set_osr_press_temp_settings(desired_settings, settings, dev);
 843:bme280.c      ****     }
 844:bme280.c      **** 
 845:bme280.c      ****     return rslt;
 846:bme280.c      **** }
 847:bme280.c      **** 
 848:bme280.c      **** /*!
 849:bme280.c      ****  * @brief This API sets the humidity oversampling settings of the sensor.
 850:bme280.c      ****  */
 851:bme280.c      **** static int8_t set_osr_humidity_settings(const struct bme280_settings *settings, const struct bme280
 852:bme280.c      **** {
 853:bme280.c      ****     int8_t rslt;
 854:bme280.c      ****     uint8_t ctrl_hum;
 855:bme280.c      ****     uint8_t ctrl_meas;
 856:bme280.c      ****     uint8_t reg_addr = BME280_CTRL_HUM_ADDR;
 857:bme280.c      **** 
 858:bme280.c      ****     ctrl_hum = settings->osr_h & BME280_CTRL_HUM_MSK;
 859:bme280.c      **** 
 860:bme280.c      ****     /* Write the humidity control value in the register */
 861:bme280.c      ****     rslt = bme280_set_regs(&reg_addr, &ctrl_hum, 1, dev);
 862:bme280.c      **** 
 863:bme280.c      ****     /* Humidity related changes will be only effective after a
 864:bme280.c      ****      * write operation to ctrl_meas register
 865:bme280.c      ****      */
 866:bme280.c      ****     if (rslt == BME280_OK)
 867:bme280.c      ****     {
 868:bme280.c      ****         reg_addr = BME280_CTRL_MEAS_ADDR;
 869:bme280.c      ****         rslt = bme280_get_regs(reg_addr, &ctrl_meas, 1, dev);
 870:bme280.c      ****         if (rslt == BME280_OK)
 871:bme280.c      ****         {
 872:bme280.c      ****             rslt = bme280_set_regs(&reg_addr, &ctrl_meas, 1, dev);
 873:bme280.c      ****         }
 874:bme280.c      ****     }
 875:bme280.c      **** 
 876:bme280.c      ****     return rslt;
 877:bme280.c      **** }
 878:bme280.c      **** 
 879:bme280.c      **** /*!
 880:bme280.c      ****  * @brief This API sets the pressure and/or temperature oversampling settings
 881:bme280.c      ****  * in the sensor according to the settings selected by the user.
 882:bme280.c      ****  */
 883:bme280.c      **** static int8_t set_osr_press_temp_settings(uint8_t desired_settings,
 884:bme280.c      ****                                           const struct bme280_settings *settings,
 885:bme280.c      ****                                           const struct bme280_dev *dev)
 886:bme280.c      **** {
ARM GAS  C:\Users\simon\AppData\Local\Temp\cc07ySAM.s 			page 17


 887:bme280.c      ****     int8_t rslt;
 888:bme280.c      ****     uint8_t reg_addr = BME280_CTRL_MEAS_ADDR;
 889:bme280.c      ****     uint8_t reg_data;
 890:bme280.c      **** 
 891:bme280.c      ****     rslt = bme280_get_regs(reg_addr, &reg_data, 1, dev);
 892:bme280.c      ****     if (rslt == BME280_OK)
 893:bme280.c      ****     {
 894:bme280.c      ****         if (desired_settings & BME280_OSR_PRESS_SEL)
 895:bme280.c      ****         {
 896:bme280.c      ****             fill_osr_press_settings(&reg_data, settings);
 897:bme280.c      ****         }
 898:bme280.c      ****         if (desired_settings & BME280_OSR_TEMP_SEL)
 899:bme280.c      ****         {
 900:bme280.c      ****             fill_osr_temp_settings(&reg_data, settings);
 901:bme280.c      ****         }
 902:bme280.c      **** 
 903:bme280.c      ****         /* Write the oversampling settings in the register */
 904:bme280.c      ****         rslt = bme280_set_regs(&reg_addr, &reg_data, 1, dev);
 905:bme280.c      ****     }
 906:bme280.c      **** 
 907:bme280.c      ****     return rslt;
 908:bme280.c      **** }
 909:bme280.c      **** 
 910:bme280.c      **** /*!
 911:bme280.c      ****  * @brief This internal API sets the filter and/or standby duration settings
 912:bme280.c      ****  * in the sensor according to the settings selected by the user.
 913:bme280.c      ****  */
 914:bme280.c      **** static int8_t set_filter_standby_settings(uint8_t desired_settings,
 915:bme280.c      ****                                           const struct bme280_settings *settings,
 916:bme280.c      ****                                           const struct bme280_dev *dev)
 917:bme280.c      **** {
 918:bme280.c      ****     int8_t rslt;
 919:bme280.c      ****     uint8_t reg_addr = BME280_CONFIG_ADDR;
 920:bme280.c      ****     uint8_t reg_data;
 921:bme280.c      **** 
 922:bme280.c      ****     rslt = bme280_get_regs(reg_addr, &reg_data, 1, dev);
 923:bme280.c      ****     if (rslt == BME280_OK)
 924:bme280.c      ****     {
 925:bme280.c      ****         if (desired_settings & BME280_FILTER_SEL)
 926:bme280.c      ****         {
 927:bme280.c      ****             fill_filter_settings(&reg_data, settings);
 928:bme280.c      ****         }
 929:bme280.c      ****         if (desired_settings & BME280_STANDBY_SEL)
 930:bme280.c      ****         {
 931:bme280.c      ****             fill_standby_settings(&reg_data, settings);
 932:bme280.c      ****         }
 933:bme280.c      **** 
 934:bme280.c      ****         /* Write the oversampling settings in the register */
 935:bme280.c      ****         rslt = bme280_set_regs(&reg_addr, &reg_data, 1, dev);
 936:bme280.c      ****     }
 937:bme280.c      **** 
 938:bme280.c      ****     return rslt;
 939:bme280.c      **** }
 940:bme280.c      **** 
 941:bme280.c      **** /*!
 942:bme280.c      ****  * @brief This internal API fills the filter settings provided by the user
 943:bme280.c      ****  * in the data buffer so as to write in the sensor.
ARM GAS  C:\Users\simon\AppData\Local\Temp\cc07ySAM.s 			page 18


 944:bme280.c      ****  */
 945:bme280.c      **** static void fill_filter_settings(uint8_t *reg_data, const struct bme280_settings *settings)
 946:bme280.c      **** {
  27              		.loc 1 946 0
  28              		.cfi_startproc
  29              		@ args = 0, pretend = 0, frame = 0
  30              		@ frame_needed = 0, uses_anonymous_args = 0
  31              	.LVL0:
  32 0000 10B5     		push	{r4, lr}
  33              		.cfi_def_cfa_offset 8
  34              		.cfi_offset 4, -8
  35              		.cfi_offset 14, -4
 947:bme280.c      ****     *reg_data = BME280_SET_BITS(*reg_data, BME280_FILTER, settings->filter);
  36              		.loc 1 947 0
  37 0002 0478     		ldrb	r4, [r0]
  38 0004 CB78     		ldrb	r3, [r1, #3]
  39 0006 9A00     		lsls	r2, r3, #2
  40 0008 1C23     		movs	r3, #28
  41 000a 2100     		movs	r1, r4
  42              	.LVL1:
  43 000c 9943     		bics	r1, r3
  44 000e 1340     		ands	r3, r2
  45 0010 0B43     		orrs	r3, r1
  46 0012 0370     		strb	r3, [r0]
 948:bme280.c      **** }
  47              		.loc 1 948 0
  48              		@ sp needed
  49 0014 10BD     		pop	{r4, pc}
  50              		.cfi_endproc
  51              	.LFE16:
  52              		.size	fill_filter_settings, .-fill_filter_settings
  53 0016 C046     		.section	.text.fill_standby_settings,"ax",%progbits
  54              		.align	2
  55              		.code	16
  56              		.thumb_func
  57              		.type	fill_standby_settings, %function
  58              	fill_standby_settings:
  59              	.LFB17:
 949:bme280.c      **** 
 950:bme280.c      **** /*!
 951:bme280.c      ****  * @brief This internal API fills the standby duration settings provided by
 952:bme280.c      ****  * the user in the data buffer so as to write in the sensor.
 953:bme280.c      ****  */
 954:bme280.c      **** static void fill_standby_settings(uint8_t *reg_data, const struct bme280_settings *settings)
 955:bme280.c      **** {
  60              		.loc 1 955 0
  61              		.cfi_startproc
  62              		@ args = 0, pretend = 0, frame = 0
  63              		@ frame_needed = 0, uses_anonymous_args = 0
  64              		@ link register save eliminated.
  65              	.LVL2:
 956:bme280.c      ****     *reg_data = BME280_SET_BITS(*reg_data, BME280_STANDBY, settings->standby_time);
  66              		.loc 1 956 0
  67 0000 0378     		ldrb	r3, [r0]
  68 0002 0A79     		ldrb	r2, [r1, #4]
  69 0004 5201     		lsls	r2, r2, #5
  70 0006 1F21     		movs	r1, #31
ARM GAS  C:\Users\simon\AppData\Local\Temp\cc07ySAM.s 			page 19


  71              	.LVL3:
  72 0008 0B40     		ands	r3, r1
  73 000a 1343     		orrs	r3, r2
  74 000c 0370     		strb	r3, [r0]
 957:bme280.c      **** }
  75              		.loc 1 957 0
  76              		@ sp needed
  77 000e 7047     		bx	lr
  78              		.cfi_endproc
  79              	.LFE17:
  80              		.size	fill_standby_settings, .-fill_standby_settings
  81              		.section	.text.fill_osr_press_settings,"ax",%progbits
  82              		.align	2
  83              		.code	16
  84              		.thumb_func
  85              		.type	fill_osr_press_settings, %function
  86              	fill_osr_press_settings:
  87              	.LFB18:
 958:bme280.c      **** 
 959:bme280.c      **** /*!
 960:bme280.c      ****  * @brief This internal API fills the pressure oversampling settings provided by
 961:bme280.c      ****  * the user in the data buffer so as to write in the sensor.
 962:bme280.c      ****  */
 963:bme280.c      **** static void fill_osr_press_settings(uint8_t *reg_data, const struct bme280_settings *settings)
 964:bme280.c      **** {
  88              		.loc 1 964 0
  89              		.cfi_startproc
  90              		@ args = 0, pretend = 0, frame = 0
  91              		@ frame_needed = 0, uses_anonymous_args = 0
  92              	.LVL4:
  93 0000 10B5     		push	{r4, lr}
  94              		.cfi_def_cfa_offset 8
  95              		.cfi_offset 4, -8
  96              		.cfi_offset 14, -4
 965:bme280.c      ****     *reg_data = BME280_SET_BITS(*reg_data, BME280_CTRL_PRESS, settings->osr_p);
  97              		.loc 1 965 0
  98 0002 0478     		ldrb	r4, [r0]
  99 0004 0B78     		ldrb	r3, [r1]
 100 0006 9A00     		lsls	r2, r3, #2
 101 0008 1C23     		movs	r3, #28
 102 000a 2100     		movs	r1, r4
 103              	.LVL5:
 104 000c 9943     		bics	r1, r3
 105 000e 1340     		ands	r3, r2
 106 0010 0B43     		orrs	r3, r1
 107 0012 0370     		strb	r3, [r0]
 966:bme280.c      **** }
 108              		.loc 1 966 0
 109              		@ sp needed
 110 0014 10BD     		pop	{r4, pc}
 111              		.cfi_endproc
 112              	.LFE18:
 113              		.size	fill_osr_press_settings, .-fill_osr_press_settings
 114 0016 C046     		.section	.text.fill_osr_temp_settings,"ax",%progbits
 115              		.align	2
 116              		.code	16
 117              		.thumb_func
ARM GAS  C:\Users\simon\AppData\Local\Temp\cc07ySAM.s 			page 20


 118              		.type	fill_osr_temp_settings, %function
 119              	fill_osr_temp_settings:
 120              	.LFB19:
 967:bme280.c      **** 
 968:bme280.c      **** /*!
 969:bme280.c      ****  * @brief This internal API fills the temperature oversampling settings
 970:bme280.c      ****  * provided by the user in the data buffer so as to write in the sensor.
 971:bme280.c      ****  */
 972:bme280.c      **** static void fill_osr_temp_settings(uint8_t *reg_data, const struct bme280_settings *settings)
 973:bme280.c      **** {
 121              		.loc 1 973 0
 122              		.cfi_startproc
 123              		@ args = 0, pretend = 0, frame = 0
 124              		@ frame_needed = 0, uses_anonymous_args = 0
 125              		@ link register save eliminated.
 126              	.LVL6:
 974:bme280.c      ****     *reg_data = BME280_SET_BITS(*reg_data, BME280_CTRL_TEMP, settings->osr_t);
 127              		.loc 1 974 0
 128 0000 0378     		ldrb	r3, [r0]
 129 0002 4A78     		ldrb	r2, [r1, #1]
 130 0004 5201     		lsls	r2, r2, #5
 131 0006 1F21     		movs	r1, #31
 132              	.LVL7:
 133 0008 0B40     		ands	r3, r1
 134 000a 1343     		orrs	r3, r2
 135 000c 0370     		strb	r3, [r0]
 975:bme280.c      **** }
 136              		.loc 1 975 0
 137              		@ sp needed
 138 000e 7047     		bx	lr
 139              		.cfi_endproc
 140              	.LFE19:
 141              		.size	fill_osr_temp_settings, .-fill_osr_temp_settings
 142              		.section	.text.parse_device_settings,"ax",%progbits
 143              		.align	2
 144              		.code	16
 145              		.thumb_func
 146              		.type	parse_device_settings, %function
 147              	parse_device_settings:
 148              	.LFB20:
 976:bme280.c      **** 
 977:bme280.c      **** /*!
 978:bme280.c      ****  * @brief This internal API parse the oversampling(pressure, temperature
 979:bme280.c      ****  * and humidity), filter and standby duration settings and store in the
 980:bme280.c      ****  * device structure.
 981:bme280.c      ****  */
 982:bme280.c      **** static void parse_device_settings(const uint8_t *reg_data, struct bme280_settings *settings)
 983:bme280.c      **** {
 149              		.loc 1 983 0
 150              		.cfi_startproc
 151              		@ args = 0, pretend = 0, frame = 0
 152              		@ frame_needed = 0, uses_anonymous_args = 0
 153              	.LVL8:
 154 0000 10B5     		push	{r4, lr}
 155              		.cfi_def_cfa_offset 8
 156              		.cfi_offset 4, -8
 157              		.cfi_offset 14, -4
ARM GAS  C:\Users\simon\AppData\Local\Temp\cc07ySAM.s 			page 21


 984:bme280.c      ****     settings->osr_h = BME280_GET_BITS_POS_0(reg_data[0], BME280_CTRL_HUM);
 158              		.loc 1 984 0
 159 0002 0378     		ldrb	r3, [r0]
 160 0004 0724     		movs	r4, #7
 161 0006 2340     		ands	r3, r4
 162 0008 8B70     		strb	r3, [r1, #2]
 985:bme280.c      ****     settings->osr_p = BME280_GET_BITS(reg_data[2], BME280_CTRL_PRESS);
 163              		.loc 1 985 0
 164 000a 8278     		ldrb	r2, [r0, #2]
 165 000c 9210     		asrs	r2, r2, #2
 166 000e 2240     		ands	r2, r4
 167 0010 0A70     		strb	r2, [r1]
 986:bme280.c      ****     settings->osr_t = BME280_GET_BITS(reg_data[2], BME280_CTRL_TEMP);
 168              		.loc 1 986 0
 169 0012 8378     		ldrb	r3, [r0, #2]
 170 0014 5B09     		lsrs	r3, r3, #5
 171 0016 4B70     		strb	r3, [r1, #1]
 987:bme280.c      ****     settings->filter = BME280_GET_BITS(reg_data[3], BME280_FILTER);
 172              		.loc 1 987 0
 173 0018 C378     		ldrb	r3, [r0, #3]
 174 001a 9B10     		asrs	r3, r3, #2
 175 001c 2340     		ands	r3, r4
 176 001e CB70     		strb	r3, [r1, #3]
 988:bme280.c      ****     settings->standby_time = BME280_GET_BITS(reg_data[3], BME280_STANDBY);
 177              		.loc 1 988 0
 178 0020 C378     		ldrb	r3, [r0, #3]
 179 0022 5B09     		lsrs	r3, r3, #5
 180 0024 0B71     		strb	r3, [r1, #4]
 989:bme280.c      **** }
 181              		.loc 1 989 0
 182              		@ sp needed
 183 0026 10BD     		pop	{r4, pc}
 184              		.cfi_endproc
 185              	.LFE20:
 186              		.size	parse_device_settings, .-parse_device_settings
 187              		.section	.text.compensate_temperature,"ax",%progbits
 188              		.align	2
 189              		.code	16
 190              		.thumb_func
 191              		.type	compensate_temperature, %function
 192              	compensate_temperature:
 193              	.LFB24:
 990:bme280.c      **** 
 991:bme280.c      **** /*!
 992:bme280.c      ****  * @brief This internal API writes the power mode in the sensor.
 993:bme280.c      ****  */
 994:bme280.c      **** static int8_t write_power_mode(uint8_t sensor_mode, const struct bme280_dev *dev)
 995:bme280.c      **** {
 996:bme280.c      ****     int8_t rslt;
 997:bme280.c      ****     uint8_t reg_addr = BME280_PWR_CTRL_ADDR;
 998:bme280.c      **** 
 999:bme280.c      ****     /* Variable to store the value read from power mode register */
1000:bme280.c      ****     uint8_t sensor_mode_reg_val;
1001:bme280.c      **** 
1002:bme280.c      ****     /* Read the power mode register */
1003:bme280.c      ****     rslt = bme280_get_regs(reg_addr, &sensor_mode_reg_val, 1, dev);
1004:bme280.c      **** 
ARM GAS  C:\Users\simon\AppData\Local\Temp\cc07ySAM.s 			page 22


1005:bme280.c      ****     /* Set the power mode */
1006:bme280.c      ****     if (rslt == BME280_OK)
1007:bme280.c      ****     {
1008:bme280.c      ****         sensor_mode_reg_val = BME280_SET_BITS_POS_0(sensor_mode_reg_val, BME280_SENSOR_MODE, sensor
1009:bme280.c      **** 
1010:bme280.c      ****         /* Write the power mode in the register */
1011:bme280.c      ****         rslt = bme280_set_regs(&reg_addr, &sensor_mode_reg_val, 1, dev);
1012:bme280.c      ****     }
1013:bme280.c      **** 
1014:bme280.c      ****     return rslt;
1015:bme280.c      **** }
1016:bme280.c      **** 
1017:bme280.c      **** /*!
1018:bme280.c      ****  * @brief This internal API puts the device to sleep mode.
1019:bme280.c      ****  */
1020:bme280.c      **** static int8_t put_device_to_sleep(const struct bme280_dev *dev)
1021:bme280.c      **** {
1022:bme280.c      ****     int8_t rslt;
1023:bme280.c      ****     uint8_t reg_data[4];
1024:bme280.c      ****     struct bme280_settings settings;
1025:bme280.c      **** 
1026:bme280.c      ****     rslt = bme280_get_regs(BME280_CTRL_HUM_ADDR, reg_data, 4, dev);
1027:bme280.c      ****     if (rslt == BME280_OK)
1028:bme280.c      ****     {
1029:bme280.c      ****         parse_device_settings(reg_data, &settings);
1030:bme280.c      ****         rslt = bme280_soft_reset(dev);
1031:bme280.c      ****         if (rslt == BME280_OK)
1032:bme280.c      ****         {
1033:bme280.c      ****             rslt = reload_device_settings(&settings, dev);
1034:bme280.c      ****         }
1035:bme280.c      ****     }
1036:bme280.c      **** 
1037:bme280.c      ****     return rslt;
1038:bme280.c      **** }
1039:bme280.c      **** 
1040:bme280.c      **** /*!
1041:bme280.c      ****  * @brief This internal API reloads the already existing device settings in
1042:bme280.c      ****  * the sensor after soft reset.
1043:bme280.c      ****  */
1044:bme280.c      **** static int8_t reload_device_settings(const struct bme280_settings *settings, const struct bme280_de
1045:bme280.c      **** {
1046:bme280.c      ****     int8_t rslt;
1047:bme280.c      **** 
1048:bme280.c      ****     rslt = set_osr_settings(BME280_ALL_SETTINGS_SEL, settings, dev);
1049:bme280.c      ****     if (rslt == BME280_OK)
1050:bme280.c      ****     {
1051:bme280.c      ****         rslt = set_filter_standby_settings(BME280_ALL_SETTINGS_SEL, settings, dev);
1052:bme280.c      ****     }
1053:bme280.c      **** 
1054:bme280.c      ****     return rslt;
1055:bme280.c      **** }
1056:bme280.c      **** 
1057:bme280.c      **** #ifdef BME280_FLOAT_ENABLE
1058:bme280.c      **** 
1059:bme280.c      **** /*!
1060:bme280.c      ****  * @brief This internal API is used to compensate the raw temperature data and
1061:bme280.c      ****  * return the compensated temperature data in double data type.
ARM GAS  C:\Users\simon\AppData\Local\Temp\cc07ySAM.s 			page 23


1062:bme280.c      ****  */
1063:bme280.c      **** static double compensate_temperature(const struct bme280_uncomp_data *uncomp_data, struct bme280_ca
1064:bme280.c      **** {
1065:bme280.c      ****     double var1;
1066:bme280.c      ****     double var2;
1067:bme280.c      ****     double temperature;
1068:bme280.c      ****     double temperature_min = -40;
1069:bme280.c      ****     double temperature_max = 85;
1070:bme280.c      **** 
1071:bme280.c      ****     var1 = ((double)uncomp_data->temperature) / 16384.0 - ((double)calib_data->dig_t1) / 1024.0;
1072:bme280.c      ****     var1 = var1 * ((double)calib_data->dig_t2);
1073:bme280.c      ****     var2 = (((double)uncomp_data->temperature) / 131072.0 - ((double)calib_data->dig_t1) / 8192.0);
1074:bme280.c      ****     var2 = (var2 * var2) * ((double)calib_data->dig_t3);
1075:bme280.c      ****     calib_data->t_fine = (int32_t)(var1 + var2);
1076:bme280.c      ****     temperature = (var1 + var2) / 5120.0;
1077:bme280.c      ****     if (temperature < temperature_min)
1078:bme280.c      ****     {
1079:bme280.c      ****         temperature = temperature_min;
1080:bme280.c      ****     }
1081:bme280.c      ****     else if (temperature > temperature_max)
1082:bme280.c      ****     {
1083:bme280.c      ****         temperature = temperature_max;
1084:bme280.c      ****     }
1085:bme280.c      **** 
1086:bme280.c      ****     return temperature;
1087:bme280.c      **** }
1088:bme280.c      **** 
1089:bme280.c      **** /*!
1090:bme280.c      ****  * @brief This internal API is used to compensate the raw pressure data and
1091:bme280.c      ****  * return the compensated pressure data in double data type.
1092:bme280.c      ****  */
1093:bme280.c      **** static double compensate_pressure(const struct bme280_uncomp_data *uncomp_data,
1094:bme280.c      ****                                   const struct bme280_calib_data *calib_data)
1095:bme280.c      **** {
1096:bme280.c      ****     double var1;
1097:bme280.c      ****     double var2;
1098:bme280.c      ****     double var3;
1099:bme280.c      ****     double pressure;
1100:bme280.c      ****     double pressure_min = 30000.0;
1101:bme280.c      ****     double pressure_max = 110000.0;
1102:bme280.c      **** 
1103:bme280.c      ****     var1 = ((double)calib_data->t_fine / 2.0) - 64000.0;
1104:bme280.c      ****     var2 = var1 * var1 * ((double)calib_data->dig_p6) / 32768.0;
1105:bme280.c      ****     var2 = var2 + var1 * ((double)calib_data->dig_p5) * 2.0;
1106:bme280.c      ****     var2 = (var2 / 4.0) + (((double)calib_data->dig_p4) * 65536.0);
1107:bme280.c      ****     var3 = ((double)calib_data->dig_p3) * var1 * var1 / 524288.0;
1108:bme280.c      ****     var1 = (var3 + ((double)calib_data->dig_p2) * var1) / 524288.0;
1109:bme280.c      ****     var1 = (1.0 + var1 / 32768.0) * ((double)calib_data->dig_p1);
1110:bme280.c      **** 
1111:bme280.c      ****     /* avoid exception caused by division by zero */
1112:bme280.c      ****     if (var1 > (0.0))
1113:bme280.c      ****     {
1114:bme280.c      ****         pressure = 1048576.0 - (double) uncomp_data->pressure;
1115:bme280.c      ****         pressure = (pressure - (var2 / 4096.0)) * 6250.0 / var1;
1116:bme280.c      ****         var1 = ((double)calib_data->dig_p9) * pressure * pressure / 2147483648.0;
1117:bme280.c      ****         var2 = pressure * ((double)calib_data->dig_p8) / 32768.0;
1118:bme280.c      ****         pressure = pressure + (var1 + var2 + ((double)calib_data->dig_p7)) / 16.0;
ARM GAS  C:\Users\simon\AppData\Local\Temp\cc07ySAM.s 			page 24


1119:bme280.c      ****         if (pressure < pressure_min)
1120:bme280.c      ****         {
1121:bme280.c      ****             pressure = pressure_min;
1122:bme280.c      ****         }
1123:bme280.c      ****         else if (pressure > pressure_max)
1124:bme280.c      ****         {
1125:bme280.c      ****             pressure = pressure_max;
1126:bme280.c      ****         }
1127:bme280.c      ****     }
1128:bme280.c      ****     else /* Invalid case */
1129:bme280.c      ****     {
1130:bme280.c      ****         pressure = pressure_min;
1131:bme280.c      ****     }
1132:bme280.c      **** 
1133:bme280.c      ****     return pressure;
1134:bme280.c      **** }
1135:bme280.c      **** 
1136:bme280.c      **** /*!
1137:bme280.c      ****  * @brief This internal API is used to compensate the raw humidity data and
1138:bme280.c      ****  * return the compensated humidity data in double data type.
1139:bme280.c      ****  */
1140:bme280.c      **** static double compensate_humidity(const struct bme280_uncomp_data *uncomp_data,
1141:bme280.c      ****                                   const struct bme280_calib_data *calib_data)
1142:bme280.c      **** {
1143:bme280.c      ****     double humidity;
1144:bme280.c      ****     double humidity_min = 0.0;
1145:bme280.c      ****     double humidity_max = 100.0;
1146:bme280.c      ****     double var1;
1147:bme280.c      ****     double var2;
1148:bme280.c      ****     double var3;
1149:bme280.c      ****     double var4;
1150:bme280.c      ****     double var5;
1151:bme280.c      ****     double var6;
1152:bme280.c      **** 
1153:bme280.c      ****     var1 = ((double)calib_data->t_fine) - 76800.0;
1154:bme280.c      ****     var2 = (((double)calib_data->dig_h4) * 64.0 + (((double)calib_data->dig_h5) / 16384.0) * var1);
1155:bme280.c      ****     var3 = uncomp_data->humidity - var2;
1156:bme280.c      ****     var4 = ((double)calib_data->dig_h2) / 65536.0;
1157:bme280.c      ****     var5 = (1.0 + (((double)calib_data->dig_h3) / 67108864.0) * var1);
1158:bme280.c      ****     var6 = 1.0 + (((double)calib_data->dig_h6) / 67108864.0) * var1 * var5;
1159:bme280.c      ****     var6 = var3 * var4 * (var5 * var6);
1160:bme280.c      ****     humidity = var6 * (1.0 - ((double)calib_data->dig_h1) * var6 / 524288.0);
1161:bme280.c      **** 
1162:bme280.c      ****     if (humidity > humidity_max)
1163:bme280.c      ****     {
1164:bme280.c      ****         humidity = humidity_max;
1165:bme280.c      ****     }
1166:bme280.c      ****     else if (humidity < humidity_min)
1167:bme280.c      ****     {
1168:bme280.c      ****         humidity = humidity_min;
1169:bme280.c      ****     }
1170:bme280.c      **** 
1171:bme280.c      ****     return humidity;
1172:bme280.c      **** }
1173:bme280.c      **** 
1174:bme280.c      **** #else
1175:bme280.c      **** 
ARM GAS  C:\Users\simon\AppData\Local\Temp\cc07ySAM.s 			page 25


1176:bme280.c      **** /*!
1177:bme280.c      ****  * @brief This internal API is used to compensate the raw temperature data and
1178:bme280.c      ****  * return the compensated temperature data in integer data type.
1179:bme280.c      ****  */
1180:bme280.c      **** static int32_t compensate_temperature(const struct bme280_uncomp_data *uncomp_data,
1181:bme280.c      ****                                       struct bme280_calib_data *calib_data)
1182:bme280.c      **** {
 194              		.loc 1 1182 0
 195              		.cfi_startproc
 196              		@ args = 0, pretend = 0, frame = 0
 197              		@ frame_needed = 0, uses_anonymous_args = 0
 198              	.LVL9:
 199 0000 30B5     		push	{r4, r5, lr}
 200              		.cfi_def_cfa_offset 12
 201              		.cfi_offset 4, -12
 202              		.cfi_offset 5, -8
 203              		.cfi_offset 14, -4
 204              	.LVL10:
1183:bme280.c      ****     int32_t var1;
1184:bme280.c      ****     int32_t var2;
1185:bme280.c      ****     int32_t temperature;
1186:bme280.c      ****     int32_t temperature_min = -4000;
1187:bme280.c      ****     int32_t temperature_max = 8500;
1188:bme280.c      **** 
1189:bme280.c      ****     var1 = (int32_t)((uncomp_data->temperature / 8) - ((int32_t)calib_data->dig_t1 * 2));
 205              		.loc 1 1189 0
 206 0002 4268     		ldr	r2, [r0, #4]
 207 0004 D008     		lsrs	r0, r2, #3
 208              	.LVL11:
 209 0006 0B88     		ldrh	r3, [r1]
 210 0008 5C00     		lsls	r4, r3, #1
 211 000a 041B     		subs	r4, r0, r4
 212              	.LVL12:
1190:bme280.c      ****     var1 = (var1 * ((int32_t)calib_data->dig_t2)) / 2048;
 213              		.loc 1 1190 0
 214 000c 0225     		movs	r5, #2
 215 000e 485F     		ldrsh	r0, [r1, r5]
 216 0010 4443     		muls	r4, r0
 217              	.LVL13:
 218 0012 E017     		asrs	r0, r4, #31
 219 0014 4005     		lsls	r0, r0, #21
 220 0016 400D     		lsrs	r0, r0, #21
 221 0018 0019     		adds	r0, r0, r4
 222 001a C012     		asrs	r0, r0, #11
 223              	.LVL14:
1191:bme280.c      ****     var2 = (int32_t)((uncomp_data->temperature / 16) - ((int32_t)calib_data->dig_t1));
 224              		.loc 1 1191 0
 225 001c 1209     		lsrs	r2, r2, #4
 226 001e D21A     		subs	r2, r2, r3
 227              	.LVL15:
1192:bme280.c      ****     var2 = (((var2 * var2) / 4096) * ((int32_t)calib_data->dig_t3)) / 16384;
 228              		.loc 1 1192 0
 229 0020 5243     		muls	r2, r2
 230              	.LVL16:
 231 0022 D317     		asrs	r3, r2, #31
 232              	.LVL17:
 233 0024 1B05     		lsls	r3, r3, #20
ARM GAS  C:\Users\simon\AppData\Local\Temp\cc07ySAM.s 			page 26


 234 0026 1B0D     		lsrs	r3, r3, #20
 235 0028 9B18     		adds	r3, r3, r2
 236 002a 1B13     		asrs	r3, r3, #12
 237 002c 0424     		movs	r4, #4
 238 002e 0A5F     		ldrsh	r2, [r1, r4]
 239 0030 5343     		muls	r3, r2
 240 0032 DA17     		asrs	r2, r3, #31
 241 0034 9204     		lsls	r2, r2, #18
 242 0036 920C     		lsrs	r2, r2, #18
 243 0038 D318     		adds	r3, r2, r3
 244 003a 9B13     		asrs	r3, r3, #14
 245              	.LVL18:
1193:bme280.c      ****     calib_data->t_fine = var1 + var2;
 246              		.loc 1 1193 0
 247 003c C018     		adds	r0, r0, r3
 248              	.LVL19:
 249 003e 4862     		str	r0, [r1, #36]
 250              	.LVL20:
1194:bme280.c      ****     temperature = (calib_data->t_fine * 5 + 128) / 256;
 251              		.loc 1 1194 0
 252 0040 8300     		lsls	r3, r0, #2
 253              	.LVL21:
 254 0042 1818     		adds	r0, r3, r0
 255 0044 0300     		movs	r3, r0
 256 0046 8033     		adds	r3, r3, #128
 257 0048 DA17     		asrs	r2, r3, #31
 258 004a FF20     		movs	r0, #255
 259 004c 1040     		ands	r0, r2
 260 004e C018     		adds	r0, r0, r3
 261 0050 0012     		asrs	r0, r0, #8
 262              	.LVL22:
1195:bme280.c      **** 
1196:bme280.c      ****     if (temperature < temperature_min)
 263              		.loc 1 1196 0
 264 0052 054B     		ldr	r3, .L10
 265 0054 9842     		cmp	r0, r3
 266 0056 03DB     		blt	.L8
1197:bme280.c      ****     {
1198:bme280.c      ****         temperature = temperature_min;
1199:bme280.c      ****     }
1200:bme280.c      ****     else if (temperature > temperature_max)
 267              		.loc 1 1200 0
 268 0058 044B     		ldr	r3, .L10+4
 269 005a 9842     		cmp	r0, r3
 270 005c 02DC     		bgt	.L9
 271 005e 02E0     		b	.L7
 272              	.L8:
1198:bme280.c      ****     }
 273              		.loc 1 1198 0
 274 0060 0148     		ldr	r0, .L10
 275              	.LVL23:
 276 0062 00E0     		b	.L7
 277              	.LVL24:
 278              	.L9:
1201:bme280.c      ****     {
1202:bme280.c      ****         temperature = temperature_max;
 279              		.loc 1 1202 0
ARM GAS  C:\Users\simon\AppData\Local\Temp\cc07ySAM.s 			page 27


 280 0064 0148     		ldr	r0, .L10+4
 281              	.LVL25:
 282              	.L7:
1203:bme280.c      ****     }
1204:bme280.c      **** 
1205:bme280.c      ****     return temperature;
1206:bme280.c      **** }
 283              		.loc 1 1206 0
 284              		@ sp needed
 285 0066 30BD     		pop	{r4, r5, pc}
 286              	.L11:
 287              		.align	2
 288              	.L10:
 289 0068 60F0FFFF 		.word	-4000
 290 006c 34210000 		.word	8500
 291              		.cfi_endproc
 292              	.LFE24:
 293              		.size	compensate_temperature, .-compensate_temperature
 294              		.global	__aeabi_lmul
 295              		.global	__aeabi_ldivmod
 296              		.section	.text.compensate_pressure,"ax",%progbits
 297              		.align	2
 298              		.code	16
 299              		.thumb_func
 300              		.type	compensate_pressure, %function
 301              	compensate_pressure:
 302              	.LFB25:
1207:bme280.c      **** #ifdef BME280_64BIT_ENABLE
1208:bme280.c      **** 
1209:bme280.c      **** /*!
1210:bme280.c      ****  * @brief This internal API is used to compensate the raw pressure data and
1211:bme280.c      ****  * return the compensated pressure data in integer data type with higher
1212:bme280.c      ****  * accuracy.
1213:bme280.c      ****  */
1214:bme280.c      **** static uint32_t compensate_pressure(const struct bme280_uncomp_data *uncomp_data,
1215:bme280.c      ****                                     const struct bme280_calib_data *calib_data)
1216:bme280.c      **** {
 303              		.loc 1 1216 0
 304              		.cfi_startproc
 305              		@ args = 0, pretend = 0, frame = 16
 306              		@ frame_needed = 0, uses_anonymous_args = 0
 307              	.LVL26:
 308 0000 F0B5     		push	{r4, r5, r6, r7, lr}
 309              		.cfi_def_cfa_offset 20
 310              		.cfi_offset 4, -20
 311              		.cfi_offset 5, -16
 312              		.cfi_offset 6, -12
 313              		.cfi_offset 7, -8
 314              		.cfi_offset 14, -4
 315 0002 5746     		mov	r7, r10
 316 0004 4E46     		mov	r6, r9
 317 0006 4546     		mov	r5, r8
 318 0008 E0B4     		push	{r5, r6, r7}
 319              		.cfi_def_cfa_offset 32
 320              		.cfi_offset 8, -32
 321              		.cfi_offset 9, -28
 322              		.cfi_offset 10, -24
ARM GAS  C:\Users\simon\AppData\Local\Temp\cc07ySAM.s 			page 28


 323 000a 84B0     		sub	sp, sp, #16
 324              		.cfi_def_cfa_offset 48
 325 000c 8146     		mov	r9, r0
 326 000e 8846     		mov	r8, r1
 327              	.LVL27:
1217:bme280.c      ****     int64_t var1;
1218:bme280.c      ****     int64_t var2;
1219:bme280.c      ****     int64_t var3;
1220:bme280.c      ****     int64_t var4;
1221:bme280.c      ****     uint32_t pressure;
1222:bme280.c      ****     uint32_t pressure_min = 3000000;
1223:bme280.c      ****     uint32_t pressure_max = 11000000;
1224:bme280.c      **** 
1225:bme280.c      ****     var1 = ((int64_t)calib_data->t_fine) - 128000;
 328              		.loc 1 1225 0
 329 0010 4A6A     		ldr	r2, [r1, #36]
 330 0012 D317     		asrs	r3, r2, #31
 331 0014 804E     		ldr	r6, .L18
 332 0016 0127     		movs	r7, #1
 333 0018 7F42     		rsbs	r7, r7, #0
 334 001a B618     		adds	r6, r6, r2
 335 001c 5F41     		adcs	r7, r7, r3
 336              	.LVL28:
1226:bme280.c      ****     var2 = var1 * var1 * (int64_t)calib_data->dig_p6;
 337              		.loc 1 1226 0
 338 001e 3200     		movs	r2, r6
 339 0020 3B00     		movs	r3, r7
 340 0022 3000     		movs	r0, r6
 341              	.LVL29:
 342 0024 3900     		movs	r1, r7
 343              	.LVL30:
 344 0026 FFF7FEFF 		bl	__aeabi_lmul
 345              	.LVL31:
 346 002a 4346     		mov	r3, r8
 347 002c 1022     		movs	r2, #16
 348 002e 9A5E     		ldrsh	r2, [r3, r2]
 349 0030 D317     		asrs	r3, r2, #31
 350 0032 0090     		str	r0, [sp]
 351 0034 0191     		str	r1, [sp, #4]
 352 0036 FFF7FEFF 		bl	__aeabi_lmul
 353              	.LVL32:
 354 003a 0400     		movs	r4, r0
 355 003c 0D00     		movs	r5, r1
 356              	.LVL33:
1227:bme280.c      ****     var2 = var2 + ((var1 * (int64_t)calib_data->dig_p5) * 131072);
 357              		.loc 1 1227 0
 358 003e 4346     		mov	r3, r8
 359 0040 0E22     		movs	r2, #14
 360 0042 9A5E     		ldrsh	r2, [r3, r2]
 361 0044 D317     		asrs	r3, r2, #31
 362 0046 3000     		movs	r0, r6
 363 0048 3900     		movs	r1, r7
 364 004a FFF7FEFF 		bl	__aeabi_lmul
 365              	.LVL34:
 366 004e C30B     		lsrs	r3, r0, #15
 367 0050 9A46     		mov	r10, r3
 368 0052 4B04     		lsls	r3, r1, #17
ARM GAS  C:\Users\simon\AppData\Local\Temp\cc07ySAM.s 			page 29


 369 0054 5146     		mov	r1, r10
 370 0056 0B43     		orrs	r3, r1
 371 0058 4204     		lsls	r2, r0, #17
 372 005a A418     		adds	r4, r4, r2
 373 005c 5D41     		adcs	r5, r5, r3
 374              	.LVL35:
1228:bme280.c      ****     var2 = var2 + (((int64_t)calib_data->dig_p4) * 34359738368);
 375              		.loc 1 1228 0
 376 005e 4346     		mov	r3, r8
 377 0060 0C21     		movs	r1, #12
 378 0062 595E     		ldrsh	r1, [r3, r1]
 379 0064 0022     		movs	r2, #0
 380 0066 CB00     		lsls	r3, r1, #3
 381 0068 A418     		adds	r4, r4, r2
 382 006a 5D41     		adcs	r5, r5, r3
 383              	.LVL36:
 384 006c 0294     		str	r4, [sp, #8]
 385 006e 0395     		str	r5, [sp, #12]
 386              	.LVL37:
1229:bme280.c      ****     var1 = ((var1 * var1 * (int64_t)calib_data->dig_p3) / 256) + ((var1 * ((int64_t)calib_data->dig
 387              		.loc 1 1229 0
 388 0070 4346     		mov	r3, r8
 389 0072 0A22     		movs	r2, #10
 390 0074 9A5E     		ldrsh	r2, [r3, r2]
 391 0076 D317     		asrs	r3, r2, #31
 392 0078 0098     		ldr	r0, [sp]
 393 007a 0199     		ldr	r1, [sp, #4]
 394 007c FFF7FEFF 		bl	__aeabi_lmul
 395              	.LVL38:
 396 0080 CD17     		asrs	r5, r1, #31
 397 0082 FF24     		movs	r4, #255
 398              	.LVL39:
 399 0084 2540     		ands	r5, r4
 400 0086 2A00     		movs	r2, r5
 401 0088 0023     		movs	r3, #0
 402 008a 8018     		adds	r0, r0, r2
 403 008c 5941     		adcs	r1, r1, r3
 404 008e 0A06     		lsls	r2, r1, #24
 405 0090 030A     		lsrs	r3, r0, #8
 406 0092 1A43     		orrs	r2, r3
 407 0094 1400     		movs	r4, r2
 408 0096 0D12     		asrs	r5, r1, #8
 409 0098 4346     		mov	r3, r8
 410 009a 0822     		movs	r2, #8
 411 009c 9A5E     		ldrsh	r2, [r3, r2]
 412 009e D317     		asrs	r3, r2, #31
 413 00a0 3000     		movs	r0, r6
 414 00a2 3900     		movs	r1, r7
 415 00a4 FFF7FEFF 		bl	__aeabi_lmul
 416              	.LVL40:
 417 00a8 060D     		lsrs	r6, r0, #20
 418              	.LVL41:
 419 00aa 0B03     		lsls	r3, r1, #12
 420 00ac 3343     		orrs	r3, r6
 421 00ae 0203     		lsls	r2, r0, #12
 422 00b0 A418     		adds	r4, r4, r2
 423 00b2 5D41     		adcs	r5, r5, r3
ARM GAS  C:\Users\simon\AppData\Local\Temp\cc07ySAM.s 			page 30


 424              	.LVL42:
1230:bme280.c      ****     var3 = ((int64_t)1) * 140737488355328;
1231:bme280.c      ****     var1 = (var3 + var1) * ((int64_t)calib_data->dig_p1) / 8589934592;
 425              		.loc 1 1231 0
 426 00b4 0020     		movs	r0, #0
 427 00b6 8021     		movs	r1, #128
 428 00b8 0902     		lsls	r1, r1, #8
 429 00ba 0019     		adds	r0, r0, r4
 430 00bc 6941     		adcs	r1, r1, r5
 431 00be 4346     		mov	r3, r8
 432 00c0 DA88     		ldrh	r2, [r3, #6]
 433 00c2 0023     		movs	r3, #0
 434 00c4 FFF7FEFF 		bl	__aeabi_lmul
 435              	.LVL43:
 436 00c8 CC17     		asrs	r4, r1, #31
 437              	.LVL44:
 438 00ca 2200     		movs	r2, r4
 439 00cc 0125     		movs	r5, #1
 440 00ce 2C40     		ands	r4, r5
 441 00d0 2300     		movs	r3, r4
 442 00d2 8018     		adds	r0, r0, r2
 443 00d4 5941     		adcs	r1, r1, r3
 444 00d6 4D10     		asrs	r5, r1, #1
 445 00d8 CC17     		asrs	r4, r1, #31
 446              	.LVL45:
1232:bme280.c      **** 
1233:bme280.c      ****     /* To avoid divide by zero exception */
1234:bme280.c      ****     if (var1 != 0)
 447              		.loc 1 1234 0
 448 00da 2B00     		movs	r3, r5
 449 00dc 2343     		orrs	r3, r4
 450 00de 00D1     		bne	.LCB369
 451 00e0 8EE0     		b	.L15	@long jump
 452              	.LCB369:
1235:bme280.c      ****     {
1236:bme280.c      ****         var4 = 1048576 - uncomp_data->pressure;
 453              		.loc 1 1236 0
 454 00e2 4B46     		mov	r3, r9
 455 00e4 1A68     		ldr	r2, [r3]
 456 00e6 8023     		movs	r3, #128
 457 00e8 5B03     		lsls	r3, r3, #13
 458 00ea 9B1A     		subs	r3, r3, r2
 459              	.LVL46:
1237:bme280.c      ****         var4 = (((var4 * INT64_C(2147483648)) - var2) * 3125) / var1;
 460              		.loc 1 1237 0
 461 00ec 5908     		lsrs	r1, r3, #1
 462 00ee D807     		lsls	r0, r3, #31
 463 00f0 029A     		ldr	r2, [sp, #8]
 464 00f2 039B     		ldr	r3, [sp, #12]
 465 00f4 801A     		subs	r0, r0, r2
 466 00f6 9941     		sbcs	r1, r1, r3
 467 00f8 484A     		ldr	r2, .L18+4
 468 00fa 0023     		movs	r3, #0
 469              	.LVL47:
 470 00fc FFF7FEFF 		bl	__aeabi_lmul
 471              	.LVL48:
 472 0100 2A00     		movs	r2, r5
ARM GAS  C:\Users\simon\AppData\Local\Temp\cc07ySAM.s 			page 31


 473 0102 2300     		movs	r3, r4
 474 0104 FFF7FEFF 		bl	__aeabi_ldivmod
 475              	.LVL49:
 476 0108 0400     		movs	r4, r0
 477              	.LVL50:
 478 010a 0D00     		movs	r5, r1
 479              	.LVL51:
1238:bme280.c      ****         var1 = (((int64_t)calib_data->dig_p9) * (var4 / 8192) * (var4 / 8192)) / 33554432;
 480              		.loc 1 1238 0
 481 010c 4346     		mov	r3, r8
 482 010e 1620     		movs	r0, #22
 483 0110 185E     		ldrsh	r0, [r3, r0]
 484 0112 C117     		asrs	r1, r0, #31
 485 0114 EE17     		asrs	r6, r5, #31
 486 0116 F604     		lsls	r6, r6, #19
 487 0118 F20C     		lsrs	r2, r6, #19
 488 011a 0023     		movs	r3, #0
 489 011c 1219     		adds	r2, r2, r4
 490 011e 6B41     		adcs	r3, r3, r5
 491 0120 DE04     		lsls	r6, r3, #19
 492 0122 570B     		lsrs	r7, r2, #13
 493 0124 3743     		orrs	r7, r6
 494 0126 5E13     		asrs	r6, r3, #13
 495 0128 3A00     		movs	r2, r7
 496 012a 3300     		movs	r3, r6
 497 012c FFF7FEFF 		bl	__aeabi_lmul
 498              	.LVL52:
 499 0130 0200     		movs	r2, r0
 500 0132 0B00     		movs	r3, r1
 501 0134 3800     		movs	r0, r7
 502 0136 3100     		movs	r1, r6
 503 0138 FFF7FEFF 		bl	__aeabi_lmul
 504              	.LVL53:
 505 013c CE17     		asrs	r6, r1, #31
 506 013e F601     		lsls	r6, r6, #7
 507 0140 F209     		lsrs	r2, r6, #7
 508 0142 0023     		movs	r3, #0
 509 0144 8018     		adds	r0, r0, r2
 510 0146 5941     		adcs	r1, r1, r3
 511 0148 CA01     		lsls	r2, r1, #7
 512 014a 430E     		lsrs	r3, r0, #25
 513 014c 1A43     		orrs	r2, r3
 514 014e 1600     		movs	r6, r2
 515 0150 4F16     		asrs	r7, r1, #25
 516              	.LVL54:
1239:bme280.c      ****         var2 = (((int64_t)calib_data->dig_p8) * var4) / 524288;
 517              		.loc 1 1239 0
 518 0152 4346     		mov	r3, r8
 519 0154 1422     		movs	r2, #20
 520 0156 9A5E     		ldrsh	r2, [r3, r2]
 521 0158 D317     		asrs	r3, r2, #31
 522 015a 2000     		movs	r0, r4
 523 015c 2900     		movs	r1, r5
 524 015e FFF7FEFF 		bl	__aeabi_lmul
 525              	.LVL55:
 526 0162 0090     		str	r0, [sp]
 527 0164 0191     		str	r1, [sp, #4]
ARM GAS  C:\Users\simon\AppData\Local\Temp\cc07ySAM.s 			page 32


 528 0166 C917     		asrs	r1, r1, #31
 529 0168 4903     		lsls	r1, r1, #13
 530 016a 8C46     		mov	ip, r1
 531 016c 6346     		mov	r3, ip
 532 016e 580B     		lsrs	r0, r3, #13
 533 0170 0021     		movs	r1, #0
 534 0172 009A     		ldr	r2, [sp]
 535 0174 019B     		ldr	r3, [sp, #4]
 536 0176 1218     		adds	r2, r2, r0
 537 0178 4B41     		adcs	r3, r3, r1
 538 017a 1100     		movs	r1, r2
 539 017c 1A00     		movs	r2, r3
 540 017e 5B03     		lsls	r3, r3, #13
 541 0180 9C46     		mov	ip, r3
 542 0182 0091     		str	r1, [sp]
 543 0184 0192     		str	r2, [sp, #4]
 544 0186 C80C     		lsrs	r0, r1, #19
 545 0188 6146     		mov	r1, ip
 546 018a 0143     		orrs	r1, r0
 547 018c 0A00     		movs	r2, r1
 548 018e 0199     		ldr	r1, [sp, #4]
 549 0190 CB14     		asrs	r3, r1, #19
 550              	.LVL56:
1240:bme280.c      ****         var4 = ((var4 + var1 + var2) / 256) + (((int64_t)calib_data->dig_p7) * 16);
 551              		.loc 1 1240 0
 552 0192 A419     		adds	r4, r4, r6
 553 0194 7D41     		adcs	r5, r5, r7
 554              	.LVL57:
 555 0196 1219     		adds	r2, r2, r4
 556 0198 6B41     		adcs	r3, r3, r5
 557              	.LVL58:
 558 019a D817     		asrs	r0, r3, #31
 559 019c FF21     		movs	r1, #255
 560 019e 0840     		ands	r0, r1
 561 01a0 0400     		movs	r4, r0
 562 01a2 0025     		movs	r5, #0
 563 01a4 1219     		adds	r2, r2, r4
 564 01a6 6B41     		adcs	r3, r3, r5
 565 01a8 1C06     		lsls	r4, r3, #24
 566 01aa 120A     		lsrs	r2, r2, #8
 567 01ac 1443     		orrs	r4, r2
 568 01ae 2000     		movs	r0, r4
 569 01b0 1912     		asrs	r1, r3, #8
 570 01b2 4346     		mov	r3, r8
 571 01b4 1224     		movs	r4, #18
 572 01b6 1C5F     		ldrsh	r4, [r3, r4]
 573 01b8 E617     		asrs	r6, r4, #31
 574              	.LVL59:
 575 01ba 250F     		lsrs	r5, r4, #28
 576 01bc 3301     		lsls	r3, r6, #4
 577 01be 2B43     		orrs	r3, r5
 578 01c0 2201     		lsls	r2, r4, #4
 579 01c2 1218     		adds	r2, r2, r0
 580 01c4 4B41     		adcs	r3, r3, r1
 581              	.LVL60:
1241:bme280.c      ****         pressure = (uint32_t)(((var4 / 2) * 100) / 128);
 582              		.loc 1 1241 0
ARM GAS  C:\Users\simon\AppData\Local\Temp\cc07ySAM.s 			page 33


 583 01c6 D80F     		lsrs	r0, r3, #31
 584 01c8 0021     		movs	r1, #0
 585 01ca 1218     		adds	r2, r2, r0
 586 01cc 4B41     		adcs	r3, r3, r1
 587              	.LVL61:
 588 01ce D907     		lsls	r1, r3, #31
 589 01d0 5008     		lsrs	r0, r2, #1
 590 01d2 0843     		orrs	r0, r1
 591 01d4 5910     		asrs	r1, r3, #1
 592 01d6 6422     		movs	r2, #100
 593 01d8 0023     		movs	r3, #0
 594 01da FFF7FEFF 		bl	__aeabi_lmul
 595              	.LVL62:
 596 01de CD17     		asrs	r5, r1, #31
 597 01e0 7F24     		movs	r4, #127
 598 01e2 2540     		ands	r5, r4
 599 01e4 2A00     		movs	r2, r5
 600 01e6 0023     		movs	r3, #0
 601 01e8 8018     		adds	r0, r0, r2
 602 01ea 5941     		adcs	r1, r1, r3
 603 01ec 4B06     		lsls	r3, r1, #25
 604 01ee C009     		lsrs	r0, r0, #7
 605 01f0 1843     		orrs	r0, r3
 606              	.LVL63:
1242:bme280.c      ****         if (pressure < pressure_min)
 607              		.loc 1 1242 0
 608 01f2 0B4B     		ldr	r3, .L18+8
 609 01f4 9842     		cmp	r0, r3
 610 01f6 05D9     		bls	.L16
1243:bme280.c      ****         {
1244:bme280.c      ****             pressure = pressure_min;
1245:bme280.c      ****         }
1246:bme280.c      ****         else if (pressure > pressure_max)
 611              		.loc 1 1246 0
 612 01f8 0A4B     		ldr	r3, .L18+12
 613 01fa 9842     		cmp	r0, r3
 614 01fc 04D8     		bhi	.L17
 615 01fe 04E0     		b	.L13
 616              	.LVL64:
 617              	.L15:
1247:bme280.c      ****         {
1248:bme280.c      ****             pressure = pressure_max;
1249:bme280.c      ****         }
1250:bme280.c      ****     }
1251:bme280.c      ****     else
1252:bme280.c      ****     {
1253:bme280.c      ****         pressure = pressure_min;
 618              		.loc 1 1253 0
 619 0200 0948     		ldr	r0, .L18+16
 620 0202 02E0     		b	.L13
 621              	.LVL65:
 622              	.L16:
1244:bme280.c      ****         }
 623              		.loc 1 1244 0
 624 0204 0848     		ldr	r0, .L18+16
 625              	.LVL66:
 626 0206 00E0     		b	.L13
ARM GAS  C:\Users\simon\AppData\Local\Temp\cc07ySAM.s 			page 34


 627              	.LVL67:
 628              	.L17:
1248:bme280.c      ****         }
 629              		.loc 1 1248 0
 630 0208 0648     		ldr	r0, .L18+12
 631              	.LVL68:
 632              	.L13:
1254:bme280.c      ****     }
1255:bme280.c      **** 
1256:bme280.c      ****     return pressure;
1257:bme280.c      **** }
 633              		.loc 1 1257 0
 634 020a 04B0     		add	sp, sp, #16
 635              		@ sp needed
 636              	.LVL69:
 637              	.LVL70:
 638 020c 1CBC     		pop	{r2, r3, r4}
 639 020e 9046     		mov	r8, r2
 640 0210 9946     		mov	r9, r3
 641 0212 A246     		mov	r10, r4
 642 0214 F0BD     		pop	{r4, r5, r6, r7, pc}
 643              	.L19:
 644 0216 C046     		.align	2
 645              	.L18:
 646 0218 000CFEFF 		.word	-128000
 647 021c 350C0000 		.word	3125
 648 0220 BFC62D00 		.word	2999999
 649 0224 C0D8A700 		.word	11000000
 650 0228 C0C62D00 		.word	3000000
 651              		.cfi_endproc
 652              	.LFE25:
 653              		.size	compensate_pressure, .-compensate_pressure
 654              		.section	.text.compensate_humidity,"ax",%progbits
 655              		.align	2
 656              		.code	16
 657              		.thumb_func
 658              		.type	compensate_humidity, %function
 659              	compensate_humidity:
 660              	.LFB26:
1258:bme280.c      **** #else
1259:bme280.c      **** 
1260:bme280.c      **** /*!
1261:bme280.c      ****  * @brief This internal API is used to compensate the raw pressure data and
1262:bme280.c      ****  * return the compensated pressure data in integer data type.
1263:bme280.c      ****  */
1264:bme280.c      **** static uint32_t compensate_pressure(const struct bme280_uncomp_data *uncomp_data,
1265:bme280.c      ****                                     const struct bme280_calib_data *calib_data)
1266:bme280.c      **** {
1267:bme280.c      ****     int32_t var1;
1268:bme280.c      ****     int32_t var2;
1269:bme280.c      ****     int32_t var3;
1270:bme280.c      ****     int32_t var4;
1271:bme280.c      ****     uint32_t var5;
1272:bme280.c      ****     uint32_t pressure;
1273:bme280.c      ****     uint32_t pressure_min = 30000;
1274:bme280.c      ****     uint32_t pressure_max = 110000;
1275:bme280.c      **** 
ARM GAS  C:\Users\simon\AppData\Local\Temp\cc07ySAM.s 			page 35


1276:bme280.c      ****     var1 = (((int32_t)calib_data->t_fine) / 2) - (int32_t)64000;
1277:bme280.c      ****     var2 = (((var1 / 4) * (var1 / 4)) / 2048) * ((int32_t)calib_data->dig_p6);
1278:bme280.c      ****     var2 = var2 + ((var1 * ((int32_t)calib_data->dig_p5)) * 2);
1279:bme280.c      ****     var2 = (var2 / 4) + (((int32_t)calib_data->dig_p4) * 65536);
1280:bme280.c      ****     var3 = (calib_data->dig_p3 * (((var1 / 4) * (var1 / 4)) / 8192)) / 8;
1281:bme280.c      ****     var4 = (((int32_t)calib_data->dig_p2) * var1) / 2;
1282:bme280.c      ****     var1 = (var3 + var4) / 262144;
1283:bme280.c      ****     var1 = (((32768 + var1)) * ((int32_t)calib_data->dig_p1)) / 32768;
1284:bme280.c      **** 
1285:bme280.c      ****     /* avoid exception caused by division by zero */
1286:bme280.c      ****     if (var1)
1287:bme280.c      ****     {
1288:bme280.c      ****         var5 = (uint32_t)((uint32_t)1048576) - uncomp_data->pressure;
1289:bme280.c      ****         pressure = ((uint32_t)(var5 - (uint32_t)(var2 / 4096))) * 3125;
1290:bme280.c      ****         if (pressure < 0x80000000)
1291:bme280.c      ****         {
1292:bme280.c      ****             pressure = (pressure << 1) / ((uint32_t)var1);
1293:bme280.c      ****         }
1294:bme280.c      ****         else
1295:bme280.c      ****         {
1296:bme280.c      ****             pressure = (pressure / (uint32_t)var1) * 2;
1297:bme280.c      ****         }
1298:bme280.c      ****         var1 = (((int32_t)calib_data->dig_p9) * ((int32_t)(((pressure / 8) * (pressure / 8)) / 8192
1299:bme280.c      ****         var2 = (((int32_t)(pressure / 4)) * ((int32_t)calib_data->dig_p8)) / 8192;
1300:bme280.c      ****         pressure = (uint32_t)((int32_t)pressure + ((var1 + var2 + calib_data->dig_p7) / 16));
1301:bme280.c      ****         if (pressure < pressure_min)
1302:bme280.c      ****         {
1303:bme280.c      ****             pressure = pressure_min;
1304:bme280.c      ****         }
1305:bme280.c      ****         else if (pressure > pressure_max)
1306:bme280.c      ****         {
1307:bme280.c      ****             pressure = pressure_max;
1308:bme280.c      ****         }
1309:bme280.c      ****     }
1310:bme280.c      ****     else
1311:bme280.c      ****     {
1312:bme280.c      ****         pressure = pressure_min;
1313:bme280.c      ****     }
1314:bme280.c      **** 
1315:bme280.c      ****     return pressure;
1316:bme280.c      **** }
1317:bme280.c      **** #endif
1318:bme280.c      **** 
1319:bme280.c      **** /*!
1320:bme280.c      ****  * @brief This internal API is used to compensate the raw humidity data and
1321:bme280.c      ****  * return the compensated humidity data in integer data type.
1322:bme280.c      ****  */
1323:bme280.c      **** static uint32_t compensate_humidity(const struct bme280_uncomp_data *uncomp_data,
1324:bme280.c      ****                                     const struct bme280_calib_data *calib_data)
1325:bme280.c      **** {
 661              		.loc 1 1325 0
 662              		.cfi_startproc
 663              		@ args = 0, pretend = 0, frame = 0
 664              		@ frame_needed = 0, uses_anonymous_args = 0
 665              	.LVL71:
 666 0000 70B5     		push	{r4, r5, r6, lr}
 667              		.cfi_def_cfa_offset 16
ARM GAS  C:\Users\simon\AppData\Local\Temp\cc07ySAM.s 			page 36


 668              		.cfi_offset 4, -16
 669              		.cfi_offset 5, -12
 670              		.cfi_offset 6, -8
 671              		.cfi_offset 14, -4
 672              	.LVL72:
1326:bme280.c      ****     int32_t var1;
1327:bme280.c      ****     int32_t var2;
1328:bme280.c      ****     int32_t var3;
1329:bme280.c      ****     int32_t var4;
1330:bme280.c      ****     int32_t var5;
1331:bme280.c      ****     uint32_t humidity;
1332:bme280.c      ****     uint32_t humidity_max = 102400;
1333:bme280.c      **** 
1334:bme280.c      ****     var1 = calib_data->t_fine - ((int32_t)76800);
 673              		.loc 1 1334 0
 674 0002 4B6A     		ldr	r3, [r1, #36]
 675 0004 324A     		ldr	r2, .L25
 676 0006 9446     		mov	ip, r2
 677 0008 6344     		add	r3, r3, ip
 678 000a 1E00     		movs	r6, r3
 679              	.LVL73:
1335:bme280.c      ****     var2 = (int32_t)(uncomp_data->humidity * 16384);
 680              		.loc 1 1335 0
 681 000c 8468     		ldr	r4, [r0, #8]
 682 000e A503     		lsls	r5, r4, #14
 683              	.LVL74:
1336:bme280.c      ****     var3 = (int32_t)(((int32_t)calib_data->dig_h4) * 1048576);
 684              		.loc 1 1336 0
 685 0010 1E23     		movs	r3, #30
 686 0012 CC5E     		ldrsh	r4, [r1, r3]
 687              	.LVL75:
 688 0014 2405     		lsls	r4, r4, #20
 689              	.LVL76:
1337:bme280.c      ****     var4 = ((int32_t)calib_data->dig_h5) * var1;
 690              		.loc 1 1337 0
 691 0016 2023     		movs	r3, #32
 692 0018 C85E     		ldrsh	r0, [r1, r3]
 693              	.LVL77:
 694 001a 7043     		muls	r0, r6
 695              	.LVL78:
1338:bme280.c      ****     var5 = (((var2 - var3) - var4) + (int32_t)16384) / 32768;
 696              		.loc 1 1338 0
 697 001c 2C1B     		subs	r4, r5, r4
 698              	.LVL79:
 699 001e 201A     		subs	r0, r4, r0
 700              	.LVL80:
 701 0020 8023     		movs	r3, #128
 702 0022 DB01     		lsls	r3, r3, #7
 703 0024 9C46     		mov	ip, r3
 704 0026 6044     		add	r0, r0, ip
 705 0028 C317     		asrs	r3, r0, #31
 706 002a 5B04     		lsls	r3, r3, #17
 707 002c 5B0C     		lsrs	r3, r3, #17
 708 002e 1818     		adds	r0, r3, r0
 709 0030 C013     		asrs	r0, r0, #15
 710              	.LVL81:
1339:bme280.c      ****     var2 = (var1 * ((int32_t)calib_data->dig_h6)) / 1024;
ARM GAS  C:\Users\simon\AppData\Local\Temp\cc07ySAM.s 			page 37


 711              		.loc 1 1339 0
 712 0032 2223     		movs	r3, #34
 713 0034 CC56     		ldrsb	r4, [r1, r3]
 714 0036 7443     		muls	r4, r6
 715 0038 E317     		asrs	r3, r4, #31
 716 003a 9B05     		lsls	r3, r3, #22
 717 003c 9B0D     		lsrs	r3, r3, #22
 718 003e 1B19     		adds	r3, r3, r4
 719 0040 9B12     		asrs	r3, r3, #10
 720              	.LVL82:
1340:bme280.c      ****     var3 = (var1 * ((int32_t)calib_data->dig_h3)) / 2048;
 721              		.loc 1 1340 0
 722 0042 0A7F     		ldrb	r2, [r1, #28]
 723 0044 7243     		muls	r2, r6
 724 0046 D417     		asrs	r4, r2, #31
 725 0048 6405     		lsls	r4, r4, #21
 726 004a 640D     		lsrs	r4, r4, #21
 727 004c A218     		adds	r2, r4, r2
 728 004e D212     		asrs	r2, r2, #11
 729              	.LVL83:
1341:bme280.c      ****     var4 = ((var2 * (var3 + (int32_t)32768)) / 1024) + (int32_t)2097152;
 730              		.loc 1 1341 0
 731 0050 8024     		movs	r4, #128
 732 0052 2402     		lsls	r4, r4, #8
 733 0054 A446     		mov	ip, r4
 734 0056 6244     		add	r2, r2, ip
 735              	.LVL84:
 736 0058 5343     		muls	r3, r2
 737              	.LVL85:
 738 005a DA17     		asrs	r2, r3, #31
 739              	.LVL86:
 740 005c 9205     		lsls	r2, r2, #22
 741 005e 920D     		lsrs	r2, r2, #22
 742 0060 D318     		adds	r3, r2, r3
 743 0062 9B12     		asrs	r3, r3, #10
 744 0064 8022     		movs	r2, #128
 745 0066 9203     		lsls	r2, r2, #14
 746 0068 9446     		mov	ip, r2
 747 006a 6344     		add	r3, r3, ip
 748              	.LVL87:
1342:bme280.c      ****     var2 = ((var4 * ((int32_t)calib_data->dig_h2)) + 8192) / 16384;
 749              		.loc 1 1342 0
 750 006c 1A22     		movs	r2, #26
 751 006e 8C5E     		ldrsh	r4, [r1, r2]
 752 0070 6343     		muls	r3, r4
 753              	.LVL88:
 754 0072 8022     		movs	r2, #128
 755              	.LVL89:
 756 0074 9201     		lsls	r2, r2, #6
 757              	.LVL90:
 758 0076 9C18     		adds	r4, r3, r2
 759 0078 E317     		asrs	r3, r4, #31
 760 007a 9B04     		lsls	r3, r3, #18
 761 007c 9B0C     		lsrs	r3, r3, #18
 762 007e 1C19     		adds	r4, r3, r4
 763 0080 A413     		asrs	r4, r4, #14
 764              	.LVL91:
ARM GAS  C:\Users\simon\AppData\Local\Temp\cc07ySAM.s 			page 38


1343:bme280.c      ****     var3 = var5 * var2;
 765              		.loc 1 1343 0
 766 0082 2300     		movs	r3, r4
 767 0084 4343     		muls	r3, r0
 768              	.LVL92:
1344:bme280.c      ****     var4 = ((var3 / 32768) * (var3 / 32768)) / 128;
 769              		.loc 1 1344 0
 770 0086 DA17     		asrs	r2, r3, #31
 771 0088 5204     		lsls	r2, r2, #17
 772 008a 520C     		lsrs	r2, r2, #17
 773 008c D218     		adds	r2, r2, r3
 774 008e D213     		asrs	r2, r2, #15
 775 0090 5243     		muls	r2, r2
 776 0092 D017     		asrs	r0, r2, #31
 777              	.LVL93:
 778 0094 7F24     		movs	r4, #127
 779              	.LVL94:
 780 0096 2040     		ands	r0, r4
 781 0098 8218     		adds	r2, r0, r2
 782 009a D211     		asrs	r2, r2, #7
 783              	.LVL95:
1345:bme280.c      ****     var5 = var3 - ((var4 * ((int32_t)calib_data->dig_h1)) / 16);
 784              		.loc 1 1345 0
 785 009c 097E     		ldrb	r1, [r1, #24]
 786              	.LVL96:
 787 009e 4A43     		muls	r2, r1
 788              	.LVL97:
 789 00a0 D117     		asrs	r1, r2, #31
 790 00a2 0F20     		movs	r0, #15
 791              	.LVL98:
 792 00a4 0840     		ands	r0, r1
 793 00a6 8218     		adds	r2, r0, r2
 794 00a8 1211     		asrs	r2, r2, #4
 795 00aa 9A1A     		subs	r2, r3, r2
 796              	.LVL99:
1346:bme280.c      ****     var5 = (var5 < 0 ? 0 : var5);
 797              		.loc 1 1346 0
 798 00ac 00D5     		bpl	.L21
 799 00ae 0022     		movs	r2, #0
 800              	.L21:
 801              	.LVL100:
1347:bme280.c      ****     var5 = (var5 > 419430400 ? 419430400 : var5);
 802              		.loc 1 1347 0
 803 00b0 C823     		movs	r3, #200
 804              	.LVL101:
 805 00b2 5B05     		lsls	r3, r3, #21
 806 00b4 9A42     		cmp	r2, r3
 807 00b6 00DD     		ble	.L22
 808 00b8 1A00     		movs	r2, r3
 809              	.LVL102:
 810              	.L22:
1348:bme280.c      ****     humidity = (uint32_t)(var5 / 4096);
 811              		.loc 1 1348 0
 812 00ba D017     		asrs	r0, r2, #31
 813 00bc 0005     		lsls	r0, r0, #20
 814 00be 000D     		lsrs	r0, r0, #20
 815 00c0 8018     		adds	r0, r0, r2
ARM GAS  C:\Users\simon\AppData\Local\Temp\cc07ySAM.s 			page 39


 816 00c2 0013     		asrs	r0, r0, #12
 817              	.LVL103:
1349:bme280.c      ****     if (humidity > humidity_max)
 818              		.loc 1 1349 0
 819 00c4 C823     		movs	r3, #200
 820 00c6 5B02     		lsls	r3, r3, #9
 821 00c8 9842     		cmp	r0, r3
 822 00ca 00D9     		bls	.L23
1350:bme280.c      ****     {
1351:bme280.c      ****         humidity = humidity_max;
 823              		.loc 1 1351 0
 824 00cc 1800     		movs	r0, r3
 825              	.LVL104:
 826              	.L23:
1352:bme280.c      ****     }
1353:bme280.c      **** 
1354:bme280.c      ****     return humidity;
1355:bme280.c      **** }
 827              		.loc 1 1355 0
 828              		@ sp needed
 829              	.LVL105:
 830              	.LVL106:
 831 00ce 70BD     		pop	{r4, r5, r6, pc}
 832              	.L26:
 833              		.align	2
 834              	.L25:
 835 00d0 00D4FEFF 		.word	-76800
 836              		.cfi_endproc
 837              	.LFE26:
 838              		.size	compensate_humidity, .-compensate_humidity
 839              		.section	.text.interleave_reg_addr,"ax",%progbits
 840              		.align	2
 841              		.code	16
 842              		.thumb_func
 843              		.type	interleave_reg_addr, %function
 844              	interleave_reg_addr:
 845              	.LFB28:
1356:bme280.c      **** #endif
1357:bme280.c      **** 
1358:bme280.c      **** /*!
1359:bme280.c      ****  * @brief This internal API reads the calibration data from the sensor, parse
1360:bme280.c      ****  * it and store in the device structure.
1361:bme280.c      ****  */
1362:bme280.c      **** static int8_t get_calib_data(struct bme280_dev *dev)
1363:bme280.c      **** {
1364:bme280.c      ****     int8_t rslt;
1365:bme280.c      ****     uint8_t reg_addr = BME280_TEMP_PRESS_CALIB_DATA_ADDR;
1366:bme280.c      **** 
1367:bme280.c      ****     /* Array to store calibration data */
1368:bme280.c      ****     uint8_t calib_data[BME280_TEMP_PRESS_CALIB_DATA_LEN] = { 0 };
1369:bme280.c      **** 
1370:bme280.c      ****     /* Read the calibration data from the sensor */
1371:bme280.c      ****     rslt = bme280_get_regs(reg_addr, calib_data, BME280_TEMP_PRESS_CALIB_DATA_LEN, dev);
1372:bme280.c      ****     if (rslt == BME280_OK)
1373:bme280.c      ****     {
1374:bme280.c      ****         /* Parse temperature and pressure calibration data and store
1375:bme280.c      ****          * it in device structure
ARM GAS  C:\Users\simon\AppData\Local\Temp\cc07ySAM.s 			page 40


1376:bme280.c      ****          */
1377:bme280.c      ****         parse_temp_press_calib_data(calib_data, dev);
1378:bme280.c      ****         reg_addr = BME280_HUMIDITY_CALIB_DATA_ADDR;
1379:bme280.c      **** 
1380:bme280.c      ****         /* Read the humidity calibration data from the sensor */
1381:bme280.c      ****         rslt = bme280_get_regs(reg_addr, calib_data, BME280_HUMIDITY_CALIB_DATA_LEN, dev);
1382:bme280.c      ****         if (rslt == BME280_OK)
1383:bme280.c      ****         {
1384:bme280.c      ****             /* Parse humidity calibration data and store it in
1385:bme280.c      ****              * device structure
1386:bme280.c      ****              */
1387:bme280.c      ****             parse_humidity_calib_data(calib_data, dev);
1388:bme280.c      ****         }
1389:bme280.c      ****     }
1390:bme280.c      **** 
1391:bme280.c      ****     return rslt;
1392:bme280.c      **** }
1393:bme280.c      **** 
1394:bme280.c      **** /*!
1395:bme280.c      ****  * @brief This internal API interleaves the register address between the
1396:bme280.c      ****  * register data buffer for burst write operation.
1397:bme280.c      ****  */
1398:bme280.c      **** static void interleave_reg_addr(const uint8_t *reg_addr, uint8_t *temp_buff, const uint8_t *reg_dat
1399:bme280.c      **** {
 846              		.loc 1 1399 0
 847              		.cfi_startproc
 848              		@ args = 0, pretend = 0, frame = 0
 849              		@ frame_needed = 0, uses_anonymous_args = 0
 850              	.LVL107:
 851 0000 F0B5     		push	{r4, r5, r6, r7, lr}
 852              		.cfi_def_cfa_offset 20
 853              		.cfi_offset 4, -20
 854              		.cfi_offset 5, -16
 855              		.cfi_offset 6, -12
 856              		.cfi_offset 7, -8
 857              		.cfi_offset 14, -4
 858              	.LVL108:
1400:bme280.c      ****     uint8_t index;
1401:bme280.c      **** 
1402:bme280.c      ****     for (index = 1; index < len; index++)
 859              		.loc 1 1402 0
 860 0002 0124     		movs	r4, #1
 861 0004 07E0     		b	.L28
 862              	.LVL109:
 863              	.L29:
1403:bme280.c      ****     {
1404:bme280.c      ****         temp_buff[(index * 2) - 1] = reg_addr[index];
 864              		.loc 1 1404 0 discriminator 3
 865 0006 6500     		lsls	r5, r4, #1
 866 0008 6E1E     		subs	r6, r5, #1
 867 000a 075D     		ldrb	r7, [r0, r4]
 868 000c 8F55     		strb	r7, [r1, r6]
1405:bme280.c      ****         temp_buff[index * 2] = reg_data[index];
 869              		.loc 1 1405 0 discriminator 3
 870 000e 165D     		ldrb	r6, [r2, r4]
 871 0010 4E55     		strb	r6, [r1, r5]
1402:bme280.c      ****     {
ARM GAS  C:\Users\simon\AppData\Local\Temp\cc07ySAM.s 			page 41


 872              		.loc 1 1402 0 discriminator 3
 873 0012 0134     		adds	r4, r4, #1
 874              	.LVL110:
 875 0014 E4B2     		uxtb	r4, r4
 876              	.LVL111:
 877              	.L28:
1402:bme280.c      ****     {
 878              		.loc 1 1402 0 is_stmt 0 discriminator 1
 879 0016 9C42     		cmp	r4, r3
 880 0018 F5D3     		bcc	.L29
1406:bme280.c      ****     }
1407:bme280.c      **** }
 881              		.loc 1 1407 0 is_stmt 1
 882              		@ sp needed
 883              	.LVL112:
 884 001a F0BD     		pop	{r4, r5, r6, r7, pc}
 885              		.cfi_endproc
 886              	.LFE28:
 887              		.size	interleave_reg_addr, .-interleave_reg_addr
 888              		.section	.text.parse_temp_press_calib_data,"ax",%progbits
 889              		.align	2
 890              		.code	16
 891              		.thumb_func
 892              		.type	parse_temp_press_calib_data, %function
 893              	parse_temp_press_calib_data:
 894              	.LFB29:
1408:bme280.c      **** 
1409:bme280.c      **** /*!
1410:bme280.c      ****  *  @brief This internal API is used to parse the temperature and
1411:bme280.c      ****  *  pressure calibration data and store it in device structure.
1412:bme280.c      ****  */
1413:bme280.c      **** static void parse_temp_press_calib_data(const uint8_t *reg_data, struct bme280_dev *dev)
1414:bme280.c      **** {
 895              		.loc 1 1414 0
 896              		.cfi_startproc
 897              		@ args = 0, pretend = 0, frame = 0
 898              		@ frame_needed = 0, uses_anonymous_args = 0
 899              		@ link register save eliminated.
 900              	.LVL113:
1415:bme280.c      ****     struct bme280_calib_data *calib_data = &dev->calib_data;
1416:bme280.c      **** 
1417:bme280.c      ****     calib_data->dig_t1 = BME280_CONCAT_BYTES(reg_data[1], reg_data[0]);
 901              		.loc 1 1417 0
 902 0000 4378     		ldrb	r3, [r0, #1]
 903 0002 1B02     		lsls	r3, r3, #8
 904 0004 0278     		ldrb	r2, [r0]
 905 0006 1343     		orrs	r3, r2
 906 0008 0B82     		strh	r3, [r1, #16]
1418:bme280.c      ****     calib_data->dig_t2 = (int16_t)BME280_CONCAT_BYTES(reg_data[3], reg_data[2]);
 907              		.loc 1 1418 0
 908 000a C378     		ldrb	r3, [r0, #3]
 909 000c 1B02     		lsls	r3, r3, #8
 910 000e 8278     		ldrb	r2, [r0, #2]
 911 0010 1343     		orrs	r3, r2
 912 0012 4B82     		strh	r3, [r1, #18]
1419:bme280.c      ****     calib_data->dig_t3 = (int16_t)BME280_CONCAT_BYTES(reg_data[5], reg_data[4]);
 913              		.loc 1 1419 0
ARM GAS  C:\Users\simon\AppData\Local\Temp\cc07ySAM.s 			page 42


 914 0014 4379     		ldrb	r3, [r0, #5]
 915 0016 1B02     		lsls	r3, r3, #8
 916 0018 0279     		ldrb	r2, [r0, #4]
 917 001a 1343     		orrs	r3, r2
 918 001c 8B82     		strh	r3, [r1, #20]
1420:bme280.c      ****     calib_data->dig_p1 = BME280_CONCAT_BYTES(reg_data[7], reg_data[6]);
 919              		.loc 1 1420 0
 920 001e C379     		ldrb	r3, [r0, #7]
 921 0020 1B02     		lsls	r3, r3, #8
 922 0022 8279     		ldrb	r2, [r0, #6]
 923 0024 1343     		orrs	r3, r2
 924 0026 CB82     		strh	r3, [r1, #22]
1421:bme280.c      ****     calib_data->dig_p2 = (int16_t)BME280_CONCAT_BYTES(reg_data[9], reg_data[8]);
 925              		.loc 1 1421 0
 926 0028 437A     		ldrb	r3, [r0, #9]
 927 002a 1B02     		lsls	r3, r3, #8
 928 002c 027A     		ldrb	r2, [r0, #8]
 929 002e 1343     		orrs	r3, r2
 930 0030 0B83     		strh	r3, [r1, #24]
1422:bme280.c      ****     calib_data->dig_p3 = (int16_t)BME280_CONCAT_BYTES(reg_data[11], reg_data[10]);
 931              		.loc 1 1422 0
 932 0032 C37A     		ldrb	r3, [r0, #11]
 933 0034 1B02     		lsls	r3, r3, #8
 934 0036 827A     		ldrb	r2, [r0, #10]
 935 0038 1343     		orrs	r3, r2
 936 003a 4B83     		strh	r3, [r1, #26]
1423:bme280.c      ****     calib_data->dig_p4 = (int16_t)BME280_CONCAT_BYTES(reg_data[13], reg_data[12]);
 937              		.loc 1 1423 0
 938 003c 437B     		ldrb	r3, [r0, #13]
 939 003e 1B02     		lsls	r3, r3, #8
 940 0040 027B     		ldrb	r2, [r0, #12]
 941 0042 1343     		orrs	r3, r2
 942 0044 8B83     		strh	r3, [r1, #28]
1424:bme280.c      ****     calib_data->dig_p5 = (int16_t)BME280_CONCAT_BYTES(reg_data[15], reg_data[14]);
 943              		.loc 1 1424 0
 944 0046 C37B     		ldrb	r3, [r0, #15]
 945 0048 1B02     		lsls	r3, r3, #8
 946 004a 827B     		ldrb	r2, [r0, #14]
 947 004c 1343     		orrs	r3, r2
 948 004e CB83     		strh	r3, [r1, #30]
1425:bme280.c      ****     calib_data->dig_p6 = (int16_t)BME280_CONCAT_BYTES(reg_data[17], reg_data[16]);
 949              		.loc 1 1425 0
 950 0050 437C     		ldrb	r3, [r0, #17]
 951 0052 1B02     		lsls	r3, r3, #8
 952 0054 027C     		ldrb	r2, [r0, #16]
 953 0056 1343     		orrs	r3, r2
 954 0058 0B84     		strh	r3, [r1, #32]
1426:bme280.c      ****     calib_data->dig_p7 = (int16_t)BME280_CONCAT_BYTES(reg_data[19], reg_data[18]);
 955              		.loc 1 1426 0
 956 005a C37C     		ldrb	r3, [r0, #19]
 957 005c 1B02     		lsls	r3, r3, #8
 958 005e 827C     		ldrb	r2, [r0, #18]
 959 0060 1343     		orrs	r3, r2
 960 0062 4B84     		strh	r3, [r1, #34]
1427:bme280.c      ****     calib_data->dig_p8 = (int16_t)BME280_CONCAT_BYTES(reg_data[21], reg_data[20]);
 961              		.loc 1 1427 0
 962 0064 437D     		ldrb	r3, [r0, #21]
ARM GAS  C:\Users\simon\AppData\Local\Temp\cc07ySAM.s 			page 43


 963 0066 1B02     		lsls	r3, r3, #8
 964 0068 027D     		ldrb	r2, [r0, #20]
 965 006a 1343     		orrs	r3, r2
 966 006c 8B84     		strh	r3, [r1, #36]
1428:bme280.c      ****     calib_data->dig_p9 = (int16_t)BME280_CONCAT_BYTES(reg_data[23], reg_data[22]);
 967              		.loc 1 1428 0
 968 006e C37D     		ldrb	r3, [r0, #23]
 969 0070 1B02     		lsls	r3, r3, #8
 970 0072 827D     		ldrb	r2, [r0, #22]
 971 0074 1343     		orrs	r3, r2
 972 0076 CB84     		strh	r3, [r1, #38]
1429:bme280.c      ****     calib_data->dig_h1 = reg_data[25];
 973              		.loc 1 1429 0
 974 0078 427E     		ldrb	r2, [r0, #25]
 975 007a 2823     		movs	r3, #40
 976 007c CA54     		strb	r2, [r1, r3]
1430:bme280.c      **** }
 977              		.loc 1 1430 0
 978              		@ sp needed
 979 007e 7047     		bx	lr
 980              		.cfi_endproc
 981              	.LFE29:
 982              		.size	parse_temp_press_calib_data, .-parse_temp_press_calib_data
 983              		.section	.text.parse_humidity_calib_data,"ax",%progbits
 984              		.align	2
 985              		.code	16
 986              		.thumb_func
 987              		.type	parse_humidity_calib_data, %function
 988              	parse_humidity_calib_data:
 989              	.LFB30:
1431:bme280.c      **** 
1432:bme280.c      **** /*!
1433:bme280.c      ****  *  @brief This internal API is used to parse the humidity calibration data
1434:bme280.c      ****  *  and store it in device structure.
1435:bme280.c      ****  */
1436:bme280.c      **** static void parse_humidity_calib_data(const uint8_t *reg_data, struct bme280_dev *dev)
1437:bme280.c      **** {
 990              		.loc 1 1437 0
 991              		.cfi_startproc
 992              		@ args = 0, pretend = 0, frame = 0
 993              		@ frame_needed = 0, uses_anonymous_args = 0
 994              	.LVL114:
 995 0000 10B5     		push	{r4, lr}
 996              		.cfi_def_cfa_offset 8
 997              		.cfi_offset 4, -8
 998              		.cfi_offset 14, -4
 999              	.LVL115:
1438:bme280.c      ****     struct bme280_calib_data *calib_data = &dev->calib_data;
1439:bme280.c      ****     int16_t dig_h4_lsb;
1440:bme280.c      ****     int16_t dig_h4_msb;
1441:bme280.c      ****     int16_t dig_h5_lsb;
1442:bme280.c      ****     int16_t dig_h5_msb;
1443:bme280.c      **** 
1444:bme280.c      ****     calib_data->dig_h2 = (int16_t)BME280_CONCAT_BYTES(reg_data[1], reg_data[0]);
 1000              		.loc 1 1444 0
 1001 0002 4378     		ldrb	r3, [r0, #1]
 1002 0004 1B02     		lsls	r3, r3, #8
ARM GAS  C:\Users\simon\AppData\Local\Temp\cc07ySAM.s 			page 44


 1003 0006 0278     		ldrb	r2, [r0]
 1004 0008 1343     		orrs	r3, r2
 1005 000a 4B85     		strh	r3, [r1, #42]
1445:bme280.c      ****     calib_data->dig_h3 = reg_data[2];
 1006              		.loc 1 1445 0
 1007 000c 8278     		ldrb	r2, [r0, #2]
 1008 000e 2C23     		movs	r3, #44
 1009 0010 CA54     		strb	r2, [r1, r3]
1446:bme280.c      ****     dig_h4_msb = (int16_t)(int8_t)reg_data[3] * 16;
 1010              		.loc 1 1446 0
 1011 0012 0323     		movs	r3, #3
 1012 0014 C356     		ldrsb	r3, [r0, r3]
 1013 0016 1C01     		lsls	r4, r3, #4
 1014              	.LVL116:
1447:bme280.c      ****     dig_h4_lsb = (int16_t)(reg_data[4] & 0x0F);
 1015              		.loc 1 1447 0
 1016 0018 0279     		ldrb	r2, [r0, #4]
 1017 001a 0F23     		movs	r3, #15
 1018 001c 1340     		ands	r3, r2
 1019              	.LVL117:
1448:bme280.c      ****     calib_data->dig_h4 = dig_h4_msb | dig_h4_lsb;
 1020              		.loc 1 1448 0
 1021 001e 2343     		orrs	r3, r4
 1022              	.LVL118:
 1023 0020 CB85     		strh	r3, [r1, #46]
1449:bme280.c      ****     dig_h5_msb = (int16_t)(int8_t)reg_data[5] * 16;
 1024              		.loc 1 1449 0
 1025 0022 0523     		movs	r3, #5
 1026 0024 C356     		ldrsb	r3, [r0, r3]
 1027 0026 1A01     		lsls	r2, r3, #4
 1028              	.LVL119:
1450:bme280.c      ****     dig_h5_lsb = (int16_t)(reg_data[4] >> 4);
 1029              		.loc 1 1450 0
 1030 0028 0379     		ldrb	r3, [r0, #4]
 1031 002a 1B09     		lsrs	r3, r3, #4
 1032              	.LVL120:
1451:bme280.c      ****     calib_data->dig_h5 = dig_h5_msb | dig_h5_lsb;
 1033              		.loc 1 1451 0
 1034 002c 1343     		orrs	r3, r2
 1035              	.LVL121:
 1036 002e 0B86     		strh	r3, [r1, #48]
 1037              	.LVL122:
1452:bme280.c      ****     calib_data->dig_h6 = (int8_t)reg_data[6];
 1038              		.loc 1 1452 0
 1039 0030 0622     		movs	r2, #6
 1040              	.LVL123:
 1041 0032 8256     		ldrsb	r2, [r0, r2]
 1042 0034 3223     		movs	r3, #50
 1043 0036 CA54     		strb	r2, [r1, r3]
1453:bme280.c      **** }
 1044              		.loc 1 1453 0
 1045              		@ sp needed
 1046              	.LVL124:
 1047 0038 10BD     		pop	{r4, pc}
 1048              		.cfi_endproc
 1049              	.LFE30:
 1050              		.size	parse_humidity_calib_data, .-parse_humidity_calib_data
ARM GAS  C:\Users\simon\AppData\Local\Temp\cc07ySAM.s 			page 45


 1051 003a C046     		.section	.text.are_settings_changed,"ax",%progbits
 1052              		.align	2
 1053              		.code	16
 1054              		.thumb_func
 1055              		.type	are_settings_changed, %function
 1056              	are_settings_changed:
 1057              	.LFB31:
1454:bme280.c      **** 
1455:bme280.c      **** /*!
1456:bme280.c      ****  * @brief This internal API is used to identify the settings which the user
1457:bme280.c      ****  * wants to modify in the sensor.
1458:bme280.c      ****  */
1459:bme280.c      **** static uint8_t are_settings_changed(uint8_t sub_settings, uint8_t desired_settings)
1460:bme280.c      **** {
 1058              		.loc 1 1460 0
 1059              		.cfi_startproc
 1060              		@ args = 0, pretend = 0, frame = 0
 1061              		@ frame_needed = 0, uses_anonymous_args = 0
 1062              		@ link register save eliminated.
 1063              	.LVL125:
1461:bme280.c      ****     uint8_t settings_changed = FALSE;
1462:bme280.c      **** 
1463:bme280.c      ****     if (sub_settings & desired_settings)
 1064              		.loc 1 1463 0
 1065 0000 0142     		tst	r1, r0
 1066 0002 01D0     		beq	.L34
1464:bme280.c      ****     {
1465:bme280.c      ****         /* User wants to modify this particular settings */
1466:bme280.c      ****         settings_changed = TRUE;
 1067              		.loc 1 1466 0
 1068 0004 0120     		movs	r0, #1
 1069              	.LVL126:
 1070 0006 00E0     		b	.L33
 1071              	.LVL127:
 1072              	.L34:
1467:bme280.c      ****     }
1468:bme280.c      ****     else
1469:bme280.c      ****     {
1470:bme280.c      ****         /* User don't want to modify this particular settings */
1471:bme280.c      ****         settings_changed = FALSE;
 1073              		.loc 1 1471 0
 1074 0008 0020     		movs	r0, #0
 1075              	.LVL128:
 1076              	.L33:
1472:bme280.c      ****     }
1473:bme280.c      **** 
1474:bme280.c      ****     return settings_changed;
1475:bme280.c      **** }
 1077              		.loc 1 1475 0
 1078              		@ sp needed
 1079 000a 7047     		bx	lr
 1080              		.cfi_endproc
 1081              	.LFE31:
 1082              		.size	are_settings_changed, .-are_settings_changed
 1083              		.section	.text.null_ptr_check,"ax",%progbits
 1084              		.align	2
 1085              		.code	16
ARM GAS  C:\Users\simon\AppData\Local\Temp\cc07ySAM.s 			page 46


 1086              		.thumb_func
 1087              		.type	null_ptr_check, %function
 1088              	null_ptr_check:
 1089              	.LFB32:
1476:bme280.c      **** 
1477:bme280.c      **** /*!
1478:bme280.c      ****  * @brief This internal API is used to validate the device structure pointer for
1479:bme280.c      ****  * null conditions.
1480:bme280.c      ****  */
1481:bme280.c      **** static int8_t null_ptr_check(const struct bme280_dev *dev)
1482:bme280.c      **** {
 1090              		.loc 1 1482 0
 1091              		.cfi_startproc
 1092              		@ args = 0, pretend = 0, frame = 0
 1093              		@ frame_needed = 0, uses_anonymous_args = 0
 1094              		@ link register save eliminated.
 1095              	.LVL129:
1483:bme280.c      ****     int8_t rslt;
1484:bme280.c      **** 
1485:bme280.c      ****     if ((dev == NULL) || (dev->read == NULL) || (dev->write == NULL) || (dev->delay_ms == NULL))
 1096              		.loc 1 1485 0
 1097 0000 0028     		cmp	r0, #0
 1098 0002 0BD0     		beq	.L37
 1099              		.loc 1 1485 0 is_stmt 0 discriminator 1
 1100 0004 4368     		ldr	r3, [r0, #4]
 1101 0006 002B     		cmp	r3, #0
 1102 0008 0BD0     		beq	.L38
 1103              		.loc 1 1485 0 discriminator 2
 1104 000a 8368     		ldr	r3, [r0, #8]
 1105 000c 002B     		cmp	r3, #0
 1106 000e 0BD0     		beq	.L39
 1107              		.loc 1 1485 0 discriminator 3
 1108 0010 C368     		ldr	r3, [r0, #12]
 1109 0012 002B     		cmp	r3, #0
 1110 0014 0BD1     		bne	.L40
1486:bme280.c      ****     {
1487:bme280.c      ****         /* Device structure pointer is not valid */
1488:bme280.c      ****         rslt = BME280_E_NULL_PTR;
 1111              		.loc 1 1488 0 is_stmt 1
 1112 0016 0120     		movs	r0, #1
 1113              	.LVL130:
 1114 0018 4042     		rsbs	r0, r0, #0
 1115 001a 09E0     		b	.L36
 1116              	.LVL131:
 1117              	.L37:
 1118 001c 0120     		movs	r0, #1
 1119              	.LVL132:
 1120 001e 4042     		rsbs	r0, r0, #0
 1121 0020 06E0     		b	.L36
 1122              	.LVL133:
 1123              	.L38:
 1124 0022 0120     		movs	r0, #1
 1125              	.LVL134:
 1126 0024 4042     		rsbs	r0, r0, #0
 1127 0026 03E0     		b	.L36
 1128              	.LVL135:
 1129              	.L39:
ARM GAS  C:\Users\simon\AppData\Local\Temp\cc07ySAM.s 			page 47


 1130 0028 0120     		movs	r0, #1
 1131              	.LVL136:
 1132 002a 4042     		rsbs	r0, r0, #0
 1133 002c 00E0     		b	.L36
 1134              	.LVL137:
 1135              	.L40:
1489:bme280.c      ****     }
1490:bme280.c      ****     else
1491:bme280.c      ****     {
1492:bme280.c      ****         /* Device structure is fine */
1493:bme280.c      ****         rslt = BME280_OK;
 1136              		.loc 1 1493 0
 1137 002e 0020     		movs	r0, #0
 1138              	.LVL138:
 1139              	.L36:
1494:bme280.c      ****     }
1495:bme280.c      **** 
1496:bme280.c      ****     return rslt;
1497:bme280.c      **** }...
 1140              		.loc 1 1497 0
 1141              		@ sp needed
 1142 0030 7047     		bx	lr
 1143              		.cfi_endproc
 1144              	.LFE32:
 1145              		.size	null_ptr_check, .-null_ptr_check
 1146 0032 C046     		.section	.text.bme280_get_regs,"ax",%progbits
 1147              		.align	2
 1148              		.global	bme280_get_regs
 1149              		.code	16
 1150              		.thumb_func
 1151              		.type	bme280_get_regs, %function
 1152              	bme280_get_regs:
 1153              	.LFB1:
 402:bme280.c      **** {
 1154              		.loc 1 402 0
 1155              		.cfi_startproc
 1156              		@ args = 0, pretend = 0, frame = 8
 1157              		@ frame_needed = 0, uses_anonymous_args = 0
 1158              	.LVL139:
 1159 0000 F0B5     		push	{r4, r5, r6, r7, lr}
 1160              		.cfi_def_cfa_offset 20
 1161              		.cfi_offset 4, -20
 1162              		.cfi_offset 5, -16
 1163              		.cfi_offset 6, -12
 1164              		.cfi_offset 7, -8
 1165              		.cfi_offset 14, -4
 1166 0002 83B0     		sub	sp, sp, #12
 1167              		.cfi_def_cfa_offset 32
 1168 0004 0400     		movs	r4, r0
 1169 0006 0191     		str	r1, [sp, #4]
 1170 0008 1600     		movs	r6, r2
 1171 000a 1F00     		movs	r7, r3
 406:bme280.c      ****     rslt = null_ptr_check(dev);
 1172              		.loc 1 406 0
 1173 000c 1800     		movs	r0, r3
 1174              	.LVL140:
 1175 000e FFF7FEFF 		bl	null_ptr_check
ARM GAS  C:\Users\simon\AppData\Local\Temp\cc07ySAM.s 			page 48


 1176              	.LVL141:
 409:bme280.c      ****     if (rslt == BME280_OK)
 1177              		.loc 1 409 0
 1178 0012 0028     		cmp	r0, #0
 1179 0014 10D1     		bne	.L42
 412:bme280.c      ****         if (dev->intf != BME280_I2C_INTF)
 1180              		.loc 1 412 0
 1181 0016 BB78     		ldrb	r3, [r7, #2]
 1182 0018 012B     		cmp	r3, #1
 1183 001a 03D0     		beq	.L43
 414:bme280.c      ****             reg_addr = reg_addr | 0x80;
 1184              		.loc 1 414 0
 1185 001c 8023     		movs	r3, #128
 1186 001e 5B42     		rsbs	r3, r3, #0
 1187 0020 1C43     		orrs	r4, r3
 1188 0022 E4B2     		uxtb	r4, r4
 1189              	.LVL142:
 1190              	.L43:
 418:bme280.c      ****         rslt = dev->read(dev->dev_id, reg_addr, reg_data, len);
 1191              		.loc 1 418 0
 1192 0024 7D68     		ldr	r5, [r7, #4]
 1193 0026 7878     		ldrb	r0, [r7, #1]
 1194              	.LVL143:
 1195 0028 3300     		movs	r3, r6
 1196 002a 019A     		ldr	r2, [sp, #4]
 1197 002c 2100     		movs	r1, r4
 1198 002e A847     		blx	r5
 1199              	.LVL144:
 421:bme280.c      ****         if (rslt != BME280_OK)
 1200              		.loc 1 421 0
 1201 0030 0028     		cmp	r0, #0
 1202 0032 01D0     		beq	.L42
 423:bme280.c      ****             rslt = BME280_E_COMM_FAIL;
 1203              		.loc 1 423 0
 1204 0034 0420     		movs	r0, #4
 1205              	.LVL145:
 1206 0036 4042     		rsbs	r0, r0, #0
 1207              	.LVL146:
 1208              	.L42:
 428:bme280.c      **** }
 1209              		.loc 1 428 0
 1210 0038 03B0     		add	sp, sp, #12
 1211              		@ sp needed
 1212              	.LVL147:
 1213 003a F0BD     		pop	{r4, r5, r6, r7, pc}
 1214              		.cfi_endproc
 1215              	.LFE1:
 1216              		.size	bme280_get_regs, .-bme280_get_regs
 1217              		.section	.text.get_calib_data,"ax",%progbits
 1218              		.align	2
 1219              		.code	16
 1220              		.thumb_func
 1221              		.type	get_calib_data, %function
 1222              	get_calib_data:
 1223              	.LFB27:
1363:bme280.c      **** {
 1224              		.loc 1 1363 0
ARM GAS  C:\Users\simon\AppData\Local\Temp\cc07ySAM.s 			page 49


 1225              		.cfi_startproc
 1226              		@ args = 0, pretend = 0, frame = 32
 1227              		@ frame_needed = 0, uses_anonymous_args = 0
 1228              	.LVL148:
 1229 0000 30B5     		push	{r4, r5, lr}
 1230              		.cfi_def_cfa_offset 12
 1231              		.cfi_offset 4, -12
 1232              		.cfi_offset 5, -8
 1233              		.cfi_offset 14, -4
 1234 0002 89B0     		sub	sp, sp, #36
 1235              		.cfi_def_cfa_offset 48
 1236 0004 0500     		movs	r5, r0
 1237              	.LVL149:
1368:bme280.c      ****     uint8_t calib_data[BME280_TEMP_PRESS_CALIB_DATA_LEN] = { 0 };
 1238              		.loc 1 1368 0
 1239 0006 1A22     		movs	r2, #26
 1240 0008 0021     		movs	r1, #0
 1241 000a 01A8     		add	r0, sp, #4
 1242              	.LVL150:
 1243 000c FFF7FEFF 		bl	memset
 1244              	.LVL151:
1371:bme280.c      ****     rslt = bme280_get_regs(reg_addr, calib_data, BME280_TEMP_PRESS_CALIB_DATA_LEN, dev);
 1245              		.loc 1 1371 0
 1246 0010 2B00     		movs	r3, r5
 1247 0012 1A22     		movs	r2, #26
 1248 0014 01A9     		add	r1, sp, #4
 1249 0016 8820     		movs	r0, #136
 1250 0018 FFF7FEFF 		bl	bme280_get_regs
 1251              	.LVL152:
 1252 001c 041E     		subs	r4, r0, #0
 1253              	.LVL153:
1372:bme280.c      ****     if (rslt == BME280_OK)
 1254              		.loc 1 1372 0
 1255 001e 0FD1     		bne	.L46
1377:bme280.c      ****         parse_temp_press_calib_data(calib_data, dev);
 1256              		.loc 1 1377 0
 1257 0020 2900     		movs	r1, r5
 1258 0022 01A8     		add	r0, sp, #4
 1259              	.LVL154:
 1260 0024 FFF7FEFF 		bl	parse_temp_press_calib_data
 1261              	.LVL155:
1381:bme280.c      ****         rslt = bme280_get_regs(reg_addr, calib_data, BME280_HUMIDITY_CALIB_DATA_LEN, dev);
 1262              		.loc 1 1381 0
 1263 0028 2B00     		movs	r3, r5
 1264 002a 0722     		movs	r2, #7
 1265 002c 01A9     		add	r1, sp, #4
 1266 002e E120     		movs	r0, #225
 1267 0030 FFF7FEFF 		bl	bme280_get_regs
 1268              	.LVL156:
 1269 0034 041E     		subs	r4, r0, #0
 1270              	.LVL157:
1382:bme280.c      ****         if (rslt == BME280_OK)
 1271              		.loc 1 1382 0
 1272 0036 03D1     		bne	.L46
1387:bme280.c      ****             parse_humidity_calib_data(calib_data, dev);
 1273              		.loc 1 1387 0
 1274 0038 2900     		movs	r1, r5
ARM GAS  C:\Users\simon\AppData\Local\Temp\cc07ySAM.s 			page 50


 1275 003a 01A8     		add	r0, sp, #4
 1276              	.LVL158:
 1277 003c FFF7FEFF 		bl	parse_humidity_calib_data
 1278              	.LVL159:
 1279              	.L46:
1392:bme280.c      **** }
 1280              		.loc 1 1392 0
 1281 0040 2000     		movs	r0, r4
 1282 0042 09B0     		add	sp, sp, #36
 1283              		@ sp needed
 1284              	.LVL160:
 1285              	.LVL161:
 1286 0044 30BD     		pop	{r4, r5, pc}
 1287              		.cfi_endproc
 1288              	.LFE27:
 1289              		.size	get_calib_data, .-get_calib_data
 1290 0046 C046     		.section	.text.bme280_set_regs,"ax",%progbits
 1291              		.align	2
 1292              		.global	bme280_set_regs
 1293              		.code	16
 1294              		.thumb_func
 1295              		.type	bme280_set_regs, %function
 1296              	bme280_set_regs:
 1297              	.LFB2:
 435:bme280.c      **** {
 1298              		.loc 1 435 0
 1299              		.cfi_startproc
 1300              		@ args = 0, pretend = 0, frame = 24
 1301              		@ frame_needed = 0, uses_anonymous_args = 0
 1302              	.LVL162:
 1303 0000 F0B5     		push	{r4, r5, r6, r7, lr}
 1304              		.cfi_def_cfa_offset 20
 1305              		.cfi_offset 4, -20
 1306              		.cfi_offset 5, -16
 1307              		.cfi_offset 6, -12
 1308              		.cfi_offset 7, -8
 1309              		.cfi_offset 14, -4
 1310 0002 87B0     		sub	sp, sp, #28
 1311              		.cfi_def_cfa_offset 48
 1312 0004 0500     		movs	r5, r0
 1313 0006 0F00     		movs	r7, r1
 1314 0008 1400     		movs	r4, r2
 1315 000a 1E00     		movs	r6, r3
 439:bme280.c      ****     if (len > 10)
 1316              		.loc 1 439 0
 1317 000c 0A2A     		cmp	r2, #10
 1318 000e 00D9     		bls	.L48
 441:bme280.c      ****         len = 10;
 1319              		.loc 1 441 0
 1320 0010 0A24     		movs	r4, #10
 1321              	.L48:
 1322              	.LVL163:
 447:bme280.c      ****     rslt = null_ptr_check(dev);
 1323              		.loc 1 447 0
 1324 0012 3000     		movs	r0, r6
 1325              	.LVL164:
 1326 0014 FFF7FEFF 		bl	null_ptr_check
ARM GAS  C:\Users\simon\AppData\Local\Temp\cc07ySAM.s 			page 51


 1327              	.LVL165:
 450:bme280.c      ****     if ((rslt == BME280_OK) && (reg_addr != NULL) && (reg_data != NULL))
 1328              		.loc 1 450 0
 1329 0018 0028     		cmp	r0, #0
 1330 001a 2CD1     		bne	.L56
 450:bme280.c      ****     if ((rslt == BME280_OK) && (reg_addr != NULL) && (reg_data != NULL))
 1331              		.loc 1 450 0 is_stmt 0 discriminator 1
 1332 001c 002D     		cmp	r5, #0
 1333 001e 2DD0     		beq	.L57
 450:bme280.c      ****     if ((rslt == BME280_OK) && (reg_addr != NULL) && (reg_data != NULL))
 1334              		.loc 1 450 0 discriminator 2
 1335 0020 002F     		cmp	r7, #0
 1336 0022 2ED0     		beq	.L58
 452:bme280.c      ****         if (len != 0)
 1337              		.loc 1 452 0 is_stmt 1
 1338 0024 002C     		cmp	r4, #0
 1339 0026 2FD0     		beq	.L59
 454:bme280.c      ****             temp_buff[0] = reg_data[0];
 1340              		.loc 1 454 0
 1341 0028 3A78     		ldrb	r2, [r7]
 1342 002a 01AB     		add	r3, sp, #4
 1343 002c 1A70     		strb	r2, [r3]
 457:bme280.c      ****             if (dev->intf != BME280_I2C_INTF)
 1344              		.loc 1 457 0
 1345 002e B378     		ldrb	r3, [r6, #2]
 1346 0030 012B     		cmp	r3, #1
 1347 0032 08D1     		bne	.L60
 1348 0034 0AE0     		b	.L51
 1349              	.LVL166:
 1350              	.L52:
 461:bme280.c      ****                     reg_addr[reg_addr_cnt] = reg_addr[reg_addr_cnt] & 0x7F;
 1351              		.loc 1 461 0 discriminator 3
 1352 0036 AB18     		adds	r3, r5, r2
 1353 0038 1978     		ldrb	r1, [r3]
 1354 003a 7F20     		movs	r0, #127
 1355 003c 0140     		ands	r1, r0
 1356 003e 1970     		strb	r1, [r3]
 459:bme280.c      ****                 for (reg_addr_cnt = 0; reg_addr_cnt < len; reg_addr_cnt++)
 1357              		.loc 1 459 0 discriminator 3
 1358 0040 0132     		adds	r2, r2, #1
 1359              	.LVL167:
 1360 0042 D2B2     		uxtb	r2, r2
 1361              	.LVL168:
 1362 0044 00E0     		b	.L50
 1363              	.LVL169:
 1364              	.L60:
 1365 0046 0022     		movs	r2, #0
 1366              	.LVL170:
 1367              	.L50:
 459:bme280.c      ****                 for (reg_addr_cnt = 0; reg_addr_cnt < len; reg_addr_cnt++)
 1368              		.loc 1 459 0 is_stmt 0 discriminator 1
 1369 0048 9442     		cmp	r4, r2
 1370 004a F4D8     		bhi	.L52
 1371              	.LVL171:
 1372              	.L51:
 466:bme280.c      ****             if (len > 1)
 1373              		.loc 1 466 0 is_stmt 1
ARM GAS  C:\Users\simon\AppData\Local\Temp\cc07ySAM.s 			page 52


 1374 004c 012C     		cmp	r4, #1
 1375 004e 09D9     		bls	.L53
 471:bme280.c      ****                 interleave_reg_addr(reg_addr, temp_buff, reg_data, len);
 1376              		.loc 1 471 0
 1377 0050 2300     		movs	r3, r4
 1378 0052 3A00     		movs	r2, r7
 1379 0054 01A9     		add	r1, sp, #4
 1380 0056 2800     		movs	r0, r5
 1381 0058 FFF7FEFF 		bl	interleave_reg_addr
 1382              	.LVL172:
 472:bme280.c      ****                 temp_len = ((len * 2) - 1);
 1383              		.loc 1 472 0
 1384 005c 6400     		lsls	r4, r4, #1
 1385              	.LVL173:
 1386 005e 013C     		subs	r4, r4, #1
 1387 0060 A3B2     		uxth	r3, r4
 1388              	.LVL174:
 1389 0062 00E0     		b	.L54
 1390              	.LVL175:
 1391              	.L53:
 476:bme280.c      ****                 temp_len = len;
 1392              		.loc 1 476 0
 1393 0064 A3B2     		uxth	r3, r4
 1394              	.LVL176:
 1395              	.L54:
 478:bme280.c      ****             rslt = dev->write(dev->dev_id, reg_addr[0], temp_buff, temp_len);
 1396              		.loc 1 478 0
 1397 0066 B468     		ldr	r4, [r6, #8]
 1398 0068 7078     		ldrb	r0, [r6, #1]
 1399 006a 2978     		ldrb	r1, [r5]
 1400 006c 01AA     		add	r2, sp, #4
 1401 006e A047     		blx	r4
 1402              	.LVL177:
 481:bme280.c      ****             if (rslt != BME280_OK)
 1403              		.loc 1 481 0
 1404 0070 0028     		cmp	r0, #0
 1405 0072 0ED0     		beq	.L49
 1406 0074 0BE0     		b	.L61
 1407              	.LVL178:
 1408              	.L56:
 493:bme280.c      ****         rslt = BME280_E_NULL_PTR;
 1409              		.loc 1 493 0
 1410 0076 0120     		movs	r0, #1
 1411              	.LVL179:
 1412 0078 4042     		rsbs	r0, r0, #0
 1413 007a 0AE0     		b	.L49
 1414              	.LVL180:
 1415              	.L57:
 1416 007c 0120     		movs	r0, #1
 1417              	.LVL181:
 1418 007e 4042     		rsbs	r0, r0, #0
 1419 0080 07E0     		b	.L49
 1420              	.LVL182:
 1421              	.L58:
 1422 0082 0120     		movs	r0, #1
 1423              	.LVL183:
 1424 0084 4042     		rsbs	r0, r0, #0
ARM GAS  C:\Users\simon\AppData\Local\Temp\cc07ySAM.s 			page 53


 1425 0086 04E0     		b	.L49
 1426              	.LVL184:
 1427              	.L59:
 488:bme280.c      ****             rslt = BME280_E_INVALID_LEN;
 1428              		.loc 1 488 0
 1429 0088 0320     		movs	r0, #3
 1430              	.LVL185:
 1431 008a 4042     		rsbs	r0, r0, #0
 1432 008c 01E0     		b	.L49
 1433              	.LVL186:
 1434              	.L61:
 483:bme280.c      ****                 rslt = BME280_E_COMM_FAIL;
 1435              		.loc 1 483 0
 1436 008e 0420     		movs	r0, #4
 1437              	.LVL187:
 1438 0090 4042     		rsbs	r0, r0, #0
 1439              	.L49:
 1440              	.LVL188:
 497:bme280.c      **** }
 1441              		.loc 1 497 0
 1442 0092 07B0     		add	sp, sp, #28
 1443              		@ sp needed
 1444              	.LVL189:
 1445              	.LVL190:
 1446              	.LVL191:
 1447 0094 F0BD     		pop	{r4, r5, r6, r7, pc}
 1448              		.cfi_endproc
 1449              	.LFE2:
 1450              		.size	bme280_set_regs, .-bme280_set_regs
 1451 0096 C046     		.section	.text.set_osr_humidity_settings,"ax",%progbits
 1452              		.align	2
 1453              		.code	16
 1454              		.thumb_func
 1455              		.type	set_osr_humidity_settings, %function
 1456              	set_osr_humidity_settings:
 1457              	.LFB13:
 852:bme280.c      **** {
 1458              		.loc 1 852 0
 1459              		.cfi_startproc
 1460              		@ args = 0, pretend = 0, frame = 8
 1461              		@ frame_needed = 0, uses_anonymous_args = 0
 1462              	.LVL192:
 1463 0000 10B5     		push	{r4, lr}
 1464              		.cfi_def_cfa_offset 8
 1465              		.cfi_offset 4, -8
 1466              		.cfi_offset 14, -4
 1467 0002 82B0     		sub	sp, sp, #8
 1468              		.cfi_def_cfa_offset 16
 1469 0004 0300     		movs	r3, r0
 1470 0006 0C00     		movs	r4, r1
 856:bme280.c      ****     uint8_t reg_addr = BME280_CTRL_HUM_ADDR;
 1471              		.loc 1 856 0
 1472 0008 6A46     		mov	r2, sp
 1473 000a 501D     		adds	r0, r2, #5
 1474              	.LVL193:
 1475 000c F222     		movs	r2, #242
 1476 000e 0270     		strb	r2, [r0]
ARM GAS  C:\Users\simon\AppData\Local\Temp\cc07ySAM.s 			page 54


 858:bme280.c      ****     ctrl_hum = settings->osr_h & BME280_CTRL_HUM_MSK;
 1477              		.loc 1 858 0
 1478 0010 9B78     		ldrb	r3, [r3, #2]
 1479              	.LVL194:
 1480 0012 6A46     		mov	r2, sp
 1481 0014 D11D     		adds	r1, r2, #7
 1482              	.LVL195:
 1483 0016 0722     		movs	r2, #7
 1484 0018 1340     		ands	r3, r2
 1485 001a 0B70     		strb	r3, [r1]
 861:bme280.c      ****     rslt = bme280_set_regs(&reg_addr, &ctrl_hum, 1, dev);
 1486              		.loc 1 861 0
 1487 001c 2300     		movs	r3, r4
 1488 001e 063A     		subs	r2, r2, #6
 1489 0020 FFF7FEFF 		bl	bme280_set_regs
 1490              	.LVL196:
 866:bme280.c      ****     if (rslt == BME280_OK)
 1491              		.loc 1 866 0
 1492 0024 0028     		cmp	r0, #0
 1493 0026 13D1     		bne	.L63
 868:bme280.c      ****         reg_addr = BME280_CTRL_MEAS_ADDR;
 1494              		.loc 1 868 0
 1495 0028 F422     		movs	r2, #244
 1496 002a 6B46     		mov	r3, sp
 1497 002c 5A71     		strb	r2, [r3, #5]
 869:bme280.c      ****         rslt = bme280_get_regs(reg_addr, &ctrl_meas, 1, dev);
 1498              		.loc 1 869 0
 1499 002e 2300     		movs	r3, r4
 1500 0030 F33A     		subs	r2, r2, #243
 1501 0032 6946     		mov	r1, sp
 1502 0034 0631     		adds	r1, r1, #6
 1503 0036 F430     		adds	r0, r0, #244
 1504              	.LVL197:
 1505 0038 FFF7FEFF 		bl	bme280_get_regs
 1506              	.LVL198:
 870:bme280.c      ****         if (rslt == BME280_OK)
 1507              		.loc 1 870 0
 1508 003c 0028     		cmp	r0, #0
 1509 003e 07D1     		bne	.L63
 872:bme280.c      ****             rslt = bme280_set_regs(&reg_addr, &ctrl_meas, 1, dev);
 1510              		.loc 1 872 0
 1511 0040 2300     		movs	r3, r4
 1512 0042 0122     		movs	r2, #1
 1513 0044 6946     		mov	r1, sp
 1514 0046 0631     		adds	r1, r1, #6
 1515 0048 6846     		mov	r0, sp
 1516              	.LVL199:
 1517 004a 0530     		adds	r0, r0, #5
 1518 004c FFF7FEFF 		bl	bme280_set_regs
 1519              	.LVL200:
 1520              	.L63:
 877:bme280.c      **** }
 1521              		.loc 1 877 0
 1522 0050 02B0     		add	sp, sp, #8
 1523              		@ sp needed
 1524              	.LVL201:
 1525 0052 10BD     		pop	{r4, pc}
ARM GAS  C:\Users\simon\AppData\Local\Temp\cc07ySAM.s 			page 55


 1526              		.cfi_endproc
 1527              	.LFE13:
 1528              		.size	set_osr_humidity_settings, .-set_osr_humidity_settings
 1529              		.section	.text.set_osr_press_temp_settings,"ax",%progbits
 1530              		.align	2
 1531              		.code	16
 1532              		.thumb_func
 1533              		.type	set_osr_press_temp_settings, %function
 1534              	set_osr_press_temp_settings:
 1535              	.LFB14:
 886:bme280.c      **** {
 1536              		.loc 1 886 0
 1537              		.cfi_startproc
 1538              		@ args = 0, pretend = 0, frame = 8
 1539              		@ frame_needed = 0, uses_anonymous_args = 0
 1540              	.LVL202:
 1541 0000 70B5     		push	{r4, r5, r6, lr}
 1542              		.cfi_def_cfa_offset 16
 1543              		.cfi_offset 4, -16
 1544              		.cfi_offset 5, -12
 1545              		.cfi_offset 6, -8
 1546              		.cfi_offset 14, -4
 1547 0002 82B0     		sub	sp, sp, #8
 1548              		.cfi_def_cfa_offset 24
 1549 0004 0600     		movs	r6, r0
 1550 0006 0D00     		movs	r5, r1
 1551 0008 1400     		movs	r4, r2
 888:bme280.c      ****     uint8_t reg_addr = BME280_CTRL_MEAS_ADDR;
 1552              		.loc 1 888 0
 1553 000a F422     		movs	r2, #244
 1554              	.LVL203:
 1555 000c 6B46     		mov	r3, sp
 1556 000e DA71     		strb	r2, [r3, #7]
 891:bme280.c      ****     rslt = bme280_get_regs(reg_addr, &reg_data, 1, dev);
 1557              		.loc 1 891 0
 1558 0010 2300     		movs	r3, r4
 1559 0012 F33A     		subs	r2, r2, #243
 1560 0014 6946     		mov	r1, sp
 1561              	.LVL204:
 1562 0016 0631     		adds	r1, r1, #6
 1563 0018 F420     		movs	r0, #244
 1564              	.LVL205:
 1565 001a FFF7FEFF 		bl	bme280_get_regs
 1566              	.LVL206:
 892:bme280.c      ****     if (rslt == BME280_OK)
 1567              		.loc 1 892 0
 1568 001e 0028     		cmp	r0, #0
 1569 0020 15D1     		bne	.L65
 894:bme280.c      ****         if (desired_settings & BME280_OSR_PRESS_SEL)
 1570              		.loc 1 894 0
 1571 0022 F307     		lsls	r3, r6, #31
 1572 0024 04D5     		bpl	.L66
 896:bme280.c      ****             fill_osr_press_settings(&reg_data, settings);
 1573              		.loc 1 896 0
 1574 0026 2900     		movs	r1, r5
 1575 0028 6B46     		mov	r3, sp
 1576 002a 981D     		adds	r0, r3, #6
ARM GAS  C:\Users\simon\AppData\Local\Temp\cc07ySAM.s 			page 56


 1577              	.LVL207:
 1578 002c FFF7FEFF 		bl	fill_osr_press_settings
 1579              	.LVL208:
 1580              	.L66:
 898:bme280.c      ****         if (desired_settings & BME280_OSR_TEMP_SEL)
 1581              		.loc 1 898 0
 1582 0030 B307     		lsls	r3, r6, #30
 1583 0032 04D5     		bpl	.L67
 900:bme280.c      ****             fill_osr_temp_settings(&reg_data, settings);
 1584              		.loc 1 900 0
 1585 0034 2900     		movs	r1, r5
 1586 0036 6B46     		mov	r3, sp
 1587 0038 981D     		adds	r0, r3, #6
 1588 003a FFF7FEFF 		bl	fill_osr_temp_settings
 1589              	.LVL209:
 1590              	.L67:
 904:bme280.c      ****         rslt = bme280_set_regs(&reg_addr, &reg_data, 1, dev);
 1591              		.loc 1 904 0
 1592 003e 2300     		movs	r3, r4
 1593 0040 0122     		movs	r2, #1
 1594 0042 6946     		mov	r1, sp
 1595 0044 0631     		adds	r1, r1, #6
 1596 0046 6846     		mov	r0, sp
 1597 0048 0730     		adds	r0, r0, #7
 1598 004a FFF7FEFF 		bl	bme280_set_regs
 1599              	.LVL210:
 1600              	.L65:
 908:bme280.c      **** }
 1601              		.loc 1 908 0
 1602 004e 02B0     		add	sp, sp, #8
 1603              		@ sp needed
 1604              	.LVL211:
 1605              	.LVL212:
 1606 0050 70BD     		pop	{r4, r5, r6, pc}
 1607              		.cfi_endproc
 1608              	.LFE14:
 1609              		.size	set_osr_press_temp_settings, .-set_osr_press_temp_settings
 1610 0052 C046     		.section	.text.set_osr_settings,"ax",%progbits
 1611              		.align	2
 1612              		.code	16
 1613              		.thumb_func
 1614              		.type	set_osr_settings, %function
 1615              	set_osr_settings:
 1616              	.LFB12:
 833:bme280.c      **** {
 1617              		.loc 1 833 0
 1618              		.cfi_startproc
 1619              		@ args = 0, pretend = 0, frame = 0
 1620              		@ frame_needed = 0, uses_anonymous_args = 0
 1621              	.LVL213:
 1622 0000 70B5     		push	{r4, r5, r6, lr}
 1623              		.cfi_def_cfa_offset 16
 1624              		.cfi_offset 4, -16
 1625              		.cfi_offset 5, -12
 1626              		.cfi_offset 6, -8
 1627              		.cfi_offset 14, -4
 1628 0002 0600     		movs	r6, r0
ARM GAS  C:\Users\simon\AppData\Local\Temp\cc07ySAM.s 			page 57


 1629 0004 0C00     		movs	r4, r1
 1630 0006 1500     		movs	r5, r2
 1631              	.LVL214:
 836:bme280.c      ****     if (desired_settings & BME280_OSR_HUM_SEL)
 1632              		.loc 1 836 0
 1633 0008 4307     		lsls	r3, r0, #29
 1634 000a 04D5     		bpl	.L71
 838:bme280.c      ****         rslt = set_osr_humidity_settings(settings, dev);
 1635              		.loc 1 838 0
 1636 000c 1100     		movs	r1, r2
 1637              	.LVL215:
 1638 000e 2000     		movs	r0, r4
 1639              	.LVL216:
 1640 0010 FFF7FEFF 		bl	set_osr_humidity_settings
 1641              	.LVL217:
 1642 0014 00E0     		b	.L69
 1643              	.LVL218:
 1644              	.L71:
 834:bme280.c      ****     int8_t rslt = BME280_W_INVALID_OSR_MACRO;
 1645              		.loc 1 834 0
 1646 0016 0120     		movs	r0, #1
 1647              	.LVL219:
 1648              	.L69:
 840:bme280.c      ****     if (desired_settings & (BME280_OSR_PRESS_SEL | BME280_OSR_TEMP_SEL))
 1649              		.loc 1 840 0
 1650 0018 B307     		lsls	r3, r6, #30
 1651 001a 04D0     		beq	.L70
 842:bme280.c      ****         rslt = set_osr_press_temp_settings(desired_settings, settings, dev);
 1652              		.loc 1 842 0
 1653 001c 2A00     		movs	r2, r5
 1654 001e 2100     		movs	r1, r4
 1655 0020 3000     		movs	r0, r6
 1656              	.LVL220:
 1657 0022 FFF7FEFF 		bl	set_osr_press_temp_settings
 1658              	.LVL221:
 1659              	.L70:
 846:bme280.c      **** }
 1660              		.loc 1 846 0
 1661              		@ sp needed
 1662              	.LVL222:
 1663              	.LVL223:
 1664 0026 70BD     		pop	{r4, r5, r6, pc}
 1665              		.cfi_endproc
 1666              	.LFE12:
 1667              		.size	set_osr_settings, .-set_osr_settings
 1668              		.section	.text.set_filter_standby_settings,"ax",%progbits
 1669              		.align	2
 1670              		.code	16
 1671              		.thumb_func
 1672              		.type	set_filter_standby_settings, %function
 1673              	set_filter_standby_settings:
 1674              	.LFB15:
 917:bme280.c      **** {
 1675              		.loc 1 917 0
 1676              		.cfi_startproc
 1677              		@ args = 0, pretend = 0, frame = 8
 1678              		@ frame_needed = 0, uses_anonymous_args = 0
ARM GAS  C:\Users\simon\AppData\Local\Temp\cc07ySAM.s 			page 58


 1679              	.LVL224:
 1680 0000 70B5     		push	{r4, r5, r6, lr}
 1681              		.cfi_def_cfa_offset 16
 1682              		.cfi_offset 4, -16
 1683              		.cfi_offset 5, -12
 1684              		.cfi_offset 6, -8
 1685              		.cfi_offset 14, -4
 1686 0002 82B0     		sub	sp, sp, #8
 1687              		.cfi_def_cfa_offset 24
 1688 0004 0600     		movs	r6, r0
 1689 0006 0D00     		movs	r5, r1
 1690 0008 1400     		movs	r4, r2
 919:bme280.c      ****     uint8_t reg_addr = BME280_CONFIG_ADDR;
 1691              		.loc 1 919 0
 1692 000a F522     		movs	r2, #245
 1693              	.LVL225:
 1694 000c 6B46     		mov	r3, sp
 1695 000e DA71     		strb	r2, [r3, #7]
 922:bme280.c      ****     rslt = bme280_get_regs(reg_addr, &reg_data, 1, dev);
 1696              		.loc 1 922 0
 1697 0010 2300     		movs	r3, r4
 1698 0012 F43A     		subs	r2, r2, #244
 1699 0014 6946     		mov	r1, sp
 1700              	.LVL226:
 1701 0016 0631     		adds	r1, r1, #6
 1702 0018 F520     		movs	r0, #245
 1703              	.LVL227:
 1704 001a FFF7FEFF 		bl	bme280_get_regs
 1705              	.LVL228:
 923:bme280.c      ****     if (rslt == BME280_OK)
 1706              		.loc 1 923 0
 1707 001e 0028     		cmp	r0, #0
 1708 0020 15D1     		bne	.L73
 925:bme280.c      ****         if (desired_settings & BME280_FILTER_SEL)
 1709              		.loc 1 925 0
 1710 0022 3307     		lsls	r3, r6, #28
 1711 0024 04D5     		bpl	.L74
 927:bme280.c      ****             fill_filter_settings(&reg_data, settings);
 1712              		.loc 1 927 0
 1713 0026 2900     		movs	r1, r5
 1714 0028 6B46     		mov	r3, sp
 1715 002a 981D     		adds	r0, r3, #6
 1716              	.LVL229:
 1717 002c FFF7FEFF 		bl	fill_filter_settings
 1718              	.LVL230:
 1719              	.L74:
 929:bme280.c      ****         if (desired_settings & BME280_STANDBY_SEL)
 1720              		.loc 1 929 0
 1721 0030 F306     		lsls	r3, r6, #27
 1722 0032 04D5     		bpl	.L75
 931:bme280.c      ****             fill_standby_settings(&reg_data, settings);
 1723              		.loc 1 931 0
 1724 0034 2900     		movs	r1, r5
 1725 0036 6B46     		mov	r3, sp
 1726 0038 981D     		adds	r0, r3, #6
 1727 003a FFF7FEFF 		bl	fill_standby_settings
 1728              	.LVL231:
ARM GAS  C:\Users\simon\AppData\Local\Temp\cc07ySAM.s 			page 59


 1729              	.L75:
 935:bme280.c      ****         rslt = bme280_set_regs(&reg_addr, &reg_data, 1, dev);
 1730              		.loc 1 935 0
 1731 003e 2300     		movs	r3, r4
 1732 0040 0122     		movs	r2, #1
 1733 0042 6946     		mov	r1, sp
 1734 0044 0631     		adds	r1, r1, #6
 1735 0046 6846     		mov	r0, sp
 1736 0048 0730     		adds	r0, r0, #7
 1737 004a FFF7FEFF 		bl	bme280_set_regs
 1738              	.LVL232:
 1739              	.L73:
 939:bme280.c      **** }
 1740              		.loc 1 939 0
 1741 004e 02B0     		add	sp, sp, #8
 1742              		@ sp needed
 1743              	.LVL233:
 1744              	.LVL234:
 1745 0050 70BD     		pop	{r4, r5, r6, pc}
 1746              		.cfi_endproc
 1747              	.LFE15:
 1748              		.size	set_filter_standby_settings, .-set_filter_standby_settings
 1749 0052 C046     		.section	.text.reload_device_settings,"ax",%progbits
 1750              		.align	2
 1751              		.code	16
 1752              		.thumb_func
 1753              		.type	reload_device_settings, %function
 1754              	reload_device_settings:
 1755              	.LFB23:
1045:bme280.c      **** {
 1756              		.loc 1 1045 0
 1757              		.cfi_startproc
 1758              		@ args = 0, pretend = 0, frame = 0
 1759              		@ frame_needed = 0, uses_anonymous_args = 0
 1760              	.LVL235:
 1761 0000 70B5     		push	{r4, r5, r6, lr}
 1762              		.cfi_def_cfa_offset 16
 1763              		.cfi_offset 4, -16
 1764              		.cfi_offset 5, -12
 1765              		.cfi_offset 6, -8
 1766              		.cfi_offset 14, -4
 1767 0002 0400     		movs	r4, r0
 1768 0004 0D00     		movs	r5, r1
1048:bme280.c      ****     rslt = set_osr_settings(BME280_ALL_SETTINGS_SEL, settings, dev);
 1769              		.loc 1 1048 0
 1770 0006 0A00     		movs	r2, r1
 1771 0008 0100     		movs	r1, r0
 1772              	.LVL236:
 1773 000a 1F20     		movs	r0, #31
 1774              	.LVL237:
 1775 000c FFF7FEFF 		bl	set_osr_settings
 1776              	.LVL238:
1049:bme280.c      ****     if (rslt == BME280_OK)
 1777              		.loc 1 1049 0
 1778 0010 0028     		cmp	r0, #0
 1779 0012 04D1     		bne	.L77
1051:bme280.c      ****         rslt = set_filter_standby_settings(BME280_ALL_SETTINGS_SEL, settings, dev);
ARM GAS  C:\Users\simon\AppData\Local\Temp\cc07ySAM.s 			page 60


 1780              		.loc 1 1051 0
 1781 0014 2A00     		movs	r2, r5
 1782 0016 2100     		movs	r1, r4
 1783 0018 1F30     		adds	r0, r0, #31
 1784              	.LVL239:
 1785 001a FFF7FEFF 		bl	set_filter_standby_settings
 1786              	.LVL240:
 1787              	.L77:
1055:bme280.c      **** }
 1788              		.loc 1 1055 0
 1789              		@ sp needed
 1790              	.LVL241:
 1791              	.LVL242:
 1792 001e 70BD     		pop	{r4, r5, r6, pc}
 1793              		.cfi_endproc
 1794              	.LFE23:
 1795              		.size	reload_device_settings, .-reload_device_settings
 1796              		.section	.text.write_power_mode,"ax",%progbits
 1797              		.align	2
 1798              		.code	16
 1799              		.thumb_func
 1800              		.type	write_power_mode, %function
 1801              	write_power_mode:
 1802              	.LFB21:
 995:bme280.c      **** {
 1803              		.loc 1 995 0
 1804              		.cfi_startproc
 1805              		@ args = 0, pretend = 0, frame = 8
 1806              		@ frame_needed = 0, uses_anonymous_args = 0
 1807              	.LVL243:
 1808 0000 30B5     		push	{r4, r5, lr}
 1809              		.cfi_def_cfa_offset 12
 1810              		.cfi_offset 4, -12
 1811              		.cfi_offset 5, -8
 1812              		.cfi_offset 14, -4
 1813 0002 83B0     		sub	sp, sp, #12
 1814              		.cfi_def_cfa_offset 24
 1815 0004 0400     		movs	r4, r0
 1816 0006 0D00     		movs	r5, r1
 997:bme280.c      ****     uint8_t reg_addr = BME280_PWR_CTRL_ADDR;
 1817              		.loc 1 997 0
 1818 0008 F422     		movs	r2, #244
 1819 000a 6B46     		mov	r3, sp
 1820 000c DA71     		strb	r2, [r3, #7]
1003:bme280.c      ****     rslt = bme280_get_regs(reg_addr, &sensor_mode_reg_val, 1, dev);
 1821              		.loc 1 1003 0
 1822 000e 0B00     		movs	r3, r1
 1823 0010 F33A     		subs	r2, r2, #243
 1824 0012 6946     		mov	r1, sp
 1825              	.LVL244:
 1826 0014 0631     		adds	r1, r1, #6
 1827 0016 F420     		movs	r0, #244
 1828              	.LVL245:
 1829 0018 FFF7FEFF 		bl	bme280_get_regs
 1830              	.LVL246:
1006:bme280.c      ****     if (rslt == BME280_OK)
 1831              		.loc 1 1006 0
ARM GAS  C:\Users\simon\AppData\Local\Temp\cc07ySAM.s 			page 61


 1832 001c 0028     		cmp	r0, #0
 1833 001e 0DD1     		bne	.L79
1008:bme280.c      ****         sensor_mode_reg_val = BME280_SET_BITS_POS_0(sensor_mode_reg_val, BME280_SENSOR_MODE, sensor
 1834              		.loc 1 1008 0
 1835 0020 6B46     		mov	r3, sp
 1836 0022 991D     		adds	r1, r3, #6
 1837 0024 0B78     		ldrb	r3, [r1]
 1838 0026 0322     		movs	r2, #3
 1839 0028 9343     		bics	r3, r2
 1840 002a 1440     		ands	r4, r2
 1841 002c 1C43     		orrs	r4, r3
 1842 002e 0C70     		strb	r4, [r1]
1011:bme280.c      ****         rslt = bme280_set_regs(&reg_addr, &sensor_mode_reg_val, 1, dev);
 1843              		.loc 1 1011 0
 1844 0030 2B00     		movs	r3, r5
 1845 0032 023A     		subs	r2, r2, #2
 1846 0034 6846     		mov	r0, sp
 1847              	.LVL247:
 1848 0036 0730     		adds	r0, r0, #7
 1849 0038 FFF7FEFF 		bl	bme280_set_regs
 1850              	.LVL248:
 1851              	.L79:
1015:bme280.c      **** }
 1852              		.loc 1 1015 0
 1853 003c 03B0     		add	sp, sp, #12
 1854              		@ sp needed
 1855              	.LVL249:
 1856 003e 30BD     		pop	{r4, r5, pc}
 1857              		.cfi_endproc
 1858              	.LFE21:
 1859              		.size	write_power_mode, .-write_power_mode
 1860              		.section	.text.bme280_get_sensor_settings,"ax",%progbits
 1861              		.align	2
 1862              		.global	bme280_get_sensor_settings
 1863              		.code	16
 1864              		.thumb_func
 1865              		.type	bme280_get_sensor_settings, %function
 1866              	bme280_get_sensor_settings:
 1867              	.LFB4:
 547:bme280.c      **** {
 1868              		.loc 1 547 0
 1869              		.cfi_startproc
 1870              		@ args = 0, pretend = 0, frame = 8
 1871              		@ frame_needed = 0, uses_anonymous_args = 0
 1872              	.LVL250:
 1873 0000 30B5     		push	{r4, r5, lr}
 1874              		.cfi_def_cfa_offset 12
 1875              		.cfi_offset 4, -12
 1876              		.cfi_offset 5, -8
 1877              		.cfi_offset 14, -4
 1878 0002 83B0     		sub	sp, sp, #12
 1879              		.cfi_def_cfa_offset 24
 1880 0004 0500     		movs	r5, r0
 552:bme280.c      ****     rslt = null_ptr_check(dev);
 1881              		.loc 1 552 0
 1882 0006 FFF7FEFF 		bl	null_ptr_check
 1883              	.LVL251:
ARM GAS  C:\Users\simon\AppData\Local\Temp\cc07ySAM.s 			page 62


 1884 000a 041E     		subs	r4, r0, #0
 1885              	.LVL252:
 555:bme280.c      ****     if (rslt == BME280_OK)
 1886              		.loc 1 555 0
 1887 000c 0CD1     		bne	.L81
 557:bme280.c      ****         rslt = bme280_get_regs(BME280_CTRL_HUM_ADDR, reg_data, 4, dev);
 1888              		.loc 1 557 0
 1889 000e 2B00     		movs	r3, r5
 1890 0010 0422     		movs	r2, #4
 1891 0012 01A9     		add	r1, sp, #4
 1892 0014 F220     		movs	r0, #242
 1893              	.LVL253:
 1894 0016 FFF7FEFF 		bl	bme280_get_regs
 1895              	.LVL254:
 1896 001a 041E     		subs	r4, r0, #0
 1897              	.LVL255:
 558:bme280.c      ****         if (rslt == BME280_OK)
 1898              		.loc 1 558 0
 1899 001c 04D1     		bne	.L81
 560:bme280.c      ****             parse_device_settings(reg_data, &dev->settings);
 1900              		.loc 1 560 0
 1901 001e 2900     		movs	r1, r5
 1902 0020 3831     		adds	r1, r1, #56
 1903 0022 01A8     		add	r0, sp, #4
 1904              	.LVL256:
 1905 0024 FFF7FEFF 		bl	parse_device_settings
 1906              	.LVL257:
 1907              	.L81:
 565:bme280.c      **** }
 1908              		.loc 1 565 0
 1909 0028 2000     		movs	r0, r4
 1910 002a 03B0     		add	sp, sp, #12
 1911              		@ sp needed
 1912              	.LVL258:
 1913              	.LVL259:
 1914 002c 30BD     		pop	{r4, r5, pc}
 1915              		.cfi_endproc
 1916              	.LFE4:
 1917              		.size	bme280_get_sensor_settings, .-bme280_get_sensor_settings
 1918 002e C046     		.section	.text.bme280_get_sensor_mode,"ax",%progbits
 1919              		.align	2
 1920              		.global	bme280_get_sensor_mode
 1921              		.code	16
 1922              		.thumb_func
 1923              		.type	bme280_get_sensor_mode, %function
 1924              	bme280_get_sensor_mode:
 1925              	.LFB6:
 603:bme280.c      **** {
 1926              		.loc 1 603 0
 1927              		.cfi_startproc
 1928              		@ args = 0, pretend = 0, frame = 0
 1929              		@ frame_needed = 0, uses_anonymous_args = 0
 1930              	.LVL260:
 1931 0000 70B5     		push	{r4, r5, r6, lr}
 1932              		.cfi_def_cfa_offset 16
 1933              		.cfi_offset 4, -16
 1934              		.cfi_offset 5, -12
ARM GAS  C:\Users\simon\AppData\Local\Temp\cc07ySAM.s 			page 63


 1935              		.cfi_offset 6, -8
 1936              		.cfi_offset 14, -4
 1937 0002 0400     		movs	r4, r0
 1938 0004 0D00     		movs	r5, r1
 607:bme280.c      ****     rslt = null_ptr_check(dev);
 1939              		.loc 1 607 0
 1940 0006 0800     		movs	r0, r1
 1941              	.LVL261:
 1942 0008 FFF7FEFF 		bl	null_ptr_check
 1943              	.LVL262:
 608:bme280.c      ****     if (rslt == BME280_OK)
 1944              		.loc 1 608 0
 1945 000c 0028     		cmp	r0, #0
 1946 000e 09D1     		bne	.L83
 611:bme280.c      ****         rslt = bme280_get_regs(BME280_PWR_CTRL_ADDR, sensor_mode, 1, dev);
 1947              		.loc 1 611 0
 1948 0010 2B00     		movs	r3, r5
 1949 0012 0122     		movs	r2, #1
 1950 0014 2100     		movs	r1, r4
 1951 0016 F430     		adds	r0, r0, #244
 1952              	.LVL263:
 1953 0018 FFF7FEFF 		bl	bme280_get_regs
 1954              	.LVL264:
 614:bme280.c      ****         *sensor_mode = BME280_GET_BITS_POS_0(*sensor_mode, BME280_SENSOR_MODE);
 1955              		.loc 1 614 0
 1956 001c 2378     		ldrb	r3, [r4]
 1957 001e 0322     		movs	r2, #3
 1958 0020 1340     		ands	r3, r2
 1959 0022 2370     		strb	r3, [r4]
 1960              	.LVL265:
 1961              	.L83:
 618:bme280.c      **** }
 1962              		.loc 1 618 0
 1963              		@ sp needed
 1964              	.LVL266:
 1965              	.LVL267:
 1966 0024 70BD     		pop	{r4, r5, r6, pc}
 1967              		.cfi_endproc
 1968              	.LFE6:
 1969              		.size	bme280_get_sensor_mode, .-bme280_get_sensor_mode
 1970 0026 C046     		.section	.text.bme280_soft_reset,"ax",%progbits
 1971              		.align	2
 1972              		.global	bme280_soft_reset
 1973              		.code	16
 1974              		.thumb_func
 1975              		.type	bme280_soft_reset, %function
 1976              	bme280_soft_reset:
 1977              	.LFB7:
 624:bme280.c      **** {
 1978              		.loc 1 624 0
 1979              		.cfi_startproc
 1980              		@ args = 0, pretend = 0, frame = 8
 1981              		@ frame_needed = 0, uses_anonymous_args = 0
 1982              	.LVL268:
 1983 0000 30B5     		push	{r4, r5, lr}
 1984              		.cfi_def_cfa_offset 12
 1985              		.cfi_offset 4, -12
ARM GAS  C:\Users\simon\AppData\Local\Temp\cc07ySAM.s 			page 64


 1986              		.cfi_offset 5, -8
 1987              		.cfi_offset 14, -4
 1988 0002 83B0     		sub	sp, sp, #12
 1989              		.cfi_def_cfa_offset 24
 1990 0004 0500     		movs	r5, r0
 626:bme280.c      ****     uint8_t reg_addr = BME280_RESET_ADDR;
 1991              		.loc 1 626 0
 1992 0006 E022     		movs	r2, #224
 1993 0008 6B46     		mov	r3, sp
 1994 000a DA71     		strb	r2, [r3, #7]
 627:bme280.c      ****     uint8_t status_reg = 0;
 1995              		.loc 1 627 0
 1996 000c 0022     		movs	r2, #0
 1997 000e 6B46     		mov	r3, sp
 1998 0010 9A71     		strb	r2, [r3, #6]
 1999              	.LVL269:
 631:bme280.c      ****     uint8_t soft_rst_cmd = BME280_SOFT_RESET_COMMAND;
 2000              		.loc 1 631 0
 2001 0012 B632     		adds	r2, r2, #182
 2002 0014 6B46     		mov	r3, sp
 2003 0016 5A71     		strb	r2, [r3, #5]
 634:bme280.c      ****     rslt = null_ptr_check(dev);
 2004              		.loc 1 634 0
 2005 0018 FFF7FEFF 		bl	null_ptr_check
 2006              	.LVL270:
 637:bme280.c      ****     if (rslt == BME280_OK)
 2007              		.loc 1 637 0
 2008 001c 0028     		cmp	r0, #0
 2009 001e 28D1     		bne	.L85
 640:bme280.c      ****         rslt = bme280_set_regs(&reg_addr, &soft_rst_cmd, 1, dev);
 2010              		.loc 1 640 0
 2011 0020 2B00     		movs	r3, r5
 2012 0022 0122     		movs	r2, #1
 2013 0024 6946     		mov	r1, sp
 2014 0026 0531     		adds	r1, r1, #5
 2015 0028 6846     		mov	r0, sp
 2016              	.LVL271:
 2017 002a 0730     		adds	r0, r0, #7
 2018 002c FFF7FEFF 		bl	bme280_set_regs
 2019              	.LVL272:
 642:bme280.c      ****         if (rslt == BME280_OK)
 2020              		.loc 1 642 0
 2021 0030 0028     		cmp	r0, #0
 2022 0032 1ED1     		bne	.L85
 2023 0034 0524     		movs	r4, #5
 2024 0036 00E0     		b	.L87
 2025              	.LVL273:
 2026              	.L88:
 650:bme280.c      ****             } while ((rslt == BME280_OK) && (try_run--) && (status_reg & BME280_STATUS_IM_UPDATE));
 2027              		.loc 1 650 0
 2028 0038 1C00     		movs	r4, r3
 2029              	.LVL274:
 2030              	.L87:
 648:bme280.c      ****                 dev->delay_ms(2);
 2031              		.loc 1 648 0 discriminator 3
 2032 003a 0220     		movs	r0, #2
 2033 003c EB68     		ldr	r3, [r5, #12]
ARM GAS  C:\Users\simon\AppData\Local\Temp\cc07ySAM.s 			page 65


 2034 003e 9847     		blx	r3
 2035              	.LVL275:
 649:bme280.c      ****                 rslt = bme280_get_regs(BME280_STATUS_REG_ADDR, &status_reg, 1, dev);
 2036              		.loc 1 649 0 discriminator 3
 2037 0040 2B00     		movs	r3, r5
 2038 0042 0122     		movs	r2, #1
 2039 0044 6946     		mov	r1, sp
 2040 0046 0631     		adds	r1, r1, #6
 2041 0048 F320     		movs	r0, #243
 2042 004a FFF7FEFF 		bl	bme280_get_regs
 2043              	.LVL276:
 650:bme280.c      ****             } while ((rslt == BME280_OK) && (try_run--) && (status_reg & BME280_STATUS_IM_UPDATE));
 2044              		.loc 1 650 0 discriminator 3
 2045 004e 0028     		cmp	r0, #0
 2046 0050 08D1     		bne	.L86
 650:bme280.c      ****             } while ((rslt == BME280_OK) && (try_run--) && (status_reg & BME280_STATUS_IM_UPDATE));
 2047              		.loc 1 650 0 is_stmt 0 discriminator 1
 2048 0052 631E     		subs	r3, r4, #1
 2049 0054 DBB2     		uxtb	r3, r3
 2050              	.LVL277:
 2051 0056 002C     		cmp	r4, #0
 2052 0058 04D0     		beq	.L86
 650:bme280.c      ****             } while ((rslt == BME280_OK) && (try_run--) && (status_reg & BME280_STATUS_IM_UPDATE));
 2053              		.loc 1 650 0 discriminator 2
 2054 005a 6A46     		mov	r2, sp
 2055 005c 0632     		adds	r2, r2, #6
 2056 005e 1278     		ldrb	r2, [r2]
 2057 0060 D207     		lsls	r2, r2, #31
 2058 0062 E9D4     		bmi	.L88
 2059              	.LVL278:
 2060              	.L86:
 652:bme280.c      ****             if (status_reg & BME280_STATUS_IM_UPDATE)
 2061              		.loc 1 652 0 is_stmt 1
 2062 0064 6B46     		mov	r3, sp
 2063 0066 0633     		adds	r3, r3, #6
 2064 0068 1B78     		ldrb	r3, [r3]
 2065 006a DB07     		lsls	r3, r3, #31
 2066 006c 01D5     		bpl	.L85
 654:bme280.c      ****                 rslt = BME280_E_NVM_COPY_FAILED;
 2067              		.loc 1 654 0
 2068 006e 0620     		movs	r0, #6
 2069              	.LVL279:
 2070 0070 4042     		rsbs	r0, r0, #0
 2071              	.L85:
 2072              	.LVL280:
 661:bme280.c      **** }
 2073              		.loc 1 661 0
 2074 0072 03B0     		add	sp, sp, #12
 2075              		@ sp needed
 2076              	.LVL281:
 2077 0074 30BD     		pop	{r4, r5, pc}
 2078              		.cfi_endproc
 2079              	.LFE7:
 2080              		.size	bme280_soft_reset, .-bme280_soft_reset
 2081 0076 C046     		.section	.text.bme280_init,"ax",%progbits
 2082              		.align	2
 2083              		.global	bme280_init
ARM GAS  C:\Users\simon\AppData\Local\Temp\cc07ySAM.s 			page 66


 2084              		.code	16
 2085              		.thumb_func
 2086              		.type	bme280_init, %function
 2087              	bme280_init:
 2088              	.LFB0:
 350:bme280.c      **** {
 2089              		.loc 1 350 0
 2090              		.cfi_startproc
 2091              		@ args = 0, pretend = 0, frame = 8
 2092              		@ frame_needed = 0, uses_anonymous_args = 0
 2093              	.LVL282:
 2094 0000 70B5     		push	{r4, r5, r6, lr}
 2095              		.cfi_def_cfa_offset 16
 2096              		.cfi_offset 4, -16
 2097              		.cfi_offset 5, -12
 2098              		.cfi_offset 6, -8
 2099              		.cfi_offset 14, -4
 2100 0002 82B0     		sub	sp, sp, #8
 2101              		.cfi_def_cfa_offset 24
 2102 0004 0600     		movs	r6, r0
 2103              	.LVL283:
 355:bme280.c      ****     uint8_t chip_id = 0;
 2104              		.loc 1 355 0
 2105 0006 0022     		movs	r2, #0
 2106 0008 6B46     		mov	r3, sp
 2107 000a DA71     		strb	r2, [r3, #7]
 358:bme280.c      ****     rslt = null_ptr_check(dev);
 2108              		.loc 1 358 0
 2109 000c FFF7FEFF 		bl	null_ptr_check
 2110              	.LVL284:
 2111 0010 041E     		subs	r4, r0, #0
 2112              	.LVL285:
 361:bme280.c      ****     if (rslt == BME280_OK)
 2113              		.loc 1 361 0
 2114 0012 1FD0     		beq	.L96
 2115 0014 25E0     		b	.L92
 2116              	.LVL286:
 2117              	.L95:
 366:bme280.c      ****             rslt = bme280_get_regs(BME280_CHIP_ID_ADDR, &chip_id, 1, dev);
 2118              		.loc 1 366 0
 2119 0016 3300     		movs	r3, r6
 2120 0018 0122     		movs	r2, #1
 2121 001a 6946     		mov	r1, sp
 2122 001c 0731     		adds	r1, r1, #7
 2123 001e D020     		movs	r0, #208
 2124 0020 FFF7FEFF 		bl	bme280_get_regs
 2125              	.LVL287:
 2126 0024 041E     		subs	r4, r0, #0
 2127              	.LVL288:
 369:bme280.c      ****             if ((rslt == BME280_OK) && (chip_id == BME280_CHIP_ID))
 2128              		.loc 1 369 0
 2129 0026 0FD1     		bne	.L93
 369:bme280.c      ****             if ((rslt == BME280_OK) && (chip_id == BME280_CHIP_ID))
 2130              		.loc 1 369 0 is_stmt 0 discriminator 1
 2131 0028 6B46     		mov	r3, sp
 2132 002a 0733     		adds	r3, r3, #7
 2133 002c 1B78     		ldrb	r3, [r3]
ARM GAS  C:\Users\simon\AppData\Local\Temp\cc07ySAM.s 			page 67


 2134 002e 602B     		cmp	r3, #96
 2135 0030 0AD1     		bne	.L93
 371:bme280.c      ****                 dev->chip_id = chip_id;
 2136              		.loc 1 371 0 is_stmt 1
 2137 0032 3370     		strb	r3, [r6]
 374:bme280.c      ****                 rslt = bme280_soft_reset(dev);
 2138              		.loc 1 374 0
 2139 0034 3000     		movs	r0, r6
 2140              	.LVL289:
 2141 0036 FFF7FEFF 		bl	bme280_soft_reset
 2142              	.LVL290:
 2143 003a 041E     		subs	r4, r0, #0
 2144              	.LVL291:
 375:bme280.c      ****                 if (rslt == BME280_OK)
 2145              		.loc 1 375 0
 2146 003c 0DD1     		bne	.L94
 378:bme280.c      ****                     rslt = get_calib_data(dev);
 2147              		.loc 1 378 0
 2148 003e 3000     		movs	r0, r6
 2149              	.LVL292:
 2150 0040 FFF7FEFF 		bl	get_calib_data
 2151              	.LVL293:
 2152 0044 0400     		movs	r4, r0
 2153              	.LVL294:
 2154 0046 08E0     		b	.L94
 2155              	.L93:
 384:bme280.c      ****             dev->delay_ms(1);
 2156              		.loc 1 384 0
 2157 0048 0120     		movs	r0, #1
 2158              	.LVL295:
 2159 004a F368     		ldr	r3, [r6, #12]
 2160 004c 9847     		blx	r3
 2161              	.LVL296:
 385:bme280.c      ****             --try_count;
 2162              		.loc 1 385 0
 2163 004e 013D     		subs	r5, r5, #1
 2164              	.LVL297:
 2165 0050 EDB2     		uxtb	r5, r5
 2166              	.LVL298:
 2167 0052 00E0     		b	.L91
 2168              	.LVL299:
 2169              	.L96:
 2170 0054 0525     		movs	r5, #5
 2171              	.LVL300:
 2172              	.L91:
 363:bme280.c      ****         while (try_count)
 2173              		.loc 1 363 0
 2174 0056 002D     		cmp	r5, #0
 2175 0058 DDD1     		bne	.L95
 2176              	.LVL301:
 2177              	.L94:
 389:bme280.c      ****         if (!try_count)
 2178              		.loc 1 389 0
 2179 005a 002D     		cmp	r5, #0
 2180 005c 01D1     		bne	.L92
 391:bme280.c      ****             rslt = BME280_E_DEV_NOT_FOUND;
 2181              		.loc 1 391 0
ARM GAS  C:\Users\simon\AppData\Local\Temp\cc07ySAM.s 			page 68


 2182 005e 0224     		movs	r4, #2
 2183              	.LVL302:
 2184 0060 6442     		rsbs	r4, r4, #0
 2185              	.LVL303:
 2186              	.L92:
 396:bme280.c      **** }
 2187              		.loc 1 396 0
 2188 0062 2000     		movs	r0, r4
 2189 0064 02B0     		add	sp, sp, #8
 2190              		@ sp needed
 2191              	.LVL304:
 2192              	.LVL305:
 2193 0066 70BD     		pop	{r4, r5, r6, pc}
 2194              		.cfi_endproc
 2195              	.LFE0:
 2196              		.size	bme280_init, .-bme280_init
 2197              		.section	.text.put_device_to_sleep,"ax",%progbits
 2198              		.align	2
 2199              		.code	16
 2200              		.thumb_func
 2201              		.type	put_device_to_sleep, %function
 2202              	put_device_to_sleep:
 2203              	.LFB22:
1021:bme280.c      **** {
 2204              		.loc 1 1021 0
 2205              		.cfi_startproc
 2206              		@ args = 0, pretend = 0, frame = 16
 2207              		@ frame_needed = 0, uses_anonymous_args = 0
 2208              	.LVL306:
 2209 0000 10B5     		push	{r4, lr}
 2210              		.cfi_def_cfa_offset 8
 2211              		.cfi_offset 4, -8
 2212              		.cfi_offset 14, -4
 2213 0002 84B0     		sub	sp, sp, #16
 2214              		.cfi_def_cfa_offset 24
 2215 0004 0400     		movs	r4, r0
1026:bme280.c      ****     rslt = bme280_get_regs(BME280_CTRL_HUM_ADDR, reg_data, 4, dev);
 2216              		.loc 1 1026 0
 2217 0006 0300     		movs	r3, r0
 2218 0008 0422     		movs	r2, #4
 2219 000a 03A9     		add	r1, sp, #12
 2220 000c F220     		movs	r0, #242
 2221              	.LVL307:
 2222 000e FFF7FEFF 		bl	bme280_get_regs
 2223              	.LVL308:
1027:bme280.c      ****     if (rslt == BME280_OK)
 2224              		.loc 1 1027 0
 2225 0012 0028     		cmp	r0, #0
 2226 0014 0CD1     		bne	.L99
1029:bme280.c      ****         parse_device_settings(reg_data, &settings);
 2227              		.loc 1 1029 0
 2228 0016 01A9     		add	r1, sp, #4
 2229 0018 03A8     		add	r0, sp, #12
 2230              	.LVL309:
 2231 001a FFF7FEFF 		bl	parse_device_settings
 2232              	.LVL310:
1030:bme280.c      ****         rslt = bme280_soft_reset(dev);
ARM GAS  C:\Users\simon\AppData\Local\Temp\cc07ySAM.s 			page 69


 2233              		.loc 1 1030 0
 2234 001e 2000     		movs	r0, r4
 2235 0020 FFF7FEFF 		bl	bme280_soft_reset
 2236              	.LVL311:
1031:bme280.c      ****         if (rslt == BME280_OK)
 2237              		.loc 1 1031 0
 2238 0024 0028     		cmp	r0, #0
 2239 0026 03D1     		bne	.L99
1033:bme280.c      ****             rslt = reload_device_settings(&settings, dev);
 2240              		.loc 1 1033 0
 2241 0028 2100     		movs	r1, r4
 2242 002a 01A8     		add	r0, sp, #4
 2243              	.LVL312:
 2244 002c FFF7FEFF 		bl	reload_device_settings
 2245              	.LVL313:
 2246              	.L99:
1038:bme280.c      **** }
 2247              		.loc 1 1038 0
 2248 0030 04B0     		add	sp, sp, #16
 2249              		@ sp needed
 2250              	.LVL314:
 2251 0032 10BD     		pop	{r4, pc}
 2252              		.cfi_endproc
 2253              	.LFE22:
 2254              		.size	put_device_to_sleep, .-put_device_to_sleep
 2255              		.section	.text.bme280_set_sensor_settings,"ax",%progbits
 2256              		.align	2
 2257              		.global	bme280_set_sensor_settings
 2258              		.code	16
 2259              		.thumb_func
 2260              		.type	bme280_set_sensor_settings, %function
 2261              	bme280_set_sensor_settings:
 2262              	.LFB3:
 504:bme280.c      **** {
 2263              		.loc 1 504 0
 2264              		.cfi_startproc
 2265              		@ args = 0, pretend = 0, frame = 8
 2266              		@ frame_needed = 0, uses_anonymous_args = 0
 2267              	.LVL315:
 2268 0000 70B5     		push	{r4, r5, r6, lr}
 2269              		.cfi_def_cfa_offset 16
 2270              		.cfi_offset 4, -16
 2271              		.cfi_offset 5, -12
 2272              		.cfi_offset 6, -8
 2273              		.cfi_offset 14, -4
 2274 0002 82B0     		sub	sp, sp, #8
 2275              		.cfi_def_cfa_offset 24
 2276 0004 0600     		movs	r6, r0
 2277 0006 0D00     		movs	r5, r1
 509:bme280.c      ****     rslt = null_ptr_check(dev);
 2278              		.loc 1 509 0
 2279 0008 0800     		movs	r0, r1
 2280              	.LVL316:
 2281 000a FFF7FEFF 		bl	null_ptr_check
 2282              	.LVL317:
 2283 000e 041E     		subs	r4, r0, #0
 2284              	.LVL318:
ARM GAS  C:\Users\simon\AppData\Local\Temp\cc07ySAM.s 			page 70


 512:bme280.c      ****     if (rslt == BME280_OK)
 2285              		.loc 1 512 0
 2286 0010 2DD1     		bne	.L101
 514:bme280.c      ****         rslt = bme280_get_sensor_mode(&sensor_mode, dev);
 2287              		.loc 1 514 0
 2288 0012 2900     		movs	r1, r5
 2289 0014 6B46     		mov	r3, sp
 2290 0016 D81D     		adds	r0, r3, #7
 2291              	.LVL319:
 2292 0018 FFF7FEFF 		bl	bme280_get_sensor_mode
 2293              	.LVL320:
 2294 001c 041E     		subs	r4, r0, #0
 2295              	.LVL321:
 515:bme280.c      ****         if ((rslt == BME280_OK) && (sensor_mode != BME280_SLEEP_MODE))
 2296              		.loc 1 515 0
 2297 001e 08D1     		bne	.L102
 515:bme280.c      ****         if ((rslt == BME280_OK) && (sensor_mode != BME280_SLEEP_MODE))
 2298              		.loc 1 515 0 is_stmt 0 discriminator 1
 2299 0020 6B46     		mov	r3, sp
 2300 0022 0733     		adds	r3, r3, #7
 2301 0024 1B78     		ldrb	r3, [r3]
 2302 0026 002B     		cmp	r3, #0
 2303 0028 03D0     		beq	.L102
 517:bme280.c      ****             rslt = put_device_to_sleep(dev);
 2304              		.loc 1 517 0 is_stmt 1
 2305 002a 2800     		movs	r0, r5
 2306              	.LVL322:
 2307 002c FFF7FEFF 		bl	put_device_to_sleep
 2308              	.LVL323:
 2309 0030 0400     		movs	r4, r0
 2310              	.LVL324:
 2311              	.L102:
 519:bme280.c      ****         if (rslt == BME280_OK)
 2312              		.loc 1 519 0
 2313 0032 002C     		cmp	r4, #0
 2314 0034 1BD1     		bne	.L101
 524:bme280.c      ****             if (are_settings_changed(OVERSAMPLING_SETTINGS, desired_settings))
 2315              		.loc 1 524 0
 2316 0036 3100     		movs	r1, r6
 2317 0038 0720     		movs	r0, #7
 2318 003a FFF7FEFF 		bl	are_settings_changed
 2319              	.LVL325:
 2320 003e 0028     		cmp	r0, #0
 2321 0040 06D0     		beq	.L103
 526:bme280.c      ****                 rslt = set_osr_settings(desired_settings, &dev->settings, dev);
 2322              		.loc 1 526 0
 2323 0042 2900     		movs	r1, r5
 2324 0044 3831     		adds	r1, r1, #56
 2325 0046 2A00     		movs	r2, r5
 2326 0048 3000     		movs	r0, r6
 2327 004a FFF7FEFF 		bl	set_osr_settings
 2328              	.LVL326:
 2329 004e 0400     		movs	r4, r0
 2330              	.LVL327:
 2331              	.L103:
 532:bme280.c      ****             if ((rslt == BME280_OK) && are_settings_changed(FILTER_STANDBY_SETTINGS, desired_settin
 2332              		.loc 1 532 0
ARM GAS  C:\Users\simon\AppData\Local\Temp\cc07ySAM.s 			page 71


 2333 0050 002C     		cmp	r4, #0
 2334 0052 0CD1     		bne	.L101
 532:bme280.c      ****             if ((rslt == BME280_OK) && are_settings_changed(FILTER_STANDBY_SETTINGS, desired_settin
 2335              		.loc 1 532 0 is_stmt 0 discriminator 1
 2336 0054 3100     		movs	r1, r6
 2337 0056 1820     		movs	r0, #24
 2338 0058 FFF7FEFF 		bl	are_settings_changed
 2339              	.LVL328:
 2340 005c 0028     		cmp	r0, #0
 2341 005e 06D0     		beq	.L101
 534:bme280.c      ****                 rslt = set_filter_standby_settings(desired_settings, &dev->settings, dev);
 2342              		.loc 1 534 0 is_stmt 1
 2343 0060 2900     		movs	r1, r5
 2344 0062 3831     		adds	r1, r1, #56
 2345 0064 2A00     		movs	r2, r5
 2346 0066 3000     		movs	r0, r6
 2347 0068 FFF7FEFF 		bl	set_filter_standby_settings
 2348              	.LVL329:
 2349 006c 0400     		movs	r4, r0
 2350              	.LVL330:
 2351              	.L101:
 540:bme280.c      **** }
 2352              		.loc 1 540 0
 2353 006e 2000     		movs	r0, r4
 2354 0070 02B0     		add	sp, sp, #8
 2355              		@ sp needed
 2356              	.LVL331:
 2357              	.LVL332:
 2358 0072 70BD     		pop	{r4, r5, r6, pc}
 2359              		.cfi_endproc
 2360              	.LFE3:
 2361              		.size	bme280_set_sensor_settings, .-bme280_set_sensor_settings
 2362              		.section	.text.bme280_set_sensor_mode,"ax",%progbits
 2363              		.align	2
 2364              		.global	bme280_set_sensor_mode
 2365              		.code	16
 2366              		.thumb_func
 2367              		.type	bme280_set_sensor_mode, %function
 2368              	bme280_set_sensor_mode:
 2369              	.LFB5:
 571:bme280.c      **** {
 2370              		.loc 1 571 0
 2371              		.cfi_startproc
 2372              		@ args = 0, pretend = 0, frame = 8
 2373              		@ frame_needed = 0, uses_anonymous_args = 0
 2374              	.LVL333:
 2375 0000 30B5     		push	{r4, r5, lr}
 2376              		.cfi_def_cfa_offset 12
 2377              		.cfi_offset 4, -12
 2378              		.cfi_offset 5, -8
 2379              		.cfi_offset 14, -4
 2380 0002 83B0     		sub	sp, sp, #12
 2381              		.cfi_def_cfa_offset 24
 2382 0004 0500     		movs	r5, r0
 2383 0006 0C00     		movs	r4, r1
 576:bme280.c      ****     rslt = null_ptr_check(dev);
 2384              		.loc 1 576 0
ARM GAS  C:\Users\simon\AppData\Local\Temp\cc07ySAM.s 			page 72


 2385 0008 0800     		movs	r0, r1
 2386              	.LVL334:
 2387 000a FFF7FEFF 		bl	null_ptr_check
 2388              	.LVL335:
 577:bme280.c      ****     if (rslt == BME280_OK)
 2389              		.loc 1 577 0
 2390 000e 0028     		cmp	r0, #0
 2391 0010 14D1     		bne	.L105
 579:bme280.c      ****         rslt = bme280_get_sensor_mode(&last_set_mode, dev);
 2392              		.loc 1 579 0
 2393 0012 2100     		movs	r1, r4
 2394 0014 6B46     		mov	r3, sp
 2395 0016 D81D     		adds	r0, r3, #7
 2396              	.LVL336:
 2397 0018 FFF7FEFF 		bl	bme280_get_sensor_mode
 2398              	.LVL337:
 584:bme280.c      ****         if ((rslt == BME280_OK) && (last_set_mode != BME280_SLEEP_MODE))
 2399              		.loc 1 584 0
 2400 001c 0028     		cmp	r0, #0
 2401 001e 07D1     		bne	.L106
 584:bme280.c      ****         if ((rslt == BME280_OK) && (last_set_mode != BME280_SLEEP_MODE))
 2402              		.loc 1 584 0 is_stmt 0 discriminator 1
 2403 0020 6B46     		mov	r3, sp
 2404 0022 0733     		adds	r3, r3, #7
 2405 0024 1B78     		ldrb	r3, [r3]
 2406 0026 002B     		cmp	r3, #0
 2407 0028 02D0     		beq	.L106
 586:bme280.c      ****             rslt = put_device_to_sleep(dev);
 2408              		.loc 1 586 0 is_stmt 1
 2409 002a 2000     		movs	r0, r4
 2410              	.LVL338:
 2411 002c FFF7FEFF 		bl	put_device_to_sleep
 2412              	.LVL339:
 2413              	.L106:
 590:bme280.c      ****         if (rslt == BME280_OK)
 2414              		.loc 1 590 0
 2415 0030 0028     		cmp	r0, #0
 2416 0032 03D1     		bne	.L105
 592:bme280.c      ****             rslt = write_power_mode(sensor_mode, dev);
 2417              		.loc 1 592 0
 2418 0034 2100     		movs	r1, r4
 2419 0036 2800     		movs	r0, r5
 2420              	.LVL340:
 2421 0038 FFF7FEFF 		bl	write_power_mode
 2422              	.LVL341:
 2423              	.L105:
 597:bme280.c      **** }
 2424              		.loc 1 597 0
 2425 003c 03B0     		add	sp, sp, #12
 2426              		@ sp needed
 2427              	.LVL342:
 2428 003e 30BD     		pop	{r4, r5, pc}
 2429              		.cfi_endproc
 2430              	.LFE5:
 2431              		.size	bme280_set_sensor_mode, .-bme280_set_sensor_mode
 2432              		.section	.text.bme280_parse_sensor_data,"ax",%progbits
 2433              		.align	2
ARM GAS  C:\Users\simon\AppData\Local\Temp\cc07ySAM.s 			page 73


 2434              		.global	bme280_parse_sensor_data
 2435              		.code	16
 2436              		.thumb_func
 2437              		.type	bme280_parse_sensor_data, %function
 2438              	bme280_parse_sensor_data:
 2439              	.LFB9:
 708:bme280.c      **** {
 2440              		.loc 1 708 0
 2441              		.cfi_startproc
 2442              		@ args = 0, pretend = 0, frame = 0
 2443              		@ frame_needed = 0, uses_anonymous_args = 0
 2444              	.LVL343:
 2445 0000 10B5     		push	{r4, lr}
 2446              		.cfi_def_cfa_offset 8
 2447              		.cfi_offset 4, -8
 2448              		.cfi_offset 14, -4
 715:bme280.c      ****     data_msb = (uint32_t)reg_data[0] << 12;
 2449              		.loc 1 715 0
 2450 0002 0378     		ldrb	r3, [r0]
 2451 0004 1B03     		lsls	r3, r3, #12
 2452              	.LVL344:
 716:bme280.c      ****     data_lsb = (uint32_t)reg_data[1] << 4;
 2453              		.loc 1 716 0
 2454 0006 4278     		ldrb	r2, [r0, #1]
 2455 0008 1201     		lsls	r2, r2, #4
 2456              	.LVL345:
 717:bme280.c      ****     data_xlsb = (uint32_t)reg_data[2] >> 4;
 2457              		.loc 1 717 0
 2458 000a 8478     		ldrb	r4, [r0, #2]
 2459 000c 2409     		lsrs	r4, r4, #4
 2460              	.LVL346:
 718:bme280.c      ****     uncomp_data->pressure = data_msb | data_lsb | data_xlsb;
 2461              		.loc 1 718 0
 2462 000e 1343     		orrs	r3, r2
 2463              	.LVL347:
 2464 0010 2343     		orrs	r3, r4
 2465 0012 0B60     		str	r3, [r1]
 2466              	.LVL348:
 721:bme280.c      ****     data_msb = (uint32_t)reg_data[3] << 12;
 2467              		.loc 1 721 0
 2468 0014 C378     		ldrb	r3, [r0, #3]
 2469 0016 1B03     		lsls	r3, r3, #12
 2470              	.LVL349:
 722:bme280.c      ****     data_lsb = (uint32_t)reg_data[4] << 4;
 2471              		.loc 1 722 0
 2472 0018 0279     		ldrb	r2, [r0, #4]
 2473              	.LVL350:
 2474 001a 1201     		lsls	r2, r2, #4
 2475              	.LVL351:
 723:bme280.c      ****     data_xlsb = (uint32_t)reg_data[5] >> 4;
 2476              		.loc 1 723 0
 2477 001c 4479     		ldrb	r4, [r0, #5]
 2478              	.LVL352:
 2479 001e 2409     		lsrs	r4, r4, #4
 2480              	.LVL353:
 724:bme280.c      ****     uncomp_data->temperature = data_msb | data_lsb | data_xlsb;
 2481              		.loc 1 724 0
ARM GAS  C:\Users\simon\AppData\Local\Temp\cc07ySAM.s 			page 74


 2482 0020 1343     		orrs	r3, r2
 2483              	.LVL354:
 2484 0022 2343     		orrs	r3, r4
 2485 0024 4B60     		str	r3, [r1, #4]
 2486              	.LVL355:
 727:bme280.c      ****     data_msb = (uint32_t)reg_data[6] << 8;
 2487              		.loc 1 727 0
 2488 0026 8379     		ldrb	r3, [r0, #6]
 2489 0028 1B02     		lsls	r3, r3, #8
 2490              	.LVL356:
 728:bme280.c      ****     data_lsb = (uint32_t)reg_data[7];
 2491              		.loc 1 728 0
 2492 002a C279     		ldrb	r2, [r0, #7]
 2493              	.LVL357:
 729:bme280.c      ****     uncomp_data->humidity = data_msb | data_lsb;
 2494              		.loc 1 729 0
 2495 002c 1343     		orrs	r3, r2
 2496              	.LVL358:
 2497 002e 8B60     		str	r3, [r1, #8]
 2498              	.LVL359:
 730:bme280.c      **** }
 2499              		.loc 1 730 0
 2500              		@ sp needed
 2501              	.LVL360:
 2502 0030 10BD     		pop	{r4, pc}
 2503              		.cfi_endproc
 2504              	.LFE9:
 2505              		.size	bme280_parse_sensor_data, .-bme280_parse_sensor_data
 2506              		.section	.text.bme280_compensate_data,"ax",%progbits
 2507              		.align	2
 2508              		.global	bme280_compensate_data
 2509              		.code	16
 2510              		.thumb_func
 2511              		.type	bme280_compensate_data, %function
 2512              	bme280_compensate_data:
 2513              	.LFB10:
 741:bme280.c      **** {
 2514              		.loc 1 741 0
 2515              		.cfi_startproc
 2516              		@ args = 0, pretend = 0, frame = 0
 2517              		@ frame_needed = 0, uses_anonymous_args = 0
 2518              	.LVL361:
 2519 0000 F8B5     		push	{r3, r4, r5, r6, r7, lr}
 2520              		.cfi_def_cfa_offset 24
 2521              		.cfi_offset 3, -24
 2522              		.cfi_offset 4, -20
 2523              		.cfi_offset 5, -16
 2524              		.cfi_offset 6, -12
 2525              		.cfi_offset 7, -8
 2526              		.cfi_offset 14, -4
 2527 0002 0500     		movs	r5, r0
 2528 0004 0E00     		movs	r6, r1
 2529 0006 1400     		movs	r4, r2
 2530 0008 1F00     		movs	r7, r3
 2531              	.LVL362:
 744:bme280.c      ****     if ((uncomp_data != NULL) && (comp_data != NULL) && (calib_data != NULL))
 2532              		.loc 1 744 0
ARM GAS  C:\Users\simon\AppData\Local\Temp\cc07ySAM.s 			page 75


 2533 000a 0029     		cmp	r1, #0
 2534 000c 1ED0     		beq	.L112
 744:bme280.c      ****     if ((uncomp_data != NULL) && (comp_data != NULL) && (calib_data != NULL))
 2535              		.loc 1 744 0 is_stmt 0 discriminator 1
 2536 000e 002A     		cmp	r2, #0
 2537 0010 1FD0     		beq	.L113
 744:bme280.c      ****     if ((uncomp_data != NULL) && (comp_data != NULL) && (calib_data != NULL))
 2538              		.loc 1 744 0 discriminator 2
 2539 0012 002B     		cmp	r3, #0
 2540 0014 20D0     		beq	.L114
 747:bme280.c      ****         comp_data->temperature = 0;
 2541              		.loc 1 747 0 is_stmt 1
 2542 0016 0023     		movs	r3, #0
 2543              	.LVL363:
 2544 0018 5360     		str	r3, [r2, #4]
 748:bme280.c      ****         comp_data->pressure = 0;
 2545              		.loc 1 748 0
 2546 001a 1360     		str	r3, [r2]
 749:bme280.c      ****         comp_data->humidity = 0;
 2547              		.loc 1 749 0
 2548 001c 9360     		str	r3, [r2, #8]
 752:bme280.c      ****         if (sensor_comp & (BME280_PRESS | BME280_TEMP | BME280_HUM))
 2549              		.loc 1 752 0
 2550 001e 4307     		lsls	r3, r0, #29
 2551 0020 04D0     		beq	.L110
 755:bme280.c      ****             comp_data->temperature = compensate_temperature(uncomp_data, calib_data);
 2552              		.loc 1 755 0
 2553 0022 3900     		movs	r1, r7
 2554              	.LVL364:
 2555 0024 3000     		movs	r0, r6
 2556              	.LVL365:
 2557 0026 FFF7FEFF 		bl	compensate_temperature
 2558              	.LVL366:
 2559 002a 6060     		str	r0, [r4, #4]
 2560              	.L110:
 757:bme280.c      ****         if (sensor_comp & BME280_PRESS)
 2561              		.loc 1 757 0
 2562 002c EB07     		lsls	r3, r5, #31
 2563 002e 04D5     		bpl	.L111
 760:bme280.c      ****             comp_data->pressure = compensate_pressure(uncomp_data, calib_data);
 2564              		.loc 1 760 0
 2565 0030 3900     		movs	r1, r7
 2566 0032 3000     		movs	r0, r6
 2567 0034 FFF7FEFF 		bl	compensate_pressure
 2568              	.LVL367:
 2569 0038 2060     		str	r0, [r4]
 2570              	.L111:
 762:bme280.c      ****         if (sensor_comp & BME280_HUM)
 2571              		.loc 1 762 0
 2572 003a 6B07     		lsls	r3, r5, #29
 2573 003c 0FD5     		bpl	.L115
 765:bme280.c      ****             comp_data->humidity = compensate_humidity(uncomp_data, calib_data);
 2574              		.loc 1 765 0
 2575 003e 3900     		movs	r1, r7
 2576 0040 3000     		movs	r0, r6
 2577 0042 FFF7FEFF 		bl	compensate_humidity
 2578              	.LVL368:
ARM GAS  C:\Users\simon\AppData\Local\Temp\cc07ySAM.s 			page 76


 2579 0046 A060     		str	r0, [r4, #8]
 742:bme280.c      ****     int8_t rslt = BME280_OK;
 2580              		.loc 1 742 0
 2581 0048 0020     		movs	r0, #0
 2582 004a 09E0     		b	.L109
 2583              	.LVL369:
 2584              	.L112:
 770:bme280.c      ****         rslt = BME280_E_NULL_PTR;
 2585              		.loc 1 770 0
 2586 004c 0120     		movs	r0, #1
 2587              	.LVL370:
 2588 004e 4042     		rsbs	r0, r0, #0
 2589 0050 06E0     		b	.L109
 2590              	.LVL371:
 2591              	.L113:
 2592 0052 0120     		movs	r0, #1
 2593              	.LVL372:
 2594 0054 4042     		rsbs	r0, r0, #0
 2595 0056 03E0     		b	.L109
 2596              	.LVL373:
 2597              	.L114:
 2598 0058 0120     		movs	r0, #1
 2599              	.LVL374:
 2600 005a 4042     		rsbs	r0, r0, #0
 2601 005c 00E0     		b	.L109
 2602              	.LVL375:
 2603              	.L115:
 742:bme280.c      ****     int8_t rslt = BME280_OK;
 2604              		.loc 1 742 0
 2605 005e 0020     		movs	r0, #0
 2606              	.L109:
 2607              	.LVL376:
 774:bme280.c      **** }
 2608              		.loc 1 774 0
 2609              		@ sp needed
 2610              	.LVL377:
 2611              	.LVL378:
 2612              	.LVL379:
 2613 0060 F8BD     		pop	{r3, r4, r5, r6, r7, pc}
 2614              		.cfi_endproc
 2615              	.LFE10:
 2616              		.size	bme280_compensate_data, .-bme280_compensate_data
 2617 0062 C046     		.section	.text.bme280_get_sensor_data,"ax",%progbits
 2618              		.align	2
 2619              		.global	bme280_get_sensor_data
 2620              		.code	16
 2621              		.thumb_func
 2622              		.type	bme280_get_sensor_data, %function
 2623              	bme280_get_sensor_data:
 2624              	.LFB8:
 669:bme280.c      **** {
 2625              		.loc 1 669 0
 2626              		.cfi_startproc
 2627              		@ args = 0, pretend = 0, frame = 24
 2628              		@ frame_needed = 0, uses_anonymous_args = 0
 2629              	.LVL380:
 2630 0000 70B5     		push	{r4, r5, r6, lr}
ARM GAS  C:\Users\simon\AppData\Local\Temp\cc07ySAM.s 			page 77


 2631              		.cfi_def_cfa_offset 16
 2632              		.cfi_offset 4, -16
 2633              		.cfi_offset 5, -12
 2634              		.cfi_offset 6, -8
 2635              		.cfi_offset 14, -4
 2636 0002 86B0     		sub	sp, sp, #24
 2637              		.cfi_def_cfa_offset 40
 2638 0004 0600     		movs	r6, r0
 2639 0006 0D00     		movs	r5, r1
 2640 0008 1400     		movs	r4, r2
 675:bme280.c      ****     uint8_t reg_data[BME280_P_T_H_DATA_LEN] = { 0 };
 2641              		.loc 1 675 0
 2642 000a 0822     		movs	r2, #8
 2643              	.LVL381:
 2644 000c 0021     		movs	r1, #0
 2645              	.LVL382:
 2646 000e 04A8     		add	r0, sp, #16
 2647              	.LVL383:
 2648 0010 FFF7FEFF 		bl	memset
 2649              	.LVL384:
 676:bme280.c      ****     struct bme280_uncomp_data uncomp_data = { 0, 0, 0 };
 2650              		.loc 1 676 0
 2651 0014 0023     		movs	r3, #0
 2652 0016 0193     		str	r3, [sp, #4]
 2653 0018 0293     		str	r3, [sp, #8]
 2654 001a 0393     		str	r3, [sp, #12]
 679:bme280.c      ****     rslt = null_ptr_check(dev);
 2655              		.loc 1 679 0
 2656 001c 2000     		movs	r0, r4
 2657 001e FFF7FEFF 		bl	null_ptr_check
 2658              	.LVL385:
 680:bme280.c      ****     if ((rslt == BME280_OK) && (comp_data != NULL))
 2659              		.loc 1 680 0
 2660 0022 0028     		cmp	r0, #0
 2661 0024 15D1     		bne	.L118
 680:bme280.c      ****     if ((rslt == BME280_OK) && (comp_data != NULL))
 2662              		.loc 1 680 0 is_stmt 0 discriminator 1
 2663 0026 002D     		cmp	r5, #0
 2664 0028 16D0     		beq	.L119
 683:bme280.c      ****         rslt = bme280_get_regs(BME280_DATA_ADDR, reg_data, BME280_P_T_H_DATA_LEN, dev);
 2665              		.loc 1 683 0 is_stmt 1
 2666 002a 2300     		movs	r3, r4
 2667 002c 0822     		movs	r2, #8
 2668 002e 04A9     		add	r1, sp, #16
 2669 0030 F730     		adds	r0, r0, #247
 2670              	.LVL386:
 2671 0032 FFF7FEFF 		bl	bme280_get_regs
 2672              	.LVL387:
 684:bme280.c      ****         if (rslt == BME280_OK)
 2673              		.loc 1 684 0
 2674 0036 0028     		cmp	r0, #0
 2675 0038 10D1     		bne	.L117
 687:bme280.c      ****             bme280_parse_sensor_data(reg_data, &uncomp_data);
 2676              		.loc 1 687 0
 2677 003a 01A9     		add	r1, sp, #4
 2678 003c 04A8     		add	r0, sp, #16
 2679              	.LVL388:
ARM GAS  C:\Users\simon\AppData\Local\Temp\cc07ySAM.s 			page 78


 2680 003e FFF7FEFF 		bl	bme280_parse_sensor_data
 2681              	.LVL389:
 692:bme280.c      ****             rslt = bme280_compensate_data(sensor_comp, &uncomp_data, comp_data, &dev->calib_data);
 2682              		.loc 1 692 0
 2683 0042 2300     		movs	r3, r4
 2684 0044 1033     		adds	r3, r3, #16
 2685 0046 2A00     		movs	r2, r5
 2686 0048 01A9     		add	r1, sp, #4
 2687 004a 3000     		movs	r0, r6
 2688 004c FFF7FEFF 		bl	bme280_compensate_data
 2689              	.LVL390:
 2690 0050 04E0     		b	.L117
 2691              	.L118:
 697:bme280.c      ****         rslt = BME280_E_NULL_PTR;
 2692              		.loc 1 697 0
 2693 0052 0120     		movs	r0, #1
 2694              	.LVL391:
 2695 0054 4042     		rsbs	r0, r0, #0
 2696 0056 01E0     		b	.L117
 2697              	.LVL392:
 2698              	.L119:
 2699 0058 0120     		movs	r0, #1
 2700              	.LVL393:
 2701 005a 4042     		rsbs	r0, r0, #0
 2702              	.L117:
 2703              	.LVL394:
 701:bme280.c      **** }
 2704              		.loc 1 701 0
 2705 005c 06B0     		add	sp, sp, #24
 2706              		@ sp needed
 2707              	.LVL395:
 2708              	.LVL396:
 2709 005e 70BD     		pop	{r4, r5, r6, pc}
 2710              		.cfi_endproc
 2711              	.LFE8:
 2712              		.size	bme280_get_sensor_data, .-bme280_get_sensor_data
 2713              		.global	__aeabi_idiv
 2714              		.section	.text.bme280_cal_meas_delay,"ax",%progbits
 2715              		.align	2
 2716              		.global	bme280_cal_meas_delay
 2717              		.code	16
 2718              		.thumb_func
 2719              		.type	bme280_cal_meas_delay, %function
 2720              	bme280_cal_meas_delay:
 2721              	.LFB11:
 781:bme280.c      **** {
 2722              		.loc 1 781 0
 2723              		.cfi_startproc
 2724              		@ args = 0, pretend = 0, frame = 8
 2725              		@ frame_needed = 0, uses_anonymous_args = 0
 2726              	.LVL397:
 2727 0000 10B5     		push	{r4, lr}
 2728              		.cfi_def_cfa_offset 8
 2729              		.cfi_offset 4, -8
 2730              		.cfi_offset 14, -4
 2731 0002 82B0     		sub	sp, sp, #8
 2732              		.cfi_def_cfa_offset 16
ARM GAS  C:\Users\simon\AppData\Local\Temp\cc07ySAM.s 			page 79


 2733 0004 0400     		movs	r4, r0
 788:bme280.c      ****     uint8_t osr_sett_to_act_osr[] = { 0, 1, 2, 4, 8, 16 };
 2734              		.loc 1 788 0
 2735 0006 0622     		movs	r2, #6
 2736 0008 1549     		ldr	r1, .L127
 2737 000a 6846     		mov	r0, sp
 2738              	.LVL398:
 2739 000c FFF7FEFF 		bl	memcpy
 2740              	.LVL399:
 791:bme280.c      ****     if (settings->osr_t <= 5)
 2741              		.loc 1 791 0
 2742 0010 6378     		ldrb	r3, [r4, #1]
 2743 0012 052B     		cmp	r3, #5
 2744 0014 02D8     		bhi	.L124
 793:bme280.c      ****         temp_osr = osr_sett_to_act_osr[settings->osr_t];
 2745              		.loc 1 793 0
 2746 0016 6A46     		mov	r2, sp
 2747 0018 D05C     		ldrb	r0, [r2, r3]
 2748              	.LVL400:
 2749 001a 00E0     		b	.L121
 2750              	.LVL401:
 2751              	.L124:
 797:bme280.c      ****         temp_osr = 16;
 2752              		.loc 1 797 0
 2753 001c 1020     		movs	r0, #16
 2754              	.L121:
 2755              	.LVL402:
 800:bme280.c      ****     if (settings->osr_p <= 5)
 2756              		.loc 1 800 0
 2757 001e 2378     		ldrb	r3, [r4]
 2758 0020 052B     		cmp	r3, #5
 2759 0022 02D8     		bhi	.L125
 802:bme280.c      ****         pres_osr = osr_sett_to_act_osr[settings->osr_p];
 2760              		.loc 1 802 0
 2761 0024 6A46     		mov	r2, sp
 2762 0026 D25C     		ldrb	r2, [r2, r3]
 2763              	.LVL403:
 2764 0028 00E0     		b	.L122
 2765              	.LVL404:
 2766              	.L125:
 806:bme280.c      ****         pres_osr = 16;
 2767              		.loc 1 806 0
 2768 002a 1022     		movs	r2, #16
 2769              	.L122:
 2770              	.LVL405:
 809:bme280.c      ****     if (settings->osr_h <= 5)
 2771              		.loc 1 809 0
 2772 002c A378     		ldrb	r3, [r4, #2]
 2773 002e 052B     		cmp	r3, #5
 2774 0030 02D8     		bhi	.L126
 811:bme280.c      ****         hum_osr = osr_sett_to_act_osr[settings->osr_h];
 2775              		.loc 1 811 0
 2776 0032 6946     		mov	r1, sp
 2777 0034 CC5C     		ldrb	r4, [r1, r3]
 2778              	.LVL406:
 2779 0036 00E0     		b	.L123
 2780              	.LVL407:
ARM GAS  C:\Users\simon\AppData\Local\Temp\cc07ySAM.s 			page 80


 2781              	.L126:
 815:bme280.c      ****         hum_osr = 16;
 2782              		.loc 1 815 0
 2783 0038 1024     		movs	r4, #16
 2784              	.LVL408:
 2785              	.L123:
 819:bme280.c      ****         (uint32_t)((BME280_MEAS_OFFSET + (BME280_MEAS_DUR * temp_osr) +
 2786              		.loc 1 819 0
 2787 003a 0A4B     		ldr	r3, .L127+4
 2788 003c 0100     		movs	r1, r0
 2789 003e 5943     		muls	r1, r3
 2790 0040 0948     		ldr	r0, .L127+8
 2791              	.LVL409:
 2792 0042 0818     		adds	r0, r1, r0
 820:bme280.c      ****                     ((BME280_MEAS_DUR * pres_osr) + BME280_PRES_HUM_MEAS_OFFSET) +
 2793              		.loc 1 820 0
 2794 0044 5A43     		muls	r2, r3
 2795              	.LVL410:
 2796 0046 0949     		ldr	r1, .L127+12
 2797 0048 8C46     		mov	ip, r1
 2798 004a 6244     		add	r2, r2, ip
 819:bme280.c      ****         (uint32_t)((BME280_MEAS_OFFSET + (BME280_MEAS_DUR * temp_osr) +
 2799              		.loc 1 819 0
 2800 004c 8018     		adds	r0, r0, r2
 821:bme280.c      ****                     ((BME280_MEAS_DUR * hum_osr) + BME280_PRES_HUM_MEAS_OFFSET)) / BME280_MEAS_SCAL
 2801              		.loc 1 821 0
 2802 004e 6343     		muls	r3, r4
 2803 0050 6344     		add	r3, r3, ip
 820:bme280.c      ****                     ((BME280_MEAS_DUR * pres_osr) + BME280_PRES_HUM_MEAS_OFFSET) +
 2804              		.loc 1 820 0
 2805 0052 C018     		adds	r0, r0, r3
 821:bme280.c      ****                     ((BME280_MEAS_DUR * hum_osr) + BME280_PRES_HUM_MEAS_OFFSET)) / BME280_MEAS_SCAL
 2806              		.loc 1 821 0
 2807 0054 AA31     		adds	r1, r1, #170
 2808 0056 FF31     		adds	r1, r1, #255
 2809 0058 FFF7FEFF 		bl	__aeabi_idiv
 2810              	.LVL411:
 824:bme280.c      **** }
 2811              		.loc 1 824 0
 2812 005c 02B0     		add	sp, sp, #8
 2813              		@ sp needed
 2814              	.LVL412:
 2815 005e 10BD     		pop	{r4, pc}
 2816              	.L128:
 2817              		.align	2
 2818              	.L127:
 2819 0060 00000000 		.word	.LANCHOR0
 2820 0064 FC080000 		.word	2300
 2821 0068 E2040000 		.word	1250
 2822 006c 3F020000 		.word	575
 2823              		.cfi_endproc
 2824              	.LFE11:
 2825              		.size	bme280_cal_meas_delay, .-bme280_cal_meas_delay
 2826              		.section	.rodata
 2827              		.align	2
 2828              		.set	.LANCHOR0,. + 0
 2829              	.LC0:
ARM GAS  C:\Users\simon\AppData\Local\Temp\cc07ySAM.s 			page 81


 2830 0000 00       		.byte	0
 2831 0001 01       		.byte	1
 2832 0002 02       		.byte	2
 2833 0003 04       		.byte	4
 2834 0004 08       		.byte	8
 2835 0005 10       		.byte	16
 2836              		.text
 2837              	.Letext0:
 2838              		.file 2 "d:\\program files (x86)\\cypress\\psoc creator\\4.2\\psoc creator\\import\\gnu\\arm\\5.4.
 2839              		.file 3 "d:\\program files (x86)\\cypress\\psoc creator\\4.2\\psoc creator\\import\\gnu\\arm\\5.4.
 2840              		.file 4 "bme280_defs.h"