ARM GAS  C:\Users\simon\AppData\Local\Temp\cc07ySAM.s 			page 1


   1              		.syntax unified
   2              		.cpu cortex-m0
   3              		.fpu softvfp
   4              		.eabi_attribute 20, 1
   5              		.eabi_attribute 21, 1
   6              		.eabi_attribute 23, 3
   7              		.eabi_attribute 24, 1
   8              		.eabi_attribute 25, 1
   9              		.eabi_attribute 26, 1
  10              		.eabi_attribute 30, 1
  11              		.eabi_attribute 34, 0
  12              		.eabi_attribute 18, 4
  13              		.thumb
  14              		.syntax unified
  15              		.file	"bme280.c"
  16              		.text
  17              	.Ltext0:
  18              		.cfi_sections	.debug_frame
  19              		.section	.text.fill_filter_settings,"ax",%progbits
  20              		.align	2
  21              		.code	16
  22              		.thumb_func
  23              		.type	fill_filter_settings, %function
  24              	fill_filter_settings:
  25              	.LFB16:
  26              		.file 1 "bme280.c"
   1:bme280.c      **** /**
   2:bme280.c      **** * Copyright (c) 2020 Bosch Sensortec GmbH. All rights reserved.
   3:bme280.c      **** *
   4:bme280.c      **** * BSD-3-Clause
   5:bme280.c      **** *
   6:bme280.c      **** * Redistribution and use in source and binary forms, with or without
   7:bme280.c      **** * modification, are permitted provided that the following conditions are met:
   8:bme280.c      **** *
   9:bme280.c      **** * 1. Redistributions of source code must retain the above copyright
  10:bme280.c      **** *    notice, this list of conditions and the following disclaimer.
  11:bme280.c      **** *
  12:bme280.c      **** * 2. Redistributions in binary form must reproduce the above copyright
  13:bme280.c      **** *    notice, this list of conditions and the following disclaimer in the
  14:bme280.c      **** *    documentation and/or other materials provided with the distribution.
  15:bme280.c      **** *
  16:bme280.c      **** * 3. Neither the name of the copyright holder nor the names of its
  17:bme280.c      **** *    contributors may be used to endorse or promote products derived from
  18:bme280.c      **** *    this software without specific prior written permission.
  19:bme280.c      **** *
  20:bme280.c      **** * THIS SOFTWARE IS PROVIDED BY THE COPYRIGHT HOLDERS AND CONTRIBUTORS
  21:bme280.c      **** * "AS IS" AND ANY EXPRESS OR IMPLIED WARRANTIES, INCLUDING, BUT NOT
  22:bme280.c      **** * LIMITED TO, THE IMPLIED WARRANTIES OF MERCHANTABILITY AND FITNESS
  23:bme280.c      **** * FOR A PARTICULAR PURPOSE ARE DISCLAIMED. IN NO EVENT SHALL THE
  24:bme280.c      **** * COPYRIGHT HOLDER OR CONTRIBUTORS BE LIABLE FOR ANY DIRECT, INDIRECT,
  25:bme280.c      **** * INCIDENTAL, SPECIAL, EXEMPLARY, OR CONSEQUENTIAL DAMAGES
  26:bme280.c      **** * (INCLUDING, BUT NOT LIMITED TO, PROCUREMENT OF SUBSTITUTE GOODS OR
  27:bme280.c      **** * SERVICES; LOSS OF USE, DATA, OR PROFITS; OR BUSINESS INTERRUPTION)
  28:bme280.c      **** * HOWEVER CAUSED AND ON ANY THEORY OF LIABILITY, WHETHER IN CONTRACT,
  29:bme280.c      **** * STRICT LIABILITY, OR TORT (INCLUDING NEGLIGENCE OR OTHERWISE) ARISING
  30:bme280.c      **** * IN ANY WAY OUT OF THE USE OF THIS SOFTWARE, EVEN IF ADVISED OF THE
  31:bme280.c      **** * POSSIBILITY OF SUCH DAMAGE.
ARM GAS  C:\Users\simon\AppData\Local\Temp\cc07ySAM.s 			page 2


  32:bme280.c      **** *
  33:bme280.c      **** * @file bme280.c
  34:bme280.c      **** * @date 21/01/2020
  35:bme280.c      **** * @version  3.4.2
  36:bme280.c      **** *
  37:bme280.c      **** */
  38:bme280.c      **** 
  39:bme280.c      **** /*! @file bme280.c
  40:bme280.c      ****  * @brief Sensor driver for BME280 sensor
  41:bme280.c      ****  */
  42:bme280.c      **** #include "bme280.h"
  43:bme280.c      **** #include "bme280_defs.h"
  44:bme280.c      **** 
  45:bme280.c      **** /**\name Internal macros */
  46:bme280.c      **** /* To identify osr settings selected by user */
  47:bme280.c      **** #define OVERSAMPLING_SETTINGS   UINT8_C(0x07)
  48:bme280.c      **** 
  49:bme280.c      **** /* To identify filter and standby settings selected by user */
  50:bme280.c      **** #define FILTER_STANDBY_SETTINGS UINT8_C(0x18)
  51:bme280.c      **** 
  52:bme280.c      **** /*!
  53:bme280.c      ****  * @brief This internal API puts the device to sleep mode.
  54:bme280.c      ****  *
  55:bme280.c      ****  * @param[in] dev : Structure instance of bme280_dev.
  56:bme280.c      ****  *
  57:bme280.c      ****  * @return Result of API execution status.
  58:bme280.c      ****  * @retval zero -> Success / +ve value -> Warning / -ve value -> Error
  59:bme280.c      ****  */
  60:bme280.c      **** static int8_t put_device_to_sleep(const struct bme280_dev *dev);
  61:bme280.c      **** 
  62:bme280.c      **** /*!
  63:bme280.c      ****  * @brief This internal API writes the power mode in the sensor.
  64:bme280.c      ****  *
  65:bme280.c      ****  * @param[in] dev : Structure instance of bme280_dev.
  66:bme280.c      ****  * @param[in] sensor_mode : Variable which contains the power mode to be set.
  67:bme280.c      ****  *
  68:bme280.c      ****  * @return Result of API execution status.
  69:bme280.c      ****  * @retval zero -> Success / +ve value -> Warning / -ve value -> Error
  70:bme280.c      ****  */
  71:bme280.c      **** static int8_t write_power_mode(uint8_t sensor_mode, const struct bme280_dev *dev);
  72:bme280.c      **** 
  73:bme280.c      **** /*!
  74:bme280.c      ****  * @brief This internal API is used to validate the device pointer for
  75:bme280.c      ****  * null conditions.
  76:bme280.c      ****  *
  77:bme280.c      ****  * @param[in] dev : Structure instance of bme280_dev.
  78:bme280.c      ****  *
  79:bme280.c      ****  * @return Result of API execution status
  80:bme280.c      ****  * @retval zero -> Success / +ve value -> Warning / -ve value -> Error
  81:bme280.c      ****  */
  82:bme280.c      **** static int8_t null_ptr_check(const struct bme280_dev *dev);
  83:bme280.c      **** 
  84:bme280.c      **** /*!
  85:bme280.c      ****  * @brief This internal API interleaves the register address between the
  86:bme280.c      ****  * register data buffer for burst write operation.
  87:bme280.c      ****  *
  88:bme280.c      ****  * @param[in] reg_addr : Contains the register address array.
ARM GAS  C:\Users\simon\AppData\Local\Temp\cc07ySAM.s 			page 3


  89:bme280.c      ****  * @param[out] temp_buff : Contains the temporary buffer to store the
  90:bme280.c      ****  * register data and register address.
  91:bme280.c      ****  * @param[in] reg_data : Contains the register data to be written in the
  92:bme280.c      ****  * temporary buffer.
  93:bme280.c      ****  * @param[in] len : No of bytes of data to be written for burst write.
  94:bme280.c      ****  */
  95:bme280.c      **** static void interleave_reg_addr(const uint8_t *reg_addr, uint8_t *temp_buff, const uint8_t *reg_dat
  96:bme280.c      **** 
  97:bme280.c      **** /*!
  98:bme280.c      ****  * @brief This internal API reads the calibration data from the sensor, parse
  99:bme280.c      ****  * it and store in the device structure.
 100:bme280.c      ****  *
 101:bme280.c      ****  * @param[in] dev : Structure instance of bme280_dev.
 102:bme280.c      ****  *
 103:bme280.c      ****  * @return Result of API execution status
 104:bme280.c      ****  * @retval zero -> Success / +ve value -> Warning / -ve value -> Error
 105:bme280.c      ****  */
 106:bme280.c      **** static int8_t get_calib_data(struct bme280_dev *dev);
 107:bme280.c      **** 
 108:bme280.c      **** /*!
 109:bme280.c      ****  *  @brief This internal API is used to parse the temperature and
 110:bme280.c      ****  *  pressure calibration data and store it in the device structure.
 111:bme280.c      ****  *
 112:bme280.c      ****  *  @param[out] dev : Structure instance of bme280_dev to store the calib data.
 113:bme280.c      ****  *  @param[in] reg_data : Contains the calibration data to be parsed.
 114:bme280.c      ****  */
 115:bme280.c      **** static void parse_temp_press_calib_data(const uint8_t *reg_data, struct bme280_dev *dev);
 116:bme280.c      **** 
 117:bme280.c      **** /*!
 118:bme280.c      ****  *  @brief This internal API is used to parse the humidity calibration data
 119:bme280.c      ****  *  and store it in device structure.
 120:bme280.c      ****  *
 121:bme280.c      ****  *  @param[out] dev : Structure instance of bme280_dev to store the calib data.
 122:bme280.c      ****  *  @param[in] reg_data : Contains calibration data to be parsed.
 123:bme280.c      ****  */
 124:bme280.c      **** static void parse_humidity_calib_data(const uint8_t *reg_data, struct bme280_dev *dev);
 125:bme280.c      **** 
 126:bme280.c      **** #ifdef BME280_FLOAT_ENABLE
 127:bme280.c      **** 
 128:bme280.c      **** /*!
 129:bme280.c      ****  * @brief This internal API is used to compensate the raw pressure data and
 130:bme280.c      ****  * return the compensated pressure data in double data type.
 131:bme280.c      ****  *
 132:bme280.c      ****  * @param[in] uncomp_data : Contains the uncompensated pressure data.
 133:bme280.c      ****  * @param[in] calib_data : Pointer to the calibration data structure.
 134:bme280.c      ****  *
 135:bme280.c      ****  * @return Compensated pressure data.
 136:bme280.c      ****  * @retval Compensated pressure data in double.
 137:bme280.c      ****  */
 138:bme280.c      **** static double compensate_pressure(const struct bme280_uncomp_data *uncomp_data,
 139:bme280.c      ****                                   const struct bme280_calib_data *calib_data);
 140:bme280.c      **** 
 141:bme280.c      **** /*!
 142:bme280.c      ****  * @brief This internal API is used to compensate the raw humidity data and
 143:bme280.c      ****  * return the compensated humidity data in double data type.
 144:bme280.c      ****  *
 145:bme280.c      ****  * @param[in] uncomp_data : Contains the uncompensated humidity data.
ARM GAS  C:\Users\simon\AppData\Local\Temp\cc07ySAM.s 			page 4


 146:bme280.c      ****  * @param[in] calib_data : Pointer to the calibration data structure.
 147:bme280.c      ****  *
 148:bme280.c      ****  * @return Compensated humidity data.
 149:bme280.c      ****  * @retval Compensated humidity data in double.
 150:bme280.c      ****  */
 151:bme280.c      **** static double compensate_humidity(const struct bme280_uncomp_data *uncomp_data,
 152:bme280.c      ****                                   const struct bme280_calib_data *calib_data);
 153:bme280.c      **** 
 154:bme280.c      **** /*!
 155:bme280.c      ****  * @brief This internal API is used to compensate the raw temperature data and
 156:bme280.c      ****  * return the compensated temperature data in double data type.
 157:bme280.c      ****  *
 158:bme280.c      ****  * @param[in] uncomp_data : Contains the uncompensated temperature data.
 159:bme280.c      ****  * @param[in] calib_data : Pointer to calibration data structure.
 160:bme280.c      ****  *
 161:bme280.c      ****  * @return Compensated temperature data.
 162:bme280.c      ****  * @retval Compensated temperature data in double.
 163:bme280.c      ****  */
 164:bme280.c      **** static double compensate_temperature(const struct bme280_uncomp_data *uncomp_data,
 165:bme280.c      ****                                      struct bme280_calib_data *calib_data);
 166:bme280.c      **** 
 167:bme280.c      **** #else
 168:bme280.c      **** 
 169:bme280.c      **** /*!
 170:bme280.c      ****  * @brief This internal API is used to compensate the raw temperature data and
 171:bme280.c      ****  * return the compensated temperature data in integer data type.
 172:bme280.c      ****  *
 173:bme280.c      ****  * @param[in] uncomp_data : Contains the uncompensated temperature data.
 174:bme280.c      ****  * @param[in] calib_data : Pointer to calibration data structure.
 175:bme280.c      ****  *
 176:bme280.c      ****  * @return Compensated temperature data.
 177:bme280.c      ****  * @retval Compensated temperature data in integer.
 178:bme280.c      ****  */
 179:bme280.c      **** static int32_t compensate_temperature(const struct bme280_uncomp_data *uncomp_data,
 180:bme280.c      ****                                       struct bme280_calib_data *calib_data);
 181:bme280.c      **** 
 182:bme280.c      **** /*!
 183:bme280.c      ****  * @brief This internal API is used to compensate the raw pressure data and
 184:bme280.c      ****  * return the compensated pressure data in integer data type.
 185:bme280.c      ****  *
 186:bme280.c      ****  * @param[in] uncomp_data : Contains the uncompensated pressure data.
 187:bme280.c      ****  * @param[in] calib_data : Pointer to the calibration data structure.
 188:bme280.c      ****  *
 189:bme280.c      ****  * @return Compensated pressure data.
 190:bme280.c      ****  * @retval Compensated pressure data in integer.
 191:bme280.c      ****  */
 192:bme280.c      **** static uint32_t compensate_pressure(const struct bme280_uncomp_data *uncomp_data,
 193:bme280.c      ****                                     const struct bme280_calib_data *calib_data);
 194:bme280.c      **** 
 195:bme280.c      **** /*!
 196:bme280.c      ****  * @brief This internal API is used to compensate the raw humidity data and
 197:bme280.c      ****  * return the compensated humidity data in integer data type.
 198:bme280.c      ****  *
 199:bme280.c      ****  * @param[in] uncomp_data : Contains the uncompensated humidity data.
 200:bme280.c      ****  * @param[in] calib_data : Pointer to the calibration data structure.
 201:bme280.c      ****  *
 202:bme280.c      ****  * @return Compensated humidity data.
ARM GAS  C:\Users\simon\AppData\Local\Temp\cc07ySAM.s 			page 5


 203:bme280.c      ****  * @retval Compensated humidity data in integer.
 204:bme280.c      ****  */
 205:bme280.c      **** static uint32_t compensate_humidity(const struct bme280_uncomp_data *uncomp_data,
 206:bme280.c      ****                                     const struct bme280_calib_data *calib_data);
 207:bme280.c      **** 
 208:bme280.c      **** #endif
 209:bme280.c      **** 
 210:bme280.c      **** /*!
 211:bme280.c      ****  * @brief This internal API is used to identify the settings which the user
 212:bme280.c      ****  * wants to modify in the sensor.
 213:bme280.c      ****  *
 214:bme280.c      ****  * @param[in] sub_settings : Contains the settings subset to identify particular
 215:bme280.c      ****  * group of settings which the user is interested to change.
 216:bme280.c      ****  * @param[in] desired_settings : Contains the user specified settings.
 217:bme280.c      ****  *
 218:bme280.c      ****  * @return Indicates whether user is interested to modify the settings which
 219:bme280.c      ****  * are related to sub_settings.
 220:bme280.c      ****  * @retval True -> User wants to modify this group of settings
 221:bme280.c      ****  * @retval False -> User does not want to modify this group of settings
 222:bme280.c      ****  */
 223:bme280.c      **** static uint8_t are_settings_changed(uint8_t sub_settings, uint8_t desired_settings);
 224:bme280.c      **** 
 225:bme280.c      **** /*!
 226:bme280.c      ****  * @brief This API sets the humidity oversampling settings of the sensor.
 227:bme280.c      ****  *
 228:bme280.c      ****  * @param[in] dev : Structure instance of bme280_dev.
 229:bme280.c      ****  *
 230:bme280.c      ****  * @return Result of API execution status
 231:bme280.c      ****  * @retval zero -> Success / +ve value -> Warning / -ve value -> Error
 232:bme280.c      ****  */
 233:bme280.c      **** static int8_t set_osr_humidity_settings(const struct bme280_settings *settings, const struct bme280
 234:bme280.c      **** 
 235:bme280.c      **** /*!
 236:bme280.c      ****  * @brief This internal API sets the oversampling settings for pressure,
 237:bme280.c      ****  * temperature and humidity in the sensor.
 238:bme280.c      ****  *
 239:bme280.c      ****  * @param[in] desired_settings : Variable used to select the settings which
 240:bme280.c      ****  * are to be set.
 241:bme280.c      ****  * @param[in] dev : Structure instance of bme280_dev.
 242:bme280.c      ****  *
 243:bme280.c      ****  * @return Result of API execution status
 244:bme280.c      ****  * @retval zero -> Success / +ve value -> Warning / -ve value -> Error
 245:bme280.c      ****  */
 246:bme280.c      **** static int8_t set_osr_settings(uint8_t desired_settings,
 247:bme280.c      ****                                const struct bme280_settings *settings,
 248:bme280.c      ****                                const struct bme280_dev *dev);
 249:bme280.c      **** 
 250:bme280.c      **** /*!
 251:bme280.c      ****  * @brief This API sets the pressure and/or temperature oversampling settings
 252:bme280.c      ****  * in the sensor according to the settings selected by the user.
 253:bme280.c      ****  *
 254:bme280.c      ****  * @param[in] dev : Structure instance of bme280_dev.
 255:bme280.c      ****  * @param[in] desired_settings: variable to select the pressure and/or
 256:bme280.c      ****  * temperature oversampling settings.
 257:bme280.c      ****  *
 258:bme280.c      ****  * @return Result of API execution status
 259:bme280.c      ****  * @retval zero -> Success / +ve value -> Warning / -ve value -> Error
ARM GAS  C:\Users\simon\AppData\Local\Temp\cc07ySAM.s 			page 6


 260:bme280.c      ****  */
 261:bme280.c      **** static int8_t set_osr_press_temp_settings(uint8_t desired_settings,
 262:bme280.c      ****                                           const struct bme280_settings *settings,
 263:bme280.c      ****                                           const struct bme280_dev *dev);
 264:bme280.c      **** 
 265:bme280.c      **** /*!
 266:bme280.c      ****  * @brief This internal API fills the pressure oversampling settings provided by
 267:bme280.c      ****  * the user in the data buffer so as to write in the sensor.
 268:bme280.c      ****  *
 269:bme280.c      ****  * @param[in] dev : Structure instance of bme280_dev.
 270:bme280.c      ****  * @param[out] reg_data : Variable which is filled according to the pressure
 271:bme280.c      ****  * oversampling data provided by the user.
 272:bme280.c      ****  */
 273:bme280.c      **** static void fill_osr_press_settings(uint8_t *reg_data, const struct bme280_settings *settings);
 274:bme280.c      **** 
 275:bme280.c      **** /*!
 276:bme280.c      ****  * @brief This internal API fills the temperature oversampling settings provided
 277:bme280.c      ****  * by the user in the data buffer so as to write in the sensor.
 278:bme280.c      ****  *
 279:bme280.c      ****  * @param[in] dev : Structure instance of bme280_dev.
 280:bme280.c      ****  * @param[out] reg_data : Variable which is filled according to the temperature
 281:bme280.c      ****  * oversampling data provided by the user.
 282:bme280.c      ****  */
 283:bme280.c      **** static void fill_osr_temp_settings(uint8_t *reg_data, const struct bme280_settings *settings);
 284:bme280.c      **** 
 285:bme280.c      **** /*!
 286:bme280.c      ****  * @brief This internal API sets the filter and/or standby duration settings
 287:bme280.c      ****  * in the sensor according to the settings selected by the user.
 288:bme280.c      ****  *
 289:bme280.c      ****  * @param[in] dev : Structure instance of bme280_dev.
 290:bme280.c      ****  * @param[in] desired_settings : variable to select the filter and/or
 291:bme280.c      ****  * standby duration settings.
 292:bme280.c      ****  *
 293:bme280.c      ****  * @return Result of API execution status
 294:bme280.c      ****  * @retval zero -> Success / +ve value -> Warning / -ve value -> Error
 295:bme280.c      ****  */
 296:bme280.c      **** static int8_t set_filter_standby_settings(uint8_t desired_settings,
 297:bme280.c      ****                                           const struct bme280_settings *settings,
 298:bme280.c      ****                                           const struct bme280_dev *dev);
 299:bme280.c      **** 
 300:bme280.c      **** /*!
 301:bme280.c      ****  * @brief This internal API fills the filter settings provided by the user
 302:bme280.c      ****  * in the data buffer so as to write in the sensor.
 303:bme280.c      ****  *
 304:bme280.c      ****  * @param[in] dev : Structure instance of bme280_dev.
 305:bme280.c      ****  * @param[out] reg_data : Variable which is filled according to the filter
 306:bme280.c      ****  * settings data provided by the user.
 307:bme280.c      ****  */
 308:bme280.c      **** static void fill_filter_settings(uint8_t *reg_data, const struct bme280_settings *settings);
 309:bme280.c      **** 
 310:bme280.c      **** /*!
 311:bme280.c      ****  * @brief This internal API fills the standby duration settings provided by the
 312:bme280.c      ****  * user in the data buffer so as to write in the sensor.
 313:bme280.c      ****  *
 314:bme280.c      ****  * @param[in] dev : Structure instance of bme280_dev.
 315:bme280.c      ****  * @param[out] reg_data : Variable which is filled according to the standby
 316:bme280.c      ****  * settings data provided by the user.
ARM GAS  C:\Users\simon\AppData\Local\Temp\cc07ySAM.s 			page 7


 317:bme280.c      ****  */
 318:bme280.c      **** static void fill_standby_settings(uint8_t *reg_data, const struct bme280_settings *settings);
 319:bme280.c      **** 
 320:bme280.c      **** /*!
 321:bme280.c      ****  * @brief This internal API parse the oversampling(pressure, temperature
 322:bme280.c      ****  * and humidity), filter and standby duration settings and store in the
 323:bme280.c      ****  * device structure.
 324:bme280.c      ****  *
 325:bme280.c      ****  * @param[out] dev : Structure instance of bme280_dev.
 326:bme280.c      ****  * @param[in] reg_data : Register data to be parsed.
 327:bme280.c      ****  */
 328:bme280.c      **** static void parse_device_settings(const uint8_t *reg_data, struct bme280_settings *settings);
 329:bme280.c      **** 
 330:bme280.c      **** /*!
 331:bme280.c      ****  * @brief This internal API reloads the already existing device settings in the
 332:bme280.c      ****  * sensor after soft reset.
 333:bme280.c      ****  *
 334:bme280.c      ****  * @param[in] dev : Structure instance of bme280_dev.
 335:bme280.c      ****  * @param[in] settings : Pointer variable which contains the settings to
 336:bme280.c      ****  * be set in the sensor.
 337:bme280.c      ****  *
 338:bme280.c      ****  * @return Result of API execution status
 339:bme280.c      ****  * @retval zero -> Success / +ve value -> Warning / -ve value -> Error
 340:bme280.c      ****  */
 341:bme280.c      **** static int8_t reload_device_settings(const struct bme280_settings *settings, const struct bme280_de
 342:bme280.c      **** 
 343:bme280.c      **** /****************** Global Function Definitions *******************************/
 344:bme280.c      **** 
 345:bme280.c      **** /*!
 346:bme280.c      ****  *  @brief This API is the entry point.
 347:bme280.c      ****  *  It reads the chip-id and calibration data from the sensor.
 348:bme280.c      ****  */
 349:bme280.c      **** int8_t bme280_init(struct bme280_dev *dev)
 350:bme280.c      **** {
 351:bme280.c      ****     int8_t rslt;
 352:bme280.c      **** 
 353:bme280.c      ****     /* chip id read try count */
 354:bme280.c      ****     uint8_t try_count = 5;
 355:bme280.c      ****     uint8_t chip_id = 0;
 356:bme280.c      **** 
 357:bme280.c      ****     /* Check for null pointer in the device structure*/
 358:bme280.c      ****     rslt = null_ptr_check(dev);
 359:bme280.c      **** 
 360:bme280.c      ****     /* Proceed if null check is fine */
 361:bme280.c      ****     if (rslt == BME280_OK)
 362:bme280.c      ****     {
 363:bme280.c      ****         while (try_count)
 364:bme280.c      ****         {
 365:bme280.c      ****             /* Read the chip-id of bme280 sensor */
 366:bme280.c      ****             rslt = bme280_get_regs(BME280_CHIP_ID_ADDR, &chip_id, 1, dev);
 367:bme280.c      **** 
 368:bme280.c      ****             /* Check for chip id validity */
 369:bme280.c      ****             if ((rslt == BME280_OK) && (chip_id == BME280_CHIP_ID))
 370:bme280.c      ****             {
 371:bme280.c      ****                 dev->chip_id = chip_id;
 372:bme280.c      **** 
 373:bme280.c      ****                 /* Reset the sensor */
ARM GAS  C:\Users\simon\AppData\Local\Temp\cc07ySAM.s 			page 8


 374:bme280.c      ****                 rslt = bme280_soft_reset(dev);
 375:bme280.c      ****                 if (rslt == BME280_OK)
 376:bme280.c      ****                 {
 377:bme280.c      ****                     /* Read the calibration data */
 378:bme280.c      ****                     rslt = get_calib_data(dev);
 379:bme280.c      ****                 }
 380:bme280.c      ****                 break;
 381:bme280.c      ****             }
 382:bme280.c      **** 
 383:bme280.c      ****             /* Wait for 1 ms */
 384:bme280.c      ****             dev->delay_ms(1);
 385:bme280.c      ****             --try_count;
 386:bme280.c      ****         }
 387:bme280.c      **** 
 388:bme280.c      ****         /* Chip id check failed */
 389:bme280.c      ****         if (!try_count)
 390:bme280.c      ****         {
 391:bme280.c      ****             rslt = BME280_E_DEV_NOT_FOUND;
 392:bme280.c      ****         }
 393:bme280.c      ****     }
 394:bme280.c      **** 
 395:bme280.c      ****     return rslt;
 396:bme280.c      **** }
 397:bme280.c      **** 
 398:bme280.c      **** /*!
 399:bme280.c      ****  * @brief This API reads the data from the given register address of the sensor.
 400:bme280.c      ****  */
 401:bme280.c      **** int8_t bme280_get_regs(uint8_t reg_addr, uint8_t *reg_data, uint16_t len, const struct bme280_dev *
 402:bme280.c      **** {
 403:bme280.c      ****     int8_t rslt;
 404:bme280.c      **** 
 405:bme280.c      ****     /* Check for null pointer in the device structure*/
 406:bme280.c      ****     rslt = null_ptr_check(dev);
 407:bme280.c      **** 
 408:bme280.c      ****     /* Proceed if null check is fine */
 409:bme280.c      ****     if (rslt == BME280_OK)
 410:bme280.c      ****     {
 411:bme280.c      ****         /* If interface selected is SPI */
 412:bme280.c      ****         if (dev->intf != BME280_I2C_INTF)
 413:bme280.c      ****         {
 414:bme280.c      ****             reg_addr = reg_addr | 0x80;
 415:bme280.c      ****         }
 416:bme280.c      **** 
 417:bme280.c      ****         /* Read the data  */
 418:bme280.c      ****         rslt = dev->read(dev->dev_id, reg_addr, reg_data, len);
 419:bme280.c      **** 
 420:bme280.c      ****         /* Check for communication error */
 421:bme280.c      ****         if (rslt != BME280_OK)
 422:bme280.c      ****         {
 423:bme280.c      ****             rslt = BME280_E_COMM_FAIL;
 424:bme280.c      ****         }
 425:bme280.c      ****     }
 426:bme280.c      **** 
 427:bme280.c      ****     return rslt;
 428:bme280.c      **** }
 429:bme280.c      **** 
 430:bme280.c      **** /*!
ARM GAS  C:\Users\simon\AppData\Local\Temp\cc07ySAM.s 			page 9


 431:bme280.c      ****  * @brief This API writes the given data to the register address
 432:bme280.c      ****  * of the sensor.
 433:bme280.c      ****  */
 434:bme280.c      **** int8_t bme280_set_regs(uint8_t *reg_addr, const uint8_t *reg_data, uint8_t len, const struct bme280
 435:bme280.c      **** {
 436:bme280.c      ****     int8_t rslt;
 437:bme280.c      ****     uint8_t temp_buff[20]; /* Typically not to write more than 10 registers */
 438:bme280.c      **** 
 439:bme280.c      ****     if (len > 10)
 440:bme280.c      ****     {
 441:bme280.c      ****         len = 10;
 442:bme280.c      ****     }
 443:bme280.c      ****     uint16_t temp_len;
 444:bme280.c      ****     uint8_t reg_addr_cnt;
 445:bme280.c      **** 
 446:bme280.c      ****     /* Check for null pointer in the device structure*/
 447:bme280.c      ****     rslt = null_ptr_check(dev);
 448:bme280.c      **** 
 449:bme280.c      ****     /* Check for arguments validity */
 450:bme280.c      ****     if ((rslt == BME280_OK) && (reg_addr != NULL) && (reg_data != NULL))
 451:bme280.c      ****     {
 452:bme280.c      ****         if (len != 0)
 453:bme280.c      ****         {
 454:bme280.c      ****             temp_buff[0] = reg_data[0];
 455:bme280.c      **** 
 456:bme280.c      ****             /* If interface selected is SPI */
 457:bme280.c      ****             if (dev->intf != BME280_I2C_INTF)
 458:bme280.c      ****             {
 459:bme280.c      ****                 for (reg_addr_cnt = 0; reg_addr_cnt < len; reg_addr_cnt++)
 460:bme280.c      ****                 {
 461:bme280.c      ****                     reg_addr[reg_addr_cnt] = reg_addr[reg_addr_cnt] & 0x7F;
 462:bme280.c      ****                 }
 463:bme280.c      ****             }
 464:bme280.c      **** 
 465:bme280.c      ****             /* Burst write mode */
 466:bme280.c      ****             if (len > 1)
 467:bme280.c      ****             {
 468:bme280.c      ****                 /* Interleave register address w.r.t data for
 469:bme280.c      ****                  * burst write
 470:bme280.c      ****                  */
 471:bme280.c      ****                 interleave_reg_addr(reg_addr, temp_buff, reg_data, len);
 472:bme280.c      ****                 temp_len = ((len * 2) - 1);
 473:bme280.c      ****             }
 474:bme280.c      ****             else
 475:bme280.c      ****             {
 476:bme280.c      ****                 temp_len = len;
 477:bme280.c      ****             }
 478:bme280.c      ****             rslt = dev->write(dev->dev_id, reg_addr[0], temp_buff, temp_len);
 479:bme280.c      **** 
 480:bme280.c      ****             /* Check for communication error */
 481:bme280.c      ****             if (rslt != BME280_OK)
 482:bme280.c      ****             {
 483:bme280.c      ****                 rslt = BME280_E_COMM_FAIL;
 484:bme280.c      ****             }
 485:bme280.c      ****         }
 486:bme280.c      ****         else
 487:bme280.c      ****         {
ARM GAS  C:\Users\simon\AppData\Local\Temp\cc07ySAM.s 			page 10


 488:bme280.c      ****             rslt = BME280_E_INVALID_LEN;
 489:bme280.c      ****         }
 490:bme280.c      ****     }
 491:bme280.c      ****     else
 492:bme280.c      ****     {
 493:bme280.c      ****         rslt = BME280_E_NULL_PTR;
 494:bme280.c      ****     }
 495:bme280.c      **** 
 496:bme280.c      ****     return rslt;
 497:bme280.c      **** }
 498:bme280.c      **** 
 499:bme280.c      **** /*!
 500:bme280.c      ****  * @brief This API sets the oversampling, filter and standby duration
 501:bme280.c      ****  * (normal mode) settings in the sensor.
 502:bme280.c      ****  */
 503:bme280.c      **** int8_t bme280_set_sensor_settings(uint8_t desired_settings, const struct bme280_dev *dev)
 504:bme280.c      **** {
 505:bme280.c      ****     int8_t rslt;
 506:bme280.c      ****     uint8_t sensor_mode;
 507:bme280.c      **** 
 508:bme280.c      ****     /* Check for null pointer in the device structure*/
 509:bme280.c      ****     rslt = null_ptr_check(dev);
 510:bme280.c      **** 
 511:bme280.c      ****     /* Proceed if null check is fine */
 512:bme280.c      ****     if (rslt == BME280_OK)
 513:bme280.c      ****     {
 514:bme280.c      ****         rslt = bme280_get_sensor_mode(&sensor_mode, dev);
 515:bme280.c      ****         if ((rslt == BME280_OK) && (sensor_mode != BME280_SLEEP_MODE))
 516:bme280.c      ****         {
 517:bme280.c      ****             rslt = put_device_to_sleep(dev);
 518:bme280.c      ****         }
 519:bme280.c      ****         if (rslt == BME280_OK)
 520:bme280.c      ****         {
 521:bme280.c      ****             /* Check if user wants to change oversampling
 522:bme280.c      ****              * settings
 523:bme280.c      ****              */
 524:bme280.c      ****             if (are_settings_changed(OVERSAMPLING_SETTINGS, desired_settings))
 525:bme280.c      ****             {
 526:bme280.c      ****                 rslt = set_osr_settings(desired_settings, &dev->settings, dev);
 527:bme280.c      ****             }
 528:bme280.c      **** 
 529:bme280.c      ****             /* Check if user wants to change filter and/or
 530:bme280.c      ****              * standby settings
 531:bme280.c      ****              */
 532:bme280.c      ****             if ((rslt == BME280_OK) && are_settings_changed(FILTER_STANDBY_SETTINGS, desired_settin
 533:bme280.c      ****             {
 534:bme280.c      ****                 rslt = set_filter_standby_settings(desired_settings, &dev->settings, dev);
 535:bme280.c      ****             }
 536:bme280.c      ****         }
 537:bme280.c      ****     }
 538:bme280.c      **** 
 539:bme280.c      ****     return rslt;
 540:bme280.c      **** }
 541:bme280.c      **** 
 542:bme280.c      **** /*!
 543:bme280.c      ****  * @brief This API gets the oversampling, filter and standby duration
 544:bme280.c      ****  * (normal mode) settings from the sensor.
ARM GAS  C:\Users\simon\AppData\Local\Temp\cc07ySAM.s 			page 11


 545:bme280.c      ****  */
 546:bme280.c      **** int8_t bme280_get_sensor_settings(struct bme280_dev *dev)
 547:bme280.c      **** {
 548:bme280.c      ****     int8_t rslt;
 549:bme280.c      ****     uint8_t reg_data[4];
 550:bme280.c      **** 
 551:bme280.c      ****     /* Check for null pointer in the device structure*/
 552:bme280.c      ****     rslt = null_ptr_check(dev);
 553:bme280.c      **** 
 554:bme280.c      ****     /* Proceed if null check is fine */
 555:bme280.c      ****     if (rslt == BME280_OK)
 556:bme280.c      ****     {
 557:bme280.c      ****         rslt = bme280_get_regs(BME280_CTRL_HUM_ADDR, reg_data, 4, dev);
 558:bme280.c      ****         if (rslt == BME280_OK)
 559:bme280.c      ****         {
 560:bme280.c      ****             parse_device_settings(reg_data, &dev->settings);
 561:bme280.c      ****         }
 562:bme280.c      ****     }
 563:bme280.c      **** 
 564:bme280.c      ****     return rslt;
 565:bme280.c      **** }
 566:bme280.c      **** 
 567:bme280.c      **** /*!
 568:bme280.c      ****  * @brief This API sets the power mode of the sensor.
 569:bme280.c      ****  */
 570:bme280.c      **** int8_t bme280_set_sensor_mode(uint8_t sensor_mode, const struct bme280_dev *dev)
 571:bme280.c      **** {
 572:bme280.c      ****     int8_t rslt;
 573:bme280.c      ****     uint8_t last_set_mode;
 574:bme280.c      **** 
 575:bme280.c      ****     /* Check for null pointer in the device structure*/
 576:bme280.c      ****     rslt = null_ptr_check(dev);
 577:bme280.c      ****     if (rslt == BME280_OK)
 578:bme280.c      ****     {
 579:bme280.c      ****         rslt = bme280_get_sensor_mode(&last_set_mode, dev);
 580:bme280.c      **** 
 581:bme280.c      ****         /* If the sensor is not in sleep mode put the device to sleep
 582:bme280.c      ****          * mode
 583:bme280.c      ****          */
 584:bme280.c      ****         if ((rslt == BME280_OK) && (last_set_mode != BME280_SLEEP_MODE))
 585:bme280.c      ****         {
 586:bme280.c      ****             rslt = put_device_to_sleep(dev);
 587:bme280.c      ****         }
 588:bme280.c      **** 
 589:bme280.c      ****         /* Set the power mode */
 590:bme280.c      ****         if (rslt == BME280_OK)
 591:bme280.c      ****         {
 592:bme280.c      ****             rslt = write_power_mode(sensor_mode, dev);
 593:bme280.c      ****         }
 594:bme280.c      ****     }
 595:bme280.c      **** 
 596:bme280.c      ****     return rslt;
 597:bme280.c      **** }
 598:bme280.c      **** 
 599:bme280.c      **** /*!
 600:bme280.c      ****  * @brief This API gets the power mode of the sensor.
 601:bme280.c      ****  */
ARM GAS  C:\Users\simon\AppData\Local\Temp\cc07ySAM.s 			page 12


 602:bme280.c      **** int8_t bme280_get_sensor_mode(uint8_t *sensor_mode, const struct bme280_dev *dev)
 603:bme280.c      **** {
 604:bme280.c      ****     int8_t rslt;
 605:bme280.c      **** 
 606:bme280.c      ****     /* Check for null pointer in the device structure*/
 607:bme280.c      ****     rslt = null_ptr_check(dev);
 608:bme280.c      ****     if (rslt == BME280_OK)
 609:bme280.c      ****     {
 610:bme280.c      ****         /* Read the power mode register */
 611:bme280.c      ****         rslt = bme280_get_regs(BME280_PWR_CTRL_ADDR, sensor_mode, 1, dev);
 612:bme280.c      **** 
 613:bme280.c      ****         /* Assign the power mode in the device structure */
 614:bme280.c      ****         *sensor_mode = BME280_GET_BITS_POS_0(*sensor_mode, BME280_SENSOR_MODE);
 615:bme280.c      ****     }
 616:bme280.c      **** 
 617:bme280.c      ****     return rslt;
 618:bme280.c      **** }
 619:bme280.c      **** 
 620:bme280.c      **** /*!
 621:bme280.c      ****  * @brief This API performs the soft reset of the sensor.
 622:bme280.c      ****  */
 623:bme280.c      **** int8_t bme280_soft_reset(const struct bme280_dev *dev)
 624:bme280.c      **** {
 625:bme280.c      ****     int8_t rslt;
 626:bme280.c      ****     uint8_t reg_addr = BME280_RESET_ADDR;
 627:bme280.c      ****     uint8_t status_reg = 0;
 628:bme280.c      ****     uint8_t try_run = 5;
 629:bme280.c      **** 
 630:bme280.c      ****     /* 0xB6 is the soft reset command */
 631:bme280.c      ****     uint8_t soft_rst_cmd = BME280_SOFT_RESET_COMMAND;
 632:bme280.c      **** 
 633:bme280.c      ****     /* Check for null pointer in the device structure*/
 634:bme280.c      ****     rslt = null_ptr_check(dev);
 635:bme280.c      **** 
 636:bme280.c      ****     /* Proceed if null check is fine */
 637:bme280.c      ****     if (rslt == BME280_OK)
 638:bme280.c      ****     {
 639:bme280.c      ****         /* Write the soft reset command in the sensor */
 640:bme280.c      ****         rslt = bme280_set_regs(&reg_addr, &soft_rst_cmd, 1, dev);
 641:bme280.c      **** 
 642:bme280.c      ****         if (rslt == BME280_OK)
 643:bme280.c      ****         {
 644:bme280.c      ****             /* If NVM not copied yet, Wait for NVM to copy */
 645:bme280.c      ****             do
 646:bme280.c      ****             {
 647:bme280.c      ****                 /* As per data sheet - Table 1, startup time is 2 ms. */
 648:bme280.c      ****                 dev->delay_ms(2);
 649:bme280.c      ****                 rslt = bme280_get_regs(BME280_STATUS_REG_ADDR, &status_reg, 1, dev);
 650:bme280.c      ****             } while ((rslt == BME280_OK) && (try_run--) && (status_reg & BME280_STATUS_IM_UPDATE));
 651:bme280.c      **** 
 652:bme280.c      ****             if (status_reg & BME280_STATUS_IM_UPDATE)
 653:bme280.c      ****             {
 654:bme280.c      ****                 rslt = BME280_E_NVM_COPY_FAILED;
 655:bme280.c      ****             }
 656:bme280.c      **** 
 657:bme280.c      ****         }
 658:bme280.c      ****     }
ARM GAS  C:\Users\simon\AppData\Local\Temp\cc07ySAM.s 			page 13


 659:bme280.c      **** 
 660:bme280.c      ****     return rslt;
 661:bme280.c      **** }
 662:bme280.c      **** 
 663:bme280.c      **** /*!
 664:bme280.c      ****  * @brief This API reads the pressure, temperature and humidity data from the
 665:bme280.c      ****  * sensor, compensates the data and store it in the bme280_data structure
 666:bme280.c      ****  * instance passed by the user.
 667:bme280.c      ****  */
 668:bme280.c      **** int8_t bme280_get_sensor_data(uint8_t sensor_comp, struct bme280_data *comp_data, struct bme280_dev
 669:bme280.c      **** {
 670:bme280.c      ****     int8_t rslt;
 671:bme280.c      **** 
 672:bme280.c      ****     /* Array to store the pressure, temperature and humidity data read from
 673:bme280.c      ****      * the sensor
 674:bme280.c      ****      */
 675:bme280.c      ****     uint8_t reg_data[BME280_P_T_H_DATA_LEN] = { 0 };
 676:bme280.c      ****     struct bme280_uncomp_data uncomp_data = { 0, 0, 0 };
 677:bme280.c      **** 
 678:bme280.c      ****     /* Check for null pointer in the device structure*/
 679:bme280.c      ****     rslt = null_ptr_check(dev);
 680:bme280.c      ****     if ((rslt == BME280_OK) && (comp_data != NULL))
 681:bme280.c      ****     {
 682:bme280.c      ****         /* Read the pressure and temperature data from the sensor */
 683:bme280.c      ****         rslt = bme280_get_regs(BME280_DATA_ADDR, reg_data, BME280_P_T_H_DATA_LEN, dev);
 684:bme280.c      ****         if (rslt == BME280_OK)
 685:bme280.c      ****         {
 686:bme280.c      ****             /* Parse the read data from the sensor */
 687:bme280.c      ****             bme280_parse_sensor_data(reg_data, &uncomp_data);
 688:bme280.c      **** 
 689:bme280.c      ****             /* Compensate the pressure and/or temperature and/or
 690:bme280.c      ****              * humidity data from the sensor
 691:bme280.c      ****              */
 692:bme280.c      ****             rslt = bme280_compensate_data(sensor_comp, &uncomp_data, comp_data, &dev->calib_data);
 693:bme280.c      ****         }
 694:bme280.c      ****     }
 695:bme280.c      ****     else
 696:bme280.c      ****     {
 697:bme280.c      ****         rslt = BME280_E_NULL_PTR;
 698:bme280.c      ****     }
 699:bme280.c      **** 
 700:bme280.c      ****     return rslt;
 701:bme280.c      **** }
 702:bme280.c      **** 
 703:bme280.c      **** /*!
 704:bme280.c      ****  *  @brief This API is used to parse the pressure, temperature and
 705:bme280.c      ****  *  humidity data and store it in the bme280_uncomp_data structure instance.
 706:bme280.c      ****  */
 707:bme280.c      **** void bme280_parse_sensor_data(const uint8_t *reg_data, struct bme280_uncomp_data *uncomp_data)
 708:bme280.c      **** {
 709:bme280.c      ****     /* Variables to store the sensor data */
 710:bme280.c      ****     uint32_t data_xlsb;
 711:bme280.c      ****     uint32_t data_lsb;
 712:bme280.c      ****     uint32_t data_msb;
 713:bme280.c      **** 
 714:bme280.c      ****     /* Store the parsed register values for pressure data */
 715:bme280.c      ****     data_msb = (uint32_t)reg_data[0] << 12;
ARM GAS  C:\Users\simon\AppData\Local\Temp\cc07ySAM.s 			page 14


 716:bme280.c      ****     data_lsb = (uint32_t)reg_data[1] << 4;
 717:bme280.c      ****     data_xlsb = (uint32_t)reg_data[2] >> 4;
 718:bme280.c      ****     uncomp_data->pressure = data_msb | data_lsb | data_xlsb;
 719:bme280.c      **** 
 720:bme280.c      ****     /* Store the parsed register values for temperature data */
 721:bme280.c      ****     data_msb = (uint32_t)reg_data[3] << 12;
 722:bme280.c      ****     data_lsb = (uint32_t)reg_data[4] << 4;
 723:bme280.c      ****     data_xlsb = (uint32_t)reg_data[5] >> 4;
 724:bme280.c      ****     uncomp_data->temperature = data_msb | data_lsb | data_xlsb;
 725:bme280.c      **** 
 726:bme280.c      ****     /* Store the parsed register values for humidity data */
 727:bme280.c      ****     data_msb = (uint32_t)reg_data[6] << 8;
 728:bme280.c      ****     data_lsb = (uint32_t)reg_data[7];
 729:bme280.c      ****     uncomp_data->humidity = data_msb | data_lsb;
 730:bme280.c      **** }
 731:bme280.c      **** 
 732:bme280.c      **** /*!
 733:bme280.c      ****  * @brief This API is used to compensate the pressure and/or
 734:bme280.c      ****  * temperature and/or humidity data according to the component selected
 735:bme280.c      ****  * by the user.
 736:bme280.c      ****  */
 737:bme280.c      **** int8_t bme280_compensate_data(uint8_t sensor_comp,
 738:bme280.c      ****                               const struct bme280_uncomp_data *uncomp_data,
 739:bme280.c      ****                               struct bme280_data *comp_data,
 740:bme280.c      ****                               struct bme280_calib_data *calib_data)
 741:bme280.c      **** {
 742:bme280.c      ****     int8_t rslt = BME280_OK;
 743:bme280.c      **** 
 744:bme280.c      ****     if ((uncomp_data != NULL) && (comp_data != NULL) && (calib_data != NULL))
 745:bme280.c      ****     {
 746:bme280.c      ****         /* Initialize to zero */
 747:bme280.c      ****         comp_data->temperature = 0;
 748:bme280.c      ****         comp_data->pressure = 0;
 749:bme280.c      ****         comp_data->humidity = 0;
 750:bme280.c      **** 
 751:bme280.c      ****         /* If pressure or temperature component is selected */
 752:bme280.c      ****         if (sensor_comp & (BME280_PRESS | BME280_TEMP | BME280_HUM))
 753:bme280.c      ****         {
 754:bme280.c      ****             /* Compensate the temperature data */
 755:bme280.c      ****             comp_data->temperature = compensate_temperature(uncomp_data, calib_data);
 756:bme280.c      ****         }
 757:bme280.c      ****         if (sensor_comp & BME280_PRESS)
 758:bme280.c      ****         {
 759:bme280.c      ****             /* Compensate the pressure data */
 760:bme280.c      ****             comp_data->pressure = compensate_pressure(uncomp_data, calib_data);
 761:bme280.c      ****         }
 762:bme280.c      ****         if (sensor_comp & BME280_HUM)
 763:bme280.c      ****         {
 764:bme280.c      ****             /* Compensate the humidity data */
 765:bme280.c      ****             comp_data->humidity = compensate_humidity(uncomp_data, calib_data);
 766:bme280.c      ****         }
 767:bme280.c      ****     }
 768:bme280.c      ****     else
 769:bme280.c      ****     {
 770:bme280.c      ****         rslt = BME280_E_NULL_PTR;
 771:bme280.c      ****     }
 772:bme280.c      **** 
ARM GAS  C:\Users\simon\AppData\Local\Temp\cc07ySAM.s 			page 15


 773:bme280.c      ****     return rslt;
 774:bme280.c      **** }
 775:bme280.c      **** 
 776:bme280.c      **** /*!
 777:bme280.c      ****  * @brief This API is used to calculate the maximum delay in milliseconds required for the
 778:bme280.c      ****  * temperature/pressure/humidity(which ever at enabled) measurement to complete.
 779:bme280.c      ****  */
 780:bme280.c      **** uint32_t bme280_cal_meas_delay(const struct bme280_settings *settings)
 781:bme280.c      **** {
 782:bme280.c      ****     uint32_t max_delay;
 783:bme280.c      ****     uint8_t temp_osr;
 784:bme280.c      ****     uint8_t pres_osr;
 785:bme280.c      ****     uint8_t hum_osr;
 786:bme280.c      **** 
 787:bme280.c      ****     /*Array to map OSR config register value to actual OSR */
 788:bme280.c      ****     uint8_t osr_sett_to_act_osr[] = { 0, 1, 2, 4, 8, 16 };
 789:bme280.c      **** 
 790:bme280.c      ****     /* Mapping osr settings to the actual osr values e.g. 0b101 -> osr X16  */
 791:bme280.c      ****     if (settings->osr_t <= 5)
 792:bme280.c      ****     {
 793:bme280.c      ****         temp_osr = osr_sett_to_act_osr[settings->osr_t];
 794:bme280.c      ****     }
 795:bme280.c      ****     else
 796:bme280.c      ****     {
 797:bme280.c      ****         temp_osr = 16;
 798:bme280.c      ****     }
 799:bme280.c      **** 
 800:bme280.c      ****     if (settings->osr_p <= 5)
 801:bme280.c      ****     {
 802:bme280.c      ****         pres_osr = osr_sett_to_act_osr[settings->osr_p];
 803:bme280.c      ****     }
 804:bme280.c      ****     else
 805:bme280.c      ****     {
 806:bme280.c      ****         pres_osr = 16;
 807:bme280.c      ****     }
 808:bme280.c      **** 
 809:bme280.c      ****     if (settings->osr_h <= 5)
 810:bme280.c      ****     {
 811:bme280.c      ****         hum_osr = osr_sett_to_act_osr[settings->osr_h];
 812:bme280.c      ****     }
 813:bme280.c      ****     else
 814:bme280.c      ****     {
 815:bme280.c      ****         hum_osr = 16;
 816:bme280.c      ****     }
 817:bme280.c      **** 
 818:bme280.c      ****     max_delay =
 819:bme280.c      ****         (uint32_t)((BME280_MEAS_OFFSET + (BME280_MEAS_DUR * temp_osr) +
 820:bme280.c      ****                     ((BME280_MEAS_DUR * pres_osr) + BME280_PRES_HUM_MEAS_OFFSET) +
 821:bme280.c      ****                     ((BME280_MEAS_DUR * hum_osr) + BME280_PRES_HUM_MEAS_OFFSET)) / BME280_MEAS_SCAL
 822:bme280.c      **** 
 823:bme280.c      ****     return max_delay;
 824:bme280.c      **** }
 825:bme280.c      **** 
 826:bme280.c      **** /*!
 827:bme280.c      ****  * @brief This internal API sets the oversampling settings for pressure,
 828:bme280.c      ****  * temperature and humidity in the sensor.
 829:bme280.c      ****  */
ARM GAS  C:\Users\simon\AppData\Local\Temp\cc07ySAM.s 			page 16


 830:bme280.c      **** static int8_t set_osr_settings(uint8_t desired_settings,
 831:bme280.c      ****                                const struct bme280_settings *settings,
 832:bme280.c      ****                                const struct bme280_dev *dev)
 833:bme280.c      **** {
 834:bme280.c      ****     int8_t rslt = BME280_W_INVALID_OSR_MACRO;
 835:bme280.c      **** 
 836:bme280.c      ****     if (desired_settings & BME280_OSR_HUM_SEL)
 837:bme280.c      ****     {
 838:bme280.c      ****         rslt = set_osr_humidity_settings(settings, dev);
 839:bme280.c      ****     }
 840:bme280.c      ****     if (desired_settings & (BME280_OSR_PRESS_SEL | BME280_OSR_TEMP_SEL))
 841:bme280.c      ****     {
 842:bme280.c      ****         rslt = set_osr_press_temp_settings(desired_settings, settings, dev);
 843:bme280.c      ****     }
 844:bme280.c      **** 
 845:bme280.c      ****     return rslt;
 846:bme280.c      **** }
 847:bme280.c      **** 
 848:bme280.c      **** /*!
 849:bme280.c      ****  * @brief This API sets the humidity oversampling settings of the sensor.
 850:bme280.c      ****  */
 851:bme280.c      **** static int8_t set_osr_humidity_settings(const struct bme280_settings *settings, const struct bme280
 852:bme280.c      **** {
 853:bme280.c      ****     int8_t rslt;
 854:bme280.c      ****     uint8_t ctrl_hum;
 855:bme280.c      ****     uint8_t ctrl_meas;
 856:bme280.c      ****     uint8_t reg_addr = BME280_CTRL_HUM_ADDR;
 857:bme280.c      **** 
 858:bme280.c      ****     ctrl_hum = settings->osr_h & BME280_CTRL_HUM_MSK;
 859:bme280.c      **** 
 860:bme280.c      ****     /* Write the humidity control value in the register */
 861:bme280.c      ****     rslt = bme280_set_regs(&reg_addr, &ctrl_hum, 1, dev);
 862:bme280.c      **** 
 863:bme280.c      ****     /* Humidity related changes will be only effective after a
 864:bme280.c      ****      * write operation to ctrl_meas register
 865:bme280.c      ****      */
 866:bme280.c      ****     if (rslt == BME280_OK)
 867:bme280.c      ****     {
 868:bme280.c      ****         reg_addr = BME280_CTRL_MEAS_ADDR;
 869:bme280.c      ****         rslt = bme280_get_regs(reg_addr, &ctrl_meas, 1, dev);
 870:bme280.c      ****         if (rslt == BME280_OK)
 871:bme280.c      ****         {
 872:bme280.c      ****             rslt = bme280_set_regs(&reg_addr, &ctrl_meas, 1, dev);
 873:bme280.c      ****         }
 874:bme280.c      ****     }
 875:bme280.c      **** 
 876:bme280.c      ****     return rslt;
 877:bme280.c      **** }
 878:bme280.c      **** 
 879:bme280.c      **** /*!
 880:bme280.c      ****  * @brief This API sets the pressure and/or temperature oversampling settings
 881:bme280.c      ****  * in the sensor according to the settings selected by the user.
 882:bme280.c      ****  */
 883:bme280.c      **** static int8_t set_osr_press_temp_settings(uint8_t desired_settings,
 884:bme280.c      ****                                           const struct bme280_settings *settings,
 885:bme280.c      ****                                           const struct bme280_dev *dev)
 886:bme280.c      **** {
ARM GAS  C:\Users\simon\AppData\Local\Temp\cc07ySAM.s 			page 17


 887:bme280.c      ****     int8_t rslt;
 888:bme280.c      ****     uint8_t reg_addr = BME280_CTRL_MEAS_ADDR;
 889:bme280.c      ****     uint8_t reg_data;
 890:bme280.c      **** 
 891:bme280.c      ****     rslt = bme280_get_regs(reg_addr, &reg_data, 1, dev);
 892:bme280.c      ****     if (rslt == BME280_OK)
 893:bme280.c      ****     {
 894:bme280.c      ****         if (desired_settings & BME280_OSR_PRESS_SEL)
 895:bme280.c      ****         {
 896:bme280.c      ****             fill_osr_press_settings(&reg_data, settings);
 897:bme280.c      ****         }
 898:bme280.c      ****         if (desired_settings & BME280_OSR_TEMP_SEL)
 899:bme280.c      ****         {
 900:bme280.c      ****             fill_osr_temp_settings(&reg_data, settings);
 901:bme280.c      ****         }
 902:bme280.c      **** 
 903:bme280.c      ****         /* Write the oversampling settings in the register */
 904:bme280.c      ****         rslt = bme280_set_regs(&reg_addr, &reg_data, 1, dev);
 905:bme280.c      ****     }
 906:bme280.c      **** 
 907:bme280.c      ****     return rslt;
 908:bme280.c      **** }
 909:bme280.c      **** 
 910:bme280.c      **** /*!
 911:bme280.c      ****  * @brief This internal API sets the filter and/or standby duration settings
 912:bme280.c      ****  * in the sensor according to the settings selected by the user.
 913:bme280.c      ****  */
 914:bme280.c      **** static int8_t set_filter_standby_settings(uint8_t desired_settings,
 915:bme280.c      ****                                           const struct bme280_settings *settings,
 916:bme280.c      ****                                           const struct bme280_dev *dev)
 917:bme280.c      **** {
 918:bme280.c      ****     int8_t rslt;
 919:bme280.c      ****     uint8_t reg_addr = BME280_CONFIG_ADDR;
 920:bme280.c      ****     uint8_t reg_data;
 921:bme280.c      **** 
 922:bme280.c      ****     rslt = bme280_get_regs(reg_addr, &reg_data, 1, dev);
 923:bme280.c      ****     if (rslt == BME280_OK)
 924:bme280.c      ****     {
 925:bme280.c      ****         if (desired_settings & BME280_FILTER_SEL)
 926:bme280.c      ****         {
 927:bme280.c      ****             fill_filter_settings(&reg_data, settings);
 928:bme280.c      ****         }
 929:bme280.c      ****         if (desired_settings & BME280_STANDBY_SEL)
 930:bme280.c      ****         {
 931:bme280.c      ****             fill_standby_settings(&reg_data, settings);
 932:bme280.c      ****         }
 933:bme280.c      **** 
 934:bme280.c      ****         /* Write the oversampling settings in the register */
 935:bme280.c      ****         rslt = bme280_set_regs(&reg_addr, &reg_data, 1, dev);
 936:bme280.c      ****     }
 937:bme280.c      **** 
 938:bme280.c      ****     return rslt;
 939:bme280.c      **** }
 940:bme280.c      **** 
 941:bme280.c      **** /*!
 942:bme280.c      ****  * @brief This internal API fills the filter settings provided by the user
 943:bme280.c      ****  * in the data buffer so as to write in the sensor.
ARM GAS  C:\Users\simon\AppData\Local\Temp\cc07ySAM.s 			page 18


 944:bme280.c      ****  */
 945:bme280.c      **** static void fill_filter_settings(uint8_t *reg_data, const struct bme280_settings *settings)
 946:bme280.c      **** {
  27              		.loc 1 946 0
  28              		.cfi_startproc
  29              		@ args = 0, pretend = 0, frame = 0
  30              		@ frame_needed = 0, uses_anonymous_args = 0
  31              	.LVL0:
  32 0000 10B5     		push	{r4, lr}
  33              		.cfi_def_cfa_offset 8
  34              		.cfi_offset 4, -8
  35              		.cfi_offset 14, -4
 947:bme280.c      ****     *reg_data = BME280_SET_BITS(*reg_data, BME280_FILTER, settings->filter);
  36              		.loc 1 947 0
  37 0002 0478     		ldrb	r4, [r0]
  38 0004 CB78     		ldrb	r3, [r1, #3]
  39 0006 9A00     		lsls	r2, r3, #2
  40 0008 1C23     		movs	r3, #28
  41 000a 2100     		movs	r1, r4
  42              	.LVL1:
  43 000c 9943     		bics	r1, r3
  44 000e 1340     		ands	r3, r2
  45 0010 0B43     		orrs	r3, r1
  46 0012 0370     		strb	r3, [r0]
 948:bme280.c      **** }
  47              		.loc 1 948 0
  48              		@ sp needed
  49 0014 10BD     		pop	{r4, pc}
  50              		.cfi_endproc
  51              	.LFE16:
  52              		.size	fill_filter_settings, .-fill_filter_settings
  53 0016 C046     		.section	.text.fill_standby_settings,"ax",%progbits
  54              		.align	2
  55              		.code	16
  56              		.thumb_func
  57              		.type	fill_standby_settings, %function
  58              	fill_standby_settings:
  59              	.LFB17:
 949:bme280.c      **** 
 950:bme280.c      **** /*!
 951:bme280.c      ****  * @brief This internal API fills the standby duration settings provided by
 952:bme280.c      ****  * the user in the data buffer so as to write in the sensor.
 953:bme280.c      ****  */
 954:bme280.c      **** static void fill_standby_settings(uint8_t *reg_data, const struct bme280_settings *settings)
 955:bme280.c      **** {
  60              		.loc 1 955 0
  61              		.cfi_startproc
  62              		@ args = 0, pretend = 0, frame = 0
  63              		@ frame_needed = 0, uses_anonymous_args = 0
  64              		@ link register save eliminated.
  65              	.LVL2:
 956:bme280.c      ****     *reg_data = BME280_SET_BITS(*reg_data, BME280_STANDBY, settings->standby_time);
  66              		.loc 1 956 0
  67 0000 0378     		ldrb	r3, [r0]
  68 0002 0A79     		ldrb	r2, [r1, #4]
  69 0004 5201     		lsls	r2, r2, #5
  70 0006 1F21     		movs	r1, #31
ARM GAS  C:\Users\simon\AppData\Local\Temp\cc07ySAM.s 			page 19


  71              	.LVL3:
  72 0008 0B40     		ands	r3, r1
  73 000a 1343     		orrs	r3, r2
  74 000c 0370     		strb	r3, [r0]
 957:bme280.c      **** }
  75              		.loc 1 957 0
  76              		@ sp needed
  77 000e 7047     		bx	lr
  78              		.cfi_endproc
  79              	.LFE17:
  80              		.size	fill_standby_settings, .-fill_standby_settings
  81              		.section	.text.fill_osr_press_settings,"ax",%progbits
  82              		.align	2
  83              		.code	16
  84              		.thumb_func
  85              		.type	fill_osr_press_settings, %function
  86              	fill_osr_press_settings:
  87              	.LFB18:
 958:bme280.c      **** 
 959:bme280.c      **** /*!
 960:bme280.c      ****  * @brief This internal API fills the pressure oversampling settings provided by
 961:bme280.c      ****  * the user in the data buffer so as to write in the sensor.
 962:bme280.c      ****  */
 963:bme280.c      **** static void fill_osr_press_settings(uint8_t *reg_data, const struct bme280_settings *settings)
 964:bme280.c      **** {
  88              		.loc 1 964 0
  89              		.cfi_startproc
  90              		@ args = 0, pretend = 0, frame = 0
  91              		@ frame_needed = 0, uses_anonymous_args = 0
  92              	.LVL4:
  93 0000 10B5     		push	{r4, lr}
  94              		.cfi_def_cfa_offset 8
  95              		.cfi_offset 4, -8
  96              		.cfi_offset 14, -4
 965:bme280.c      ****     *reg_data = BME280_SET_BITS(*reg_data, BME280_CTRL_PRESS, settings->osr_p);
  97              		.loc 1 965 0
  98 0002 0478     		ldrb	r4, [r0]
  99 0004 0B78     		ldrb	r3, [r1]
 100 0006 9A00     		lsls	r2, r3, #2
 101 0008 1C23     		movs	r3, #28
 102 000a 2100     		movs	r1, r4
 103              	.LVL5:
 104 000c 9943     		bics	r1, r3
 105 000e 1340     		ands	r3, r2
 106 0010 0B43     		orrs	r3, r1
 107 0012 0370     		strb	r3, [r0]
 966:bme280.c      **** }
 108              		.loc 1 966 0
 109              		@ sp needed
 110 0014 10BD     		pop	{r4, pc}
 111              		.cfi_endproc
 112              	.LFE18:
 113              		.size	fill_osr_press_settings, .-fill_osr_press_settings
 114 0016 C046     		.section	.text.fill_osr_temp_settings,"ax",%progbits
 115              		.align	2
 116              		.code	16
 117              		.thumb_func
ARM GAS  C:\Users\simon\AppData\Local\Temp\cc07ySAM.s 			page 20


 118              		.type	fill_osr_temp_settings, %function
 119              	fill_osr_temp_settings:
 120              	.LFB19:
 967:bme280.c      **** 
 968:bme280.c      **** /*!
 969:bme280.c      ****  * @brief This internal API fills the temperature oversampling settings
 970:bme280.c      ****  * provided by the user in the data buffer so as to write in the sensor.
 971:bme280.c      ****  */
 972:bme280.c      **** static void fill_osr_temp_settings(uint8_t *reg_data, const struct bme280_settings *settings)
 973:bme280.c      **** {
 121              		.loc 1 973 0
 122              		.cfi_startproc
 123              		@ args = 0, pretend = 0, frame = 0
 124              		@ frame_needed = 0, uses_anonymous_args = 0
 125              		@ link register save eliminated.
 126              	.LVL6:
 974:bme280.c      ****     *reg_data = BME280_SET_BITS(*reg_data, BME280_CTRL_TEMP, settings->osr_t);
 127              		.loc 1 974 0
 128 0000 0378     		ldrb	r3, [r0]
 129 0002 4A78     		ldrb	r2, [r1, #1]
 130 0004 5201     		lsls	r2, r2, #5
 131 0006 1F21     		movs	r1, #31
 132              	.LVL7:
 133 0008 0B40     		ands	r3, r1
 134 000a 1343     		orrs	r3, r2
 135 000c 0370     		strb	r3, [r0]
 975:bme280.c      **** }
 136              		.loc 1 975 0
 137              		@ sp needed
 138 000e 7047     		bx	lr
 139              		.cfi_endproc
 140              	.LFE19:
 141              		.size	fill_osr_temp_settings, .-fill_osr_temp_settings
 142              		.section	.text.parse_device_settings,"ax",%progbits
 143              		.align	2
 144              		.code	16
 145              		.thumb_func
 146              		.type	parse_device_settings, %function
 147              	parse_device_settings:
 148              	.LFB20:
 976:bme280.c      **** 
 977:bme280.c      **** /*!
 978:bme280.c      ****  * @brief This internal API parse the oversampling(pressure, temperature
 979:bme280.c      ****  * and humidity), filter and standby duration settings and store in the
 980:bme280.c      ****  * device structure.
 981:bme280.c      ****  */
 982:bme280.c      **** static void parse_device_settings(const uint8_t *reg_data, struct bme280_settings *settings)
 983:bme280.c      **** {
 149              		.loc 1 983 0
 150              		.cfi_startproc
 151              		@ args = 0, pretend = 0, frame = 0
 152              		@ frame_needed = 0, uses_anonymous_args = 0
 153              	.LVL8:
 154 0000 10B5     		push	{r4, lr}
 155              		.cfi_def_cfa_offset 8
 156              		.cfi_offset 4, -8
 157              		.cfi_offset 14, -4
ARM GAS  C:\Users\simon\AppData\Local\Temp\cc07ySAM.s 			page 21


 984:bme280.c      ****     settings->osr_h = BME280_GET_BITS_POS_0(reg_data[0], BME280_CTRL_HUM);
 158              		.loc 1 984 0
 159 0002 0378     		ldrb	r3, [r0]
 160 0004 0724     		movs	r4, #7
 161 0006 2340     		ands	r3, r4
 162 0008 8B70     		strb	r3, [r1, #2]
 985:bme280.c      ****     settings->osr_p = BME280_GET_BITS(reg_data[2], BME280_CTRL_PRESS);
 163              		.loc 1 985 0
 164 000a 8278     		ldrb	r2, [r0, #2]
 165 000c 9210     		asrs	r2, r2, #2
 166 000e 2240     		ands	r2, r4
 167 0010 0A70     		strb	r2, [r1]
 986:bme280.c      ****     settings->osr_t = BME280_GET_BITS(reg_data[2], BME280_CTRL_TEMP);
 168              		.loc 1 986 0
 169 0012 8378     		ldrb	r3, [r0, #2]
 170 0014 5B09     		lsrs	r3, r3, #5
 171 0016 4B70     		strb	r3, [r1, #1]
 987:bme280.c      ****     settings->filter = BME280_GET_BITS(reg_data[3], BME280_FILTER);
 172              		.loc 1 987 0
 173 0018 C378     		ldrb	r3, [r0, #3]
 174 001a 9B10     		asrs	r3, r3, #2
 175 001c 2340     		ands	r3, r4
 176 001e CB70     		strb	r3, [r1, #3]
 988:bme280.c      ****     settings->standby_time = BME280_GET_BITS(reg_data[3], BME280_STANDBY);
 177              		.loc 1 988 0
 178 0020 C378     		ldrb	r3, [r0, #3]
 179 0022 5B09     		lsrs	r3, r3, #5
 180 0024 0B71     		strb	r3, [r1, #4]
 989:bme280.c      **** }
 181              		.loc 1 989 0
 182              		@ sp needed
 183 0026 10BD     		pop	{r4, pc}
 184              		.cfi_endproc
 185              	.LFE20:
 186              		.size	parse_device_settings, .-parse_device_settings
 187              		.section	.text.compensate_temperature,"ax",%progbits
 188              		.align	2
 189              		.code	16
 190              		.thumb_func
 191              		.type	compensate_temperature, %function
 192              	compensate_temperature:
 193              	.LFB24:
 990:bme280.c      **** 
 991:bme280.c      **** /*!
 992:bme280.c      ****  * @brief This internal API writes the power mode in the sensor.
 993:bme280.c      ****  */
 994:bme280.c      **** static int8_t write_power_mode(uint8_t sensor_mode, const struct bme280_dev *dev)
 995:bme280.c      **** {
 996:bme280.c      ****     int8_t rslt;
 997:bme280.c      ****     uint8_t reg_addr = BME280_PWR_CTRL_ADDR;
 998:bme280.c      **** 
 999:bme280.c      ****     /* Variable to store the value read from power mode register */
1000:bme280.c      ****     uint8_t sensor_mode_reg_val;
1001:bme280.c      **** 
1002:bme280.c      ****     /* Read the power mode register */
1003:bme280.c      ****     rslt = bme280_get_regs(reg_addr, &sensor_mode_reg_val, 1, dev);
1004:bme280.c      **** 
ARM GAS  C:\Users\simon\AppData\Local\Temp\cc07ySAM.s 			page 22


1005:bme280.c      ****     /* Set the power mode */
1006:bme280.c      ****     if (rslt == BME280_OK)
1007:bme280.c      ****     {
1008:bme280.c      ****         sensor_mode_reg_val = BME280_SET_BITS_POS_0(sensor_mode_reg_val, BME280_SENSOR_MODE, sensor
1009:bme280.c      **** 
1010:bme280.c      ****         /* Write the power mode in the register */
1011:bme280.c      ****         rslt = bme280_set_regs(&reg_addr, &sensor_mode_reg_val, 1, dev);
1012:bme280.c      ****     }
1013:bme280.c      **** 
1014:bme280.c      ****     return rslt;
1015:bme280.c      **** }
1016:bme280.c      **** 
1017:bme280.c      **** /*!
1018:bme280.c      ****  * @brief This internal API puts the device to sleep mode.
1019:bme280.c      ****  */
1020:bme280.c      **** static int8_t put_device_to_sleep(const struct bme280_dev *dev)
1021:bme280.c      **** {
1022:bme280.c      ****     int8_t rslt;
1023:bme280.c      ****     uint8_t reg_data[4];
1024:bme280.c      ****     struct bme280_settings settings;
1025:bme280.c      **** 
1026:bme280.c      ****     rslt = bme280_get_regs(BME280_CTRL_HUM_ADDR, reg_data, 4, dev);
1027:bme280.c      ****     if (rslt == BME280_OK)
1028:bme280.c      ****     {
1029:bme280.c      ****         parse_device_settings(reg_data, &settings);
1030:bme280.c      ****         rslt = bme280_soft_reset(dev);
1031:bme280.c      ****         if (rslt == BME280_OK)
1032:bme280.c      ****         {
1033:bme280.c      ****             rslt = reload_device_settings(&settings, dev);
1034:bme280.c      ****         }
1035:bme280.c      ****     }
1036:bme280.c      **** 
1037:bme280.c      ****     return rslt;
1038:bme280.c      **** }
1039:bme280.c      **** 
1040:bme280.c      **** /*!
1041:bme280.c      ****  * @brief This internal API reloads the already existing device settings in
1042:bme280.c      ****  * the sensor after soft reset.
1043:bme280.c      ****  */
1044:bme280.c      **** static int8_t reload_device_settings(const struct bme280_settings *settings, const struct bme280_de
1045:bme280.c      **** {
1046:bme280.c      ****     int8_t rslt;
1047:bme280.c      **** 
1048:bme280.c      ****     rslt = set_osr_settings(BME280_ALL_SETTINGS_SEL, settings, dev);
1049:bme280.c      ****     if (rslt == BME280_OK)
1050:bme280.c      ****     {
1051:bme280.c      ****         rslt = set_filter_standby_settings(BME280_ALL_SETTINGS_SEL, settings, dev);
1052:bme280.c      ****     }
1053:bme280.c      **** 
1054:bme280.c      ****     return rslt;
1055:bme280.c      **** }
1056:bme280.c      **** 
1057:bme280.c      **** #ifdef BME280_FLOAT_ENABLE
1058:bme280.c      **** 
1059:bme280.c      **** /*!
1060:bme280.c      ****  * @brief This internal API is used to compensate the raw temperature data and
1061:bme280.c      ****  * return the compensated temperature data in double data type.
ARM GAS  C:\Users\simon\AppData\Local\Temp\cc07ySAM.s 			page 23


1062:bme280.c      ****  */
1063:bme280.c      **** static double compensate_temperature(const struct bme280_uncomp_data *uncomp_data, struct bme280_ca
1064:bme280.c      **** {
1065:bme280.c      ****     double var1;
1066:bme280.c      ****     double var2;
1067:bme280.c      ****     double temperature;
1068:bme280.c      ****     double temperature_min = -40;
1069:bme280.c      ****     double temperature_max = 85;
1070:bme280.c      **** 
1071:bme280.c      ****     var1 = ((double)uncomp_data->temperature) / 16384.0 - ((double)calib_data->dig_t1) / 1024.0;
1072:bme280.c      ****     var1 = var1 * ((double)calib_data->dig_t2);
1073:bme280.c      ****     var2 = (((double)uncomp_data->temperature) / 131072.0 - ((double)calib_data->dig_t1) / 8192.0);
1074:bme280.c      ****     var2 = (var2 * var2) * ((double)calib_data->dig_t3);
1075:bme280.c      ****     calib_data->t_fine = (int32_t)(var1 + var2);
1076:bme280.c      ****     temperature = (var1 + var2) / 5120.0;
1077:bme280.c      ****     if (temperature < temperature_min)
1078:bme280.c      ****     {
1079:bme280.c      ****         temperature = temperature_min;
1080:bme280.c      ****     }
1081:bme280.c      ****     else if (temperature > temperature_max)
1082:bme280.c      ****     {
1083:bme280.c      ****         temperature = temperature_max;
1084:bme280.c      ****     }
1085:bme280.c      **** 
1086:bme280.c      ****     return temperature;
1087:bme280.c      **** }
1088:bme280.c      **** 
1089:bme280.c      **** /*!
1090:bme280.c      ****  * @brief This internal API is used to compensate the raw pressure data and
1091:bme280.c      ****  * return the compensated pressure data in double data type.
1092:bme280.c      ****  */
1093:bme280.c      **** static double compensate_pressure(const struct bme280_uncomp_data *uncomp_data,
1094:bme280.c      ****                                   const struct bme280_calib_data *calib_data)
1095:bme280.c      **** {
1096:bme280.c      ****     double var1;
1097:bme280.c      ****     double var2;
1098:bme280.c      ****     double var3;
1099:bme280.c      ****     double pressure;
1100:bme280.c      ****     double pressure_min = 30000.0;
1101:bme280.c      ****     double pressure_max = 110000.0;
1102:bme280.c      **** 
1103:bme280.c      ****     var1 = ((double)calib_data->t_fine / 2.0) - 64000.0;
1104:bme280.c      ****     var2 = var1 * var1 * ((double)calib_data->dig_p6) / 32768.0;
1105:bme280.c      ****     var2 = var2 + var1 * ((double)calib_data->dig_p5) * 2.0;
1106:bme280.c      ****     var2 = (var2 / 4.0) + (((double)calib_data->dig_p4) * 65536.0);
1107:bme280.c      ****     var3 = ((double)calib_data->dig_p3) * var1 * var1 / 524288.0;
1108:bme280.c      ****     var1 = (var3 + ((double)calib_data->dig_p2) * var1) / 524288.0;
1109:bme280.c      ****     var1 = (1.0 + var1 / 32768.0) * ((double)calib_data->dig_p1);
1110:bme280.c      **** 
1111:bme280.c      ****     /* avoid exception caused by division by zero */
1112:bme280.c      ****     if (var1 > (0.0))
1113:bme280.c      ****     {
1114:bme280.c      ****         pressure = 1048576.0 - (double) uncomp_data->pressure;
1115:bme280.c      ****         pressure = (pressure - (var2 / 4096.0)) * 6250.0 / var1;
1116:bme280.c      ****         var1 = ((double)calib_data->dig_p9) * pressure * pressure / 2147483648.0;
1117:bme280.c      ****         var2 = pressure * ((double)calib_data->dig_p8) / 32768.0;
1118:bme280.c      ****         pressure = pressure + (var1 + var2 + ((double)calib_data->dig_p7)) / 16.0;
ARM GAS  C:\Users\simon\AppData\Local\Temp\cc07ySAM.s 			page 24


1119:bme280.c      ****         if (pressure < pressure_min)
1120:bme280.c      ****         {
1121:bme280.c      ****             pressure = pressure_min;
1122:bme280.c      ****         }
1123:bme280.c      ****         else if (pressure > pressure_max)
1124:bme280.c      ****         {
1125:bme280.c      ****             pressure = pressure_max;
1126:bme280.c      ****         }
1127:bme280.c      ****     }
1128:bme280.c      ****     else /* Invalid case */
1129:bme280.c      ****     {
1130:bme280.c      ****         pressure = pressure_min;
1131:bme280.c      ****     }
1132:bme280.c      **** 
1133:bme280.c      ****     return pressure;
1134:bme280.c      **** }
1135:bme280.c      **** 
1136:bme280.c      **** /*!
1137:bme280.c      ****  * @brief This internal API is used to compensate the raw humidity data and
1138:bme280.c      ****  * return the compensated humidity data in double data type.
1139:bme280.c      ****  */
1140:bme280.c      **** static double compensate_humidity(const struct bme280_uncomp_data *uncomp_data,
1141:bme280.c      ****                                   const struct bme280_calib_data *calib_data)
1142:bme280.c      **** {
1143:bme280.c      ****     double humidity;
1144:bme280.c      ****     double humidity_min = 0.0;
1145:bme280.c      ****     double humidity_max = 100.0;
1146:bme280.c      ****     double var1;
1147:bme280.c      ****     double var2;
1148:bme280.c      ****     double var3;
1149:bme280.c      ****     double var4;
1150:bme280.c      ****     double var5;
1151:bme280.c      ****     double var6;
1152:bme280.c      **** 
1153:bme280.c      ****     var1 = ((double)calib_data->t_fine) - 76800.0;
1154:bme280.c      ****     var2 = (((double)calib_data->dig_h4) * 64.0 + (((double)calib_data->dig_h5) / 16384.0) * var1);
1155:bme280.c      ****     var3 = uncomp_data->humidity - var2;
1156:bme280.c      ****     var4 = ((double)calib_data->dig_h2) / 65536.0;
1157:bme280.c      ****     var5 = (1.0 + (((double)calib_data->dig_h3) / 67108864.0) * var1);
1158:bme280.c      ****     var6 = 1.0 + (((double)calib_data->dig_h6) / 67108864.0) * var1 * var5;
1159:bme280.c      ****     var6 = var3 * var4 * (var5 * var6);
1160:bme280.c      ****     humidity = var6 * (1.0 - ((double)calib_data->dig_h1) * var6 / 524288.0);
1161:bme280.c      **** 
1162:bme280.c      ****     if (humidity > humidity_max)
1163:bme280.c      ****     {
1164:bme280.c      ****         humidity = humidity_max;
1165:bme280.c      ****     }
1166:bme280.c      ****     else if (humidity < humidity_min)
1167:bme280.c      ****     {
1168:bme280.c      ****         humidity = humidity_min;
1169:bme280.c      ****     }
1170:bme280.c      **** 
1171:bme280.c      ****     return humidity;
1172:bme280.c      **** }
1173:bme280.c      **** 
1174:bme280.c      **** #else
1175:bme280.c      **** 
ARM GAS  C:\Users\simon\AppData\Local\Temp\cc07ySAM.s 			page 25


1176:bme280.c      **** /*!
1177:bme280.c      ****  * @brief This internal API is used to compensate the raw temperature data and
1178:bme280.c      ****  * return the compensated temperature data in integer data type.
1179:bme280.c      ****  */
1180:bme280.c      **** static int32_t compensate_temperature(const struct bme280_uncomp_data *uncomp_data,
1181:bme280.c      ****                                       struct bme280_calib_data *calib_data)
1182:bme280.c      **** {
 194              		.loc 1 1182 0
 195              		.cfi_startproc
 196              		@ args = 0, pretend = 0, frame = 0
 197              		@ frame_needed = 0, uses_anonymous_args = 0
 198              	.LVL9:
 199 0000 30B5     		push	{r4, r5, lr}
 200              		.cfi_def_cfa_offset 12
 201              		.cfi_offset 4, -12
 202              		.cfi_offset 5, -8
 203              		.cfi_offset 14, -4
 204              	.LVL10:
1183:bme280.c      ****     int32_t var1;
1184:bme280.c      ****     int32_t var2;
1185:bme280.c      ****     int32_t temperature;
1186:bme280.c      ****     int32_t temperature_min = -4000;
1187:bme280.c      ****     int32_t temperature_max = 8500;
1188:bme280.c      **** 
1189:bme280.c      ****     var1 = (int32_t)((uncomp_data->temperature / 8) - ((int32_t)calib_data->dig_t1 * 2));
 205              		.loc 1 1189 0
 206 0002 4268     		ldr	r2, [r0, #4]
 207 0004 D008     		lsrs	r0, r2, #3
 208              	.LVL11:
 209 0006 0B88     		ldrh	r3, [r1]
 210 0008 5C00     		lsls	r4, r3, #1
 211 000a 041B     		subs	r4, r0, r4
 212              	.LVL12:
1190:bme280.c      ****     var1 = (var1 * ((int32_t)calib_data->dig_t2)) / 2048;
 213              		.loc 1 1190 0
 214 000c 0225     		movs	r5, #2
 215 000e 485F     		ldrsh	r0, [r1, r5]
 216 0010 4443     		muls	r4, r0
 217              	.LVL13:
 218 0012 E017     		asrs	r0, r4, #31
 219 0014 4005     		lsls	r0, r0, #21
 220 0016 400D     		lsrs	r0, r0, #21
 221 0018 0019     		adds	r0, r0, r4
 222 001a C012     		asrs	r0, r0, #11
 223              	.LVL14:
1191:bme280.c      ****     var2 = (int32_t)((uncomp_data->temperature / 16) - ((int32_t)calib_data->dig_t1));
 224              		.loc 1 1191 0
 225 001c 1209     		lsrs	r2, r2, #4
 226 001e D21A     		subs	r2, r2, r3
 227              	.LVL15:
1192:bme280.c      ****     var2 = (((var2 * var2) / 4096) * ((int32_t)calib_data->dig_t3)) / 16384;
 228              		.loc 1 1192 0
 229 0020 5243     		muls	r2, r2
 230              	.LVL16:
 231 0022 D317     		asrs	r3, r2, #31
 232              	.LVL17:
 233 0024 1B05     		lsls	r3, r3, #20
ARM GAS  C:\Users\simon\AppData\Local\Temp\cc07ySAM.s 			page 26


 234 0026 1B0D     		lsrs	r3, r3, #20
 235 0028 9B18     		adds	r3, r3, r2
 236 002a 1B13     		asrs	r3, r3, #12
 237 002c 0424     		movs	r4, #4
 238 002e 0A5F     		ldrsh	r2, [r1, r4]
 239 0030 5343     		muls	r3, r2
 240 0032 DA17     		asrs	r2, r3, #31
 241 0034 9204     		lsls	r2, r2, #18
 242 0036 920C     		lsrs	r2, r2, #18
 243 0038 D318     		adds	r3, r2, r3
 244 003a 9B13     		asrs	r3, r3, #14
 245              	.LVL18:
1193:bme280.c      ****     calib_data->t_fine = var1 + var2;
 246              		.loc 1 1193 0
 247 003c C018     		adds	r0, r0, r3
 248              	.LVL19:
 249 003e 4862     		str	r0, [r1, #36]
 250              	.LVL20:
1194:bme280.c      ****     temperature = (calib_data->t_fine * 5 + 128) / 256;
 251              		.loc 1 1194 0
 252 0040 8300     		lsls	r3, r0, #2
 253              	.LVL21:
 254 0042 1818     		adds	r0, r3, r0
 255 0044 0300     		movs	r3, r0
 256 0046 8033     		adds	r3, r3, #128
 257 0048 DA17     		asrs	r2, r3, #31
 258 004a FF20     		movs	r0, #255
 259 004c 1040     		ands	r0, r2
 260 004e C018     		adds	r0, r0, r3
 261 0050 0012     		asrs	r0, r0, #8
 262              	.LVL22:
1195:bme280.c      **** 
1196:bme280.c      ****     if (temperature < temperature_min)
 263              		.loc 1 1196 0
 264 0052 054B     		ldr	r3, .L10
 265 0054 9842     		cmp	r0, r3
 266 0056 03DB     		blt	.L8
1197:bme280.c      ****     {
1198:bme280.c      ****         temperature = temperature_min;
1199:bme280.c      ****     }
1200:bme280.c      ****     else if (temperature > temperature_max)
 267              		.loc 1 1200 0
 268 0058 044B     		ldr	r3, .L10+4
 269 005a 9842     		cmp	r0, r3
 270 005c 02DC     		bgt	.L9
 271 005e 02E0     		b	.L7
 272              	.L8:
1198:bme280.c      ****     }
 273              		.loc 1 1198 0
 274 0060 0148     		ldr	r0, .L10
 275              	.LVL23:
 276 0062 00E0     		b	.L7
 277              	.LVL24:
 278              	.L9:
1201:bme280.c      ****     {
1202:bme280.c      ****         temperature = temperature_max;
 279              		.loc 1 1202 0
ARM GAS  C:\Users\simon\AppData\Local\Temp\cc07ySAM.s 			page 27


 280 0064 0148     		ldr	r0, .L10+4
 281              	.LVL25:
 282              	.L7:
1203:bme280.c      ****     }
1204:bme280.c      **** 
1205:bme280.c      ****     return temperature;
1206:bme280.c      **** }
 283              		.loc 1 1206 0
 284              		@ sp needed
 285 0066 30BD     		pop	{r4, r5, pc}
 286              	.L11:
 287              		.align	2
 288              	.L10:
 289 0068 60F0FFFF 		.word	-4000
 290 006c 34210000 		.word	8500
 291              		.cfi_endproc
 292              	.LFE24:
 293              		.size	compensate_temperature, .-compensate_temperature
 294              		.global	__aeabi_lmul
 295              		.global	__aeabi_ldivmod
 296              		.section	.text.compensate_pressure,"ax",%progbits
 297              		.align	2
 298              		.code	16
 299              		.thumb_func
 300              		.type	compensate_pressure, %function
 301              	compensate_pressure:
 302              	.LFB25:
1207:bme280.c      **** #ifdef BME280_64BIT_ENABLE
1208:bme280.c      **** 
1209:bme280.c      **** /*!
1210:bme280.c      ****  * @brief This internal API is used to compensate the raw pressure data and
1211:bme280.c      ****  * return the compensated pressure data in integer data type with higher
1212:bme280.c      ****  * accuracy.
1213:bme280.c      ****  */
1214:bme280.c      **** static uint32_t compensate_pressure(const struct bme280_uncomp_data *uncomp_data,
1215:bme280.c      ****                                     const struct bme280_calib_data *calib_data)
1216:bme280.c      **** {
 303              		.loc 1 1216 0
 304              		.cfi_startproc
 305              		@ args = 0, pretend = 0, frame = 16
 306              		@ frame_needed = 0, uses_anonymous_args = 0
 307              	.LVL26:
 308 0000 F0B5     		push	{r4, r5, r6, r7, lr}
 309              		.cfi_def_cfa_offset 20
 310              		.cfi_offset 4, -20
 311              		.cfi_offset 5, -16
 312              		.cfi_offset 6, -12
 313              		.cfi_offset 7, -8
 314              		.cfi_offset 14, -4
 315 0002 5746     		mov	r7, r10
 316 0004 4E46     		mov	r6, r9
 317 0006 4546     		mov	r5, r8
 318 0008 E0B4     		push	{r5, r6, r7}
 319              		.cfi_def_cfa_offset 32
 320              		.cfi_offset 8, -32
 321              		.cfi_offset 9, -28
 322              		.cfi_offset 10, -24
ARM GAS  C:\Users\simon\AppData\Local\Temp\cc07ySAM.s 			page 28


 323 000a 84B0     		sub	sp, sp, #16
 324              		.cfi_def_cfa_offset 48
 325 000c 8146     		mov	r9, r0
 326 000e 8846     		mov	r8, r1
 327              	.LVL27:
1217:bme280.c      ****     int64_t var1;
1218:bme280.c      ****     int64_t var2;
1219:bme280.c      ****     int64_t var3;
1220:bme280.c      ****     int64_t var4;
1221:bme280.c      ****     uint32_t pressure;
1222:bme280.c      ****     uint32_t pressure_min = 3000000;
1223:bme280.c      ****     uint32_t pressure_max = 11000000;
1224:bme280.c      **** 
1225:bme280.c      ****     var1 = ((int64_t)calib_data->t_fine) - 128000;
 328              		.loc 1 1225 0
 329 0010 4A6A     		ldr	r2, [r1, #36]
 330 0012 D317     		asrs	r3, r2, #31
 331 0014 804E     		ldr	r6, .L18
 332 0016 0127     		movs	r7, #1
 333 0018 7F42     		rsbs	r7, r7, #0
 334 001a B618     		adds	r6, r6, r2
 335 001c 5F41     		adcs	r7, r7, r3
 336              	.LVL28:
1226:bme280.c      ****     var2 = var1 * var1 * (int64_t)calib_data->dig_p6;
 337              		.loc 1 1226 0
 338 001e 3200     		movs	r2, r6
 339 0020 3B00     		movs	r3, r7
 340 0022 3000     		movs	r0, r6
 341              	.LVL29:
 342 0024 3900     		movs	r1, r7
 343              	.LVL30:
 344 0026 FFF7FEFF 		bl	__aeabi_lmul
 345              	.LVL31:
 346 002a 4346     		mov	r3, r8
 347 002c 1022     		movs	r2, #16
 348 002e 9A5E     		ldrsh	r2, [r3, r2]
 349 0030 D317     		asrs	r3, r2, #31
 350 0032 0090     		str	r0, [sp]
 351 0034 0191     		str	r1, [sp, #4]
 352 0036 FFF7FEFF 		bl	__aeabi_lmul
 353              	.LVL32:
 354 003a 0400     		movs	r4, r0
 355 003c 0D00     		movs	r5, r1
 356              	.LVL33:
1227:bme280.c      ****     var2 = var2 + ((var1 * (int64_t)calib_data->dig_p5) * 131072);
 357              		.loc 1 1227 0
 358 003e 4346     		mov	r3, r8
 359 0040 0E22     		movs	r2, #14
 360 0042 9A5E     		ldrsh	r2, [r3, r2]
 361 0044 D317     		asrs	r3, r2, #31
 362 0046 3000     		movs	r0, r6
 363 0048 3900     		movs	r1, r7
 364 004a FFF7FEFF 		bl	__aeabi_lmul
 365              	.LVL34:
 366 004e C30B     		lsrs	r3, r0, #15
 367 0050 9A46     		mov	r10, r3
 368 0052 4B04     		lsls	r3, r1, #17
ARM GAS  C:\Users\simon\AppData\Local\Temp\cc07ySAM.s 			page 29


 369 0054 5146     		mov	r1, r10
 370 0056 0B43     		orrs	r3, r1
 371 0058 4204     		lsls	r2, r0, #17
 372 005a A418     		adds	r4, r4, r2
 373 005c 5D41     		adcs	r5, r5, r3
 374              	.LVL35:
1228:bme280.c      ****     var2 = var2 + (((int64_t)calib_data->dig_p4) * 34359738368);
 375              		.loc 1 1228 0
 376 005e 4346     		mov	r3, r8
 377 0060 0C21     		movs	r1, #12
 378 0062 595E     		ldrsh	r1, [r3, r1]
 379 0064 0022     		movs	r2, #0
 380 0066 CB00     		lsls	r3, r1, #3
 381 0068 A418     		adds	r4, r4, r2
 382 006a 5D41     		adcs	r5, r5, r3
 383              	.LVL36:
 384 006c 0294     		str	r4, [sp, #8]
 385 006e 0395     		str	r5, [sp, #12]
 386              	.LVL37:
1229:bme280.c      ****     var1 = ((var1 * var1 * (int64_t)calib_data->dig_p3) / 256) + ((var1 * ((int64_t)calib_data->dig
 387              		.loc 1 1229 0
 388 0070 4346     		mov	r3, r8
 389 0072 0A22     		movs	r2, #10
 390 0074 9A5E     		ldrsh	r2, [r3, r2]
 391 0076 D317     		asrs	r3, r2, #31
 392 0078 0098     		ldr	r0, [sp]
 393 007a 0199     		ldr	r1, [sp, #4]
 394 007c FFF7FEFF 		bl	__aeabi_lmul
 395              	.LVL38:
 396 0080 CD17     		asrs	r5, r1, #31
 397 0082 FF24     		movs	r4, #255
 398              	.LVL39:
 399 0084 2540     		ands	r5, r4
 400 0086 2A00     		movs	r2, r5
 401 0088 0023     		movs	r3, #0
 402 008a 8018     		adds	r0, r0, r2
 403 008c 5941     		adcs	r1, r1, r3
 404 008e 0A06     		lsls	r2, r1, #24
 405 0090 030A     		lsrs	r3, r0, #8
 406 0092 1A43     		orrs	r2, r3
 407 0094 1400     		movs	r4, r2
 408 0096 0D12     		asrs	r5, r1, #8
 409 0098 4346     		mov	r3, r8
 410 009a 0822     		movs	r2, #8
 411 009c 9A5E     		ldrsh	r2, [r3, r2]
 412 009e D317     		asrs	r3, r2, #31
 413 00a0 3000     		movs	r0, r6
 414 00a2 3900     		movs	r1, r7
 415 00a4 FFF7FEFF 		bl	__aeabi_lmul
 416              	.LVL40:
 417 00a8 060D     		lsrs	r6, r0, #20
 418              	.LVL41:
 419 00aa 0B03     		lsls	r3, r1, #12
 420 00ac 3343     		orrs	r3, r6
 421 00ae 0203     		lsls	r2, r0, #12
 422 00b0 A418     		adds	r4, r4, r2
 423 00b2 5D41     		adcs	r5, r5, r3
ARM GAS  C:\Users\simon\AppData\Local\Temp\cc07ySAM.s 			page 30


 424              	.LVL42:
1230:bme280.c      ****     var3 = ((int64_t)1) * 140737488355328;
1231:bme280.c      ****     var1 = (var3 + var1) * ((int64_t)calib_data->dig_p1) / 8589934592;
 425              		.loc 1 1231 0
 426 00b4 0020     		movs	r0, #0
 427 00b6 8021     		movs	r1, #128
 428 00b8 0902     		lsls	r1, r1, #8
 429 00ba 0019     		adds	r0, r0, r4
 430 00bc 6941     		adcs	r1, r1, r5
 431 00be 4346     		mov	r3, r8
 432 00c0 DA88     		ldrh	r2, [r3, #6]
 433 00c2 0023     		movs	r3, #0
 434 00c4 FFF7FEFF 		bl	__aeabi_lmul
 435              	.LVL43:
 436 00c8 CC17     		asrs	r4, r1, #31
 437              	.LVL44:
 438 00ca 2200     		movs	r2, r4
 439 00cc 0125     		movs	r5, #1
 440 00ce 2C40     		ands	r4, r5
 441 00d0 2300     		movs	r3, r4
 442 00d2 8018     		adds	r0, r0, r2
 443 00d4 5941     		adcs	r1, r1, r3
 444 00d6 4D10     		asrs	r5, r1, #1
 445 00d8 CC17     		asrs	r4, r1, #31
 446              	.LVL45:
1232:bme280.c      **** 
1233:bme280.c      ****     /* To avoid divide by zero exception */
1234:bme280.c      ****     if (var1 != 0)
 447              		.loc 1 1234 0
 448 00da 2B00     		movs	r3, r5
 449 00dc 2343     		orrs	r3, r4
 450 00de 00D1     		bne	.LCB369
 451 00e0 8EE0     		b	.L15	@long jump
 452              	.LCB369:
1235:bme280.c      ****     {
1236:bme280.c      ****         var4 = 1048576 - uncomp_data->pressure;
 453              		.loc 1 1236 0
 454 00e2 4B46     		mov	r3, r9
 455 00e4 1A68     		ldr	r2, [r3]
 456 00e6 8023     		movs	r3, #128
 457 00e8 5B03     		lsls	r3, r3, #13
 458 00ea 9B1A     		subs	r3, r3, r2
 459              	.LVL46:
1237:bme280.c      ****         var4 = (((var4 * INT64_C(2147483648)) - var2) * 3125) / var1;
 460              		.loc 1 1237 0
 461 00ec 5908     		lsrs	r1, r3, #1
 462 00ee D807     		lsls	r0, r3, #31
 463 00f0 029A     		ldr	r2, [sp, #8]
 464 00f2 039B     		ldr	r3, [sp, #12]
 465 00f4 801A     		subs	r0, r0, r2
 466 00f6 9941     		sbcs	r1, r1, r3
 467 00f8 484A     		ldr	r2, .L18+4
 468 00fa 0023     		movs	r3, #0
 469              	.LVL47:
 470 00fc FFF7FEFF 		bl	__aeabi_lmul
 471              	.LVL48:
 472 0100 2A00     		movs	r2, r5
ARM GAS  C:\Users\simon\AppData\Local\Temp\cc07ySAM.s 			page 31


 473 0102 2300     		movs	r3, r4
 474 0104 FFF7FEFF 		bl	__aeabi_ldivmod
 475              	.LVL49:
 476 0108 0400     		movs	r4, r0
 477              	.LVL50:
 478 010a 0D00     		movs	r5, r1
 479              	.LVL51:
1238:bme280.c      ****         var1 = (((int64_t)calib_data->dig_p9) * (var4 / 8192) * (var4 / 8192)) / 33554432;
 480              		.loc 1 1238 0
 481 010c 4346     		mov	r3, r8
 482 010e 1620     		movs	r0, #22
 483 0110 185E     		ldrsh	r0, [r3, r0]
 484 0112 C117     		asrs	r1, r0, #31
 485 0114 EE17     		asrs	r6, r5, #31
 486 0116 F604     		lsls	r6, r6, #19
 487 0118 F20C     		lsrs	r2, r6, #19
 488 011a 0023     		movs	r3, #0
 489 011c 1219     		adds	r2, r2, r4
 490 011e 6B41     		adcs	r3, r3, r5
 491 0120 DE04     		lsls	r6, r3, #19
 492 0122 570B     		lsrs	r7, r2, #13
 493 0124 3743     		orrs	r7, r6
 494 0126 5E13     		asrs	r6, r3, #13
 495 0128 3A00     		movs	r2, r7
 496 012a 3300     		movs	r3, r6
 497 012c FFF7FEFF 		bl	__aeabi_lmul
 498              	.LVL52:
 499 0130 0200     		movs	r2, r0
 500 0132 0B00     		movs	r3, r1
 501 0134 3800     		movs	r0, r7
 502 0136 3100     		movs	r1, r6
 503 0138 FFF7FEFF 		bl	__aeabi_lmul
 504              	.LVL53:
 505 013c CE17     		asrs	r6, r1, #31
 506 013e F601     		lsls	r6, r6, #7
 507 0140 F209     		lsrs	r2, r6, #7
 508 0142 0023     		movs	r3, #0
 509 0144 8018     		adds	r0, r0, r2
 510 0146 5941     		adcs	r1, r1, r3
 511 0148 CA01     		lsls	r2, r1, #7
 512 014a 430E     		lsrs	r3, r0, #25
 513 014c 1A43     		orrs	r2, r3
 514 014e 1600     		movs	r6, r2
 515 0150 4F16     		asrs	r7, r1, #25
 516              	.LVL54:
1239:bme280.c      ****         var2 = (((int64_t)calib_data->dig_p8) * var4) / 524288;
 517              		.loc 1 1239 0
 518 0152 4346     		mov	r3, r8
 519 0154 1422     		movs	r2, #20
 520 0156 9A5E     		ldrsh	r2, [r3, r2]
 521 0158 D317     		asrs	r3, r2, #31
 522 015a 2000     		movs	r0, r4
 523 015c 2900     		movs	r1, r5
 524 015e FFF7FEFF 		bl	__aeabi_lmul
 525              	.LVL55:
 526 0162 0090     		str	r0, [sp]
 527 0164 0191     		str	r1, [sp, #4]
ARM GAS  C:\Users\simon\AppData\Local\Temp\cc07ySAM.s 			page 32


 528 0166 C917     		asrs	r1, r1, #31
 529 0168 4903     		lsls	r1, r1, #13
 530 016a 8C46     		mov	ip, r1
 531 016c 6346     		mov	r3, ip
 532 016e 580B     		lsrs	r0, r3, #13
 533 0170 0021     		movs	r1, #0
 534 0172 009A     		ldr	r2, [sp]
 535 0174 019B     		ldr	r3, [sp, #4]
 536 0176 1218     		adds	r2, r2, r0
 537 0178 4B41     		adcs	r3, r3, r1
 538 017a 1100     		movs	r1, r2
 539 017c 1A00     		movs	r2, r3
 540 017e 5B03     		lsls	r3, r3, #13
 541 0180 9C46     		mov	ip, r3
 542 0182 0091     		str	r1, [sp]
 543 0184 0192     		str	r2, [sp, #4]
 544 0186 C80C     		lsrs	r0, r1, #19
 545 0188 6146     		mov	r1, ip
 546 018a 0143     		orrs	r1, r0
 547 018c 0A00     		movs	r2, r1
 548 018e 0199     		ldr	r1, [sp, #4]
 549 0190 CB14     		asrs	r3, r1, #19
 550              	.LVL56:
1240:bme280.c      ****         var4 = ((var4 + var1 + var2) / 256) + (((int64_t)calib_data->dig_p7) * 16);
 551              		.loc 1 1240 0
 552 0192 A419     		adds	r4, r4, r6
 553 0194 7D41     		adcs	r5, r5, r7
 554              	.LVL57:
 555 0196 1219     		adds	r2, r2, r4
 556 0198 6B41     		adcs	r3, r3, r5
 557              	.LVL58:
 558 019a D817     		asrs	r0, r3, #31
 559 019c FF21     		movs	r1, #255
 560 019e 0840     		ands	r0, r1
 561 01a0 0400     		movs	r4, r0
 562 01a2 0025     		movs	r5, #0
 563 01a4 1219     		adds	r2, r2, r4
 564 01a6 6B41     		adcs	r3, r3, r5
 565 01a8 1C06     		lsls	r4, r3, #24
 566 01aa 120A     		lsrs	r2, r2, #8
 567 01ac 1443     		orrs	r4, r2
 568 01ae 2000     		movs	r0, r4
 569 01b0 1912     		asrs	r1, r3, #8
 570 01b2 4346     		mov	r3, r8
 571 01b4 1224     		movs	r4, #18
 572 01b6 1C5F     		ldrsh	r4, [r3, r4]
 573 01b8 E617     		asrs	r6, r4, #31
 574              	.LVL59:
 575 01ba 250F     		lsrs	r5, r4, #28
 576 01bc 3301     		lsls	r3, r6, #4
 577 01be 2B43     		orrs	r3, r5
 578 01c0 2201     		lsls	r2, r4, #4
 579 01c2 1218     		adds	r2, r2, r0
 580 01c4 4B41     		adcs	r3, r3, r1
 581              	.LVL60:
1241:bme280.c      ****         pressure = (uint32_t)(((var4 / 2) * 100) / 128);
 582              		.loc 1 1241 0
ARM GAS  C:\Users\simon\AppData\Local\Temp\cc07ySAM.s 			page 33


 583 01c6 D80F     		lsrs	r0, r3, #31
 584 01c8 0021     		movs	r1, #0
 585 01ca 1218     		adds	r2, r2, r0
 586 01cc 4B41     		adcs	r3, r3, r1
 587              	.LVL61:
 588 01ce D907     		lsls	r1, r3, #31
 589 01d0 5008     		lsrs	r0, r2, #1
 590 01d2 0843     		orrs	r0, r1
 591 01d4 5910     		asrs	r1, r3, #1
 592 01d6 6422     		movs	r2, #100
 593 01d8 0023     		movs	r3, #0
 594 01da FFF7FEFF 		bl	__aeabi_lmul
 595              	.LVL62:
 596 01de CD17     		asrs	r5, r1, #31
 597 01e0 7F24     		movs	r4, #127
 598 01e2 2540     		ands	r5, r4
 599 01e4 2A00     		movs	r2, r5
 600 01e6 0023     		movs	r3, #0
 601 01e8 8018     		adds	r0, r0, r2
 602 01ea 5941     		adcs	r1, r1, r3
 603 01ec 4B06     		lsls	r3, r1, #25
 604 01ee C009     		lsrs	r0, r0, #7
 605 01f0 1843     		orrs	r0, r3
 606              	.LVL63:
1242:bme280.c      ****         if (pressure < pressure_min)
 607              		.loc 1 1242 0
 608 01f2 0B4B     		ldr	r3, .L18+8
 609 01f4 9842     		cmp	r0, r3
 610 01f6 05D9     		bls	.L16
1243:bme280.c      ****         {
1244:bme280.c      ****             pressure = pressure_min;
1245:bme280.c      ****         }
1246:bme280.c      ****         else if (pressure > pressure_max)
 611              		.loc 1 1246 0
 612 01f8 0A4B     		ldr	r3, .L18+12
 613 01fa 9842     		cmp	r0, r3
 614 01fc 04D8     		bhi	.L17
 615 01fe 04E0     		b	.L13
 616              	.LVL64:
 617              	.L15:
1247:bme280.c      ****         {
1248:bme280.c      ****             pressure = pressure_max;
1249:bme280.c      ****         }
1250:bme280.c      ****     }
1251:bme280.c      ****     else
1252:bme280.c      ****     {
1253:bme280.c      ****         pressure = pressure_min;
 618              		.loc 1 1253 0
 619 0200 0948     		ldr	r0, .L18+16
 620 0202 02E0     		b	.L13
 621              	.LVL65:
 622              	.L16:
1244:bme280.c      ****         }
 623              		.loc 1 1244 0
 624 0204 0848     		ldr	r0, .L18+16
 625              	.LVL66:
 626 0206 00E0     		b	.L13
ARM GAS  C:\Users\simon\AppData\Local\Temp\cc07ySAM.s 			page 34


 627              	.LVL67:
 628              	.L17:
1248:bme280.c      ****         }
 629              		.loc 1 1248 0
 630 0208 0648     		ldr	r0, .L18+12
 631              	.LVL68:
 632              	.L13:
1254:bme280.c      ****     }
1255:bme280.c      **** 
1256:bme280.c      ****     return pressure;
1257:bme280.c      **** }
 633              		.loc 1 1257 0
 634 020a 04B0     		add	sp, sp, #16
 635              		@ sp needed
 636              	.LVL69:
 637              	.LVL70:
 638 020c 1CBC     		pop	{r2, r3, r4}
 639 020e 9046     		mov	r8, r2
 640 0210 9946     		mov	r9, r3
 641 0212 A246     		mov	r10, r4
 642 0214 F0BD     		pop	{r4, r5, r6, r7, pc}
 643              	.L19:
 644 0216 C046     		.align	2
 645              	.L18:
 646 0218 000CFEFF 		.word	-128000
 647 021c 350C0000 		.word	3125
 648 0220 BFC62D00 		.word	2999999
 649 0224 C0D8A700 		.word	11000000
 650 0228 C0C62D00 		.word	3000000
 651              		.cfi_endproc
 652              	.LFE25:
 653              		.size	compensate_pressure, .-compensate_pressure
 654              		.section	.text.compensate_humidity,"ax",%progbits
 655              		.align	2
 656              		.code	16
 657              		.thumb_func
 658              		.type	compensate_humidity, %function
 659              	compensate_humidity:
 660              	.LFB26:
1258:bme280.c      **** #else
1259:bme280.c      **** 
1260:bme280.c      **** /*!
1261:bme280.c      ****  * @brief This internal API is used to compensate the raw pressure data and
1262:bme280.c      ****  * return the compensated pressure data in integer data type.
1263:bme280.c      ****  */
1264:bme280.c      **** static uint32_t compensate_pressure(const struct bme280_uncomp_data *uncomp_data,
1265:bme280.c      ****                                     const struct bme280_calib_data *calib_data)
1266:bme280.c      **** {
1267:bme280.c      ****     int32_t var1;
1268:bme280.c      ****     int32_t var2;
1269:bme280.c      ****     int32_t var3;
1270:bme280.c      ****     int32_t var4;
1271:bme280.c      ****     uint32_t var5;
1272:bme280.c      ****     uint32_t pressure;
1273:bme280.c      ****     uint32_t pressure_min = 30000;
1274:bme280.c      ****     uint32_t pressure_max = 110000;
1275:bme280.c      **** 
ARM GAS  C:\Users\simon\AppData\Local\Temp\cc07ySAM.s 			page 35


1276:bme280.c      ****     var1 = (((int32_t)calib_data->t_fine) / 2) - (int32_t)64000;
1277:bme280.c      ****     var2 = (((var1 / 4) * (var1 / 4)) / 2048) * ((int32_t)calib_data->dig_p6);
1278:bme280.c      ****     var2 = var2 + ((var1 * ((int32_t)calib_data->dig_p5)) * 2);
1279:bme280.c      ****     var2 = (var2 / 4) + (((int32_t)calib_data->dig_p4) * 65536);
1280:bme280.c      ****     var3 = (calib_data->dig_p3 * (((var1 / 4) * (var1 / 4)) / 8192)) / 8;
1281:bme280.c      ****     var4 = (((int32_t)calib_data->dig_p2) * var1) / 2;
1282:bme280.c      ****     var1 = (var3 + var4) / 262144;
1283:bme280.c      ****     var1 = (((32768 + var1)) * ((int32_t)calib_data->dig_p1)) / 32768;
1284:bme280.c      **** 
1285:bme280.c      ****     /* avoid exception caused by division by zero */
1286:bme280.c      ****     if (var1)
1287:bme280.c      ****     {
1288:bme280.c      ****         var5 = (uint32_t)((uint32_t)1048576) - uncomp_data->pressure;
1289:bme280.c      ****         pressure = ((uint32_t)(var5 - (uint32_t)(var2 / 4096))) * 3125;
1290:bme280.c      ****         if (pressure < 0x80000000)
1291:bme280.c      ****         {
1292:bme280.c      ****             pressure = (pressure << 1) / ((uint32_t)var1);
1293:bme280.c      ****         }
1294:bme280.c      ****         else
1295:bme280.c      ****         {
1296:bme280.c      ****             pressure = (pressure / (uint32_t)var1) * 2;
1297:bme280.c      ****         }
1298:bme280.c      ****         var1 = (((int32_t)calib_data->dig_p9) * ((int32_t)(((pressure / 8) * (pressure / 8)) / 8192
1299:bme280.c      ****         var2 = (((int32_t)(pressure / 4)) * ((int32_t)calib_data->dig_p8)) / 8192;
1300:bme280.c      ****         pressure = (uint32_t)((int32_t)pressure + ((var1 + var2 + calib_data->dig_p7) / 16));
1301:bme280.c      ****         if (pressure < pressure_min)
1302:bme280.c      ****         {
1303:bme280.c      ****             pressure = pressure_min;
1304:bme280.c      ****         }
1305:bme280.c      ****         else if (pressure > pressure_max)
1306:bme280.c      ****         {
1307:bme280.c      ****             pressure = pressure_max;
1308:bme280.c      ****         }
1309:bme280.c      ****     }
1310:bme280.c      ****     else
1311:bme280.c      ****     {
1312:bme280.c      ****         pressure = pressure_min;
1313:bme280.c      ****     }
1314:bme280.c      **** 
1315:bme280.c      ****     return pressure;
1316:bme280.c      **** }
1317:bme280.c      **** #endif
1318:bme280.c      **** 
1319:bme280.c      **** /*!
1320:bme280.c      ****  * @brief This internal API is used to compensate the raw humidity data and
1321:bme280.c      ****  * return the compensated humidity data in integer data type.
1322:bme280.c      ****  */
1323:bme280.c      **** static uint32_t compensate_humidity(const struct bme280_uncomp_data *uncomp_data,
1324:bme280.c      ****                                     const struct bme280_calib_data *calib_data)
1325:bme280.c      **** {
 661              		.loc 1 1325 0
 662              		.cfi_startproc
 663              		@ args = 0, pretend = 0, frame = 0
 664              		@ frame_needed = 0, uses_anonymous_args = 0
 665              	.LVL71:
 666 0000 70B5     		push	{r4, r5, r6, lr}
 667              		.cfi_def_cfa_offset 16
ARM GAS  C:\Users\simon\AppData\Local\Temp\cc07ySAM.s 			page 36


 668              		.cfi_offset 4, -16
 669              		.cfi_offset 5, -12
 670              		.cfi_offset 6, -8
 671              		.cfi_offset 14, -4
 672              	.LVL72:
1326:bme280.c      ****     int32_t var1;
1327:bme280.c      ****     int32_t var2;
1328:bme280.c      ****     int32_t var3;
1329:bme280.c      ****     int32_t var4;
1330:bme280.c      ****     int32_t var5;
1331:bme280.c      ****     uint32_t humidity;
1332:bme280.c      ****     uint32_t humidity_max = 102400;
1333:bme280.c      **** 
1334:bme280.c      ****     var1 = calib_data->t_fine - ((int32_t)76800);
 673              		.loc 1 1334 0
 674 0002 4B6A     		ldr	r3, [r1, #36]
 675 0004 324A     		ldr	r2, .L25
 676 0006 9446     		mov	ip, r2
 677 0008 6344     		add	r3, r3, ip
 678 000a 1E00     		movs	r6, r3
 679              	.LVL73:
1335:bme280.c      ****     var2 = (int32_t)(uncomp_data->humidity * 16384);
 680              		.loc 1 1335 0
 681 000c 8468     		ldr	r4, [r0, #8]
 682 000e A503     		lsls	r5, r4, #14
 683              	.LVL74:
1336:bme280.c      ****     var3 = (int32_t)(((int32_t)calib_data->dig_h4) * 1048576);
 684              		.loc 1 1336 0
 685 0010 1E23     		movs	r3, #30
 686 0012 CC5E     		ldrsh	r4, [r1, r3]
 687              	.LVL75:
 688 0014 2405     		lsls	r4, r4, #20
 689              	.LVL76:
1337:bme280.c      ****     var4 = ((int32_t)calib_data->dig_h5) * var1;
 690              		.loc 1 1337 0
 691 0016 2023     		movs	r3, #32
 692 0018 C85E     		ldrsh	r0, [r1, r3]
 693              	.LVL77:
 694 001a 7043     		muls	r0, r6
 695              	.LVL78:
1338:bme280.c      ****     var5 = (((var2 - var3) - var4) + (int32_t)16384) / 32768;
 696              		.loc 1 1338 0
 697 001c 2C1B     		subs	r4, r5, r4
 698              	.LVL79:
 699 001e 201A     		subs	r0, r4, r0
 700              	.LVL80:
 701 0020 8023     		movs	r3, #128
 702 0022 DB01     		lsls	r3, r3, #7
 703 0024 9C46     		mov	ip, r3
 704 0026 6044     		add	r0, r0, ip
 705 0028 C317     		asrs	r3, r0, #31
 706 002a 5B04     		lsls	r3, r3, #17
 707 002c 5B0C     		lsrs	r3, r3, #17
 708 002e 1818     		adds	r0, r3, r0
 709 0030 C013     		asrs	r0, r0, #15
 710              	.LVL81:
1339:bme280.c      ****     var2 = (var1 * ((int32_t)calib_data->dig_h6)) / 1024;
ARM GAS  C:\Users\simon\AppData\Local\Temp\cc07ySAM.s 			page 37


 711              		.loc 1 1339 0
 712 0032 2223     		movs	r3, #34
 713 0034 CC56     		ldrsb	r4, [r1, r3]
 714 0036 7443     		muls	r4, r6
 715 0038 E317     		asrs	r3, r4, #31
 716 003a 9B05     		lsls	r3, r3, #22
 717 003c 9B0D     		lsrs	r3, r3, #22
 718 003e 1B19     		adds	r3, r3, r4
 719 0040 9B12     		asrs	r3, r3, #10
 720              	.LVL82:
1340:bme280.c      ****     var3 = (var1 * ((int32_t)calib_data->dig_h3)) / 2048;
 721              		.loc 1 1340 0
 722 0042 0A7F     		ldrb	r2, [r1, #28]
 723 0044 7243     		muls	r2, r6
 724 0046 D417     		asrs	r4, r2, #31
 725 0048 6405     		lsls	r4, r4, #21
 726 004a 640D     		lsrs	r4, r4, #21
 727 004c A218     		adds	r2, r4, r2
 728 004e D212     		asrs	r2, r2, #11
 729              	.LVL83:
1341:bme280.c      ****     var4 = ((var2 * (var3 + (int32_t)32768)) / 1024) + (int32_t)2097152;
 730              		.loc 1 1341 0
 731 0050 8024     		movs	r4, #128
 732 0052 2402     		lsls	r4, r4, #8
 733 0054 A446     		mov	ip, r4
 734 0056 6244     		add	r2, r2, ip
 735              	.LVL84:
 736 0058 5343     		muls	r3, r2
 737              	.LVL85:
 738 005a DA17     		asrs	r2, r3, #31
 739              	.LVL86:
 740 005c 9205     		lsls	r2, r2, #22
 741 005e 920D     		lsrs	r2, r2, #22
 742 0060 D318     		adds	r3, r2, r3
 743 0062 9B12     		asrs	r3, r3, #10
 744 0064 8022     		movs	r2, #128
 745 0066 9203     		lsls	r2, r2, #14
 746 0068 9446     		mov	ip, r2
 747 006a 6344     		add	r3, r3, ip
 748              	.LVL87:
1342:bme280.c      ****     var2 = ((var4 * ((int32_t)calib_data->dig_h2)) + 8192) / 16384;
 749              		.loc 1 1342 0
 750 006c 1A22     		movs	r2, #26
 751 006e 8C5E     		ldrsh	r4, [r1, r2]
 752 0070 6343     		muls	r3, r4
 753              	.LVL88:
 754 0072 8022     		movs	r2, #128
 755              	.LVL89:
 756 0074 9201     		lsls	r2, r2, #6
 757              	.LVL90:
 758 0076 9C18     		adds	r4, r3, r2
 759 0078 E317     		asrs	r3, r4, #31
 760 007a 9B04     		lsls	r3, r3, #18
 761 007c 9B0C     		lsrs	r3, r3, #18
 762 007e 1C19     		adds	r4, r3, r4
 763 0080 A413     		asrs	r4, r4, #14
 764              	.LVL91:
ARM GAS  C:\Users\simon\AppData\Local\Temp\cc07ySAM.s 			page 38


1343:bme280.c      ****     var3 = var5 * var2;
 765              		.loc 1 1343 0
 766 0082 2300     		movs	r3, r4
 767 0084 4343     		muls	r3, r0
 768              	.LVL92:
1344:bme280.c      ****     var4 = ((var3 / 32768) * (var3 / 32768)) / 128;
 769              		.loc 1 1344 0
 770 0086 DA17     		asrs	r2, r3, #31
 771 0088 5204     		lsls	r2, r2, #17
 772 008a 520C     		lsrs	r2, r2, #17
 773 008c D218     		adds	r2, r2, r3
 774 008e D213     		asrs	r2, r2, #15
 775 0090 5243     		muls	r2, r2
 776 0092 D017     		asrs	r0, r2, #31
 777              	.LVL93:
 778 0094 7F24     		movs	r4, #127
 779              	.LVL94:
 780 0096 2040     		ands	r0, r4
 781 0098 8218     		adds	r2, r0, r2
 782 009a D211     		asrs	r2, r2, #7
 783              	.LVL95:
1345:bme280.c      ****     var5 = var3 - ((var4 * ((int32_t)calib_data->dig_h1)) / 16);
 784              		.loc 1 1345 0
 785 009c 097E     		ldrb	r1, [r1, #24]
 786              	.LVL96:
 787 009e 4A43     		muls	r2, r1
 788              	.LVL97:
 789 00a0 D117     		asrs	r1, r2, #31
 790 00a2 0F20     		movs	r0, #15
 791              	.LVL98:
 792 00a4 0840     		ands	r0, r1
 793 00a6 8218     		adds	r2, r0, r2
 794 00a8 1211     		asrs	r2, r2, #4
 795 00aa 9A1A     		subs	r2, r3, r2
 796              	.LVL99:
1346:bme280.c      ****     var5 = (var5 < 0 ? 0 : var5);
 797              		.loc 1 1346 0
 798 00ac 00D5     		bpl	.L21
 799 00ae 0022     		movs	r2, #0
 800              	.L21:
 801              	.LVL100:
1347:bme280.c      ****     var5 = (var5 > 419430400 ? 419430400 : var5);
 802              		.loc 1 1347 0
 803 00b0 C823     		movs	r3, #200
 804              	.LVL101:
 805 00b2 5B05     		lsls	r3, r3, #21
 806 00b4 9A42     		cmp	r2, r3
 807 00b6 00DD     		ble	.L22
 808 00b8 1A00     		movs	r2, r3
 809              	.LVL102:
 810              	.L22:
1348:bme280.c      ****     humidity = (uint32_t)(var5 / 4096);
 811              		.loc 1 1348 0
 812 00ba D017     		asrs	r0, r2, #31
 813 00bc 0005     		lsls	r0, r0, #20
 814 00be 000D     		lsrs	r0, r0, #20
 815 00c0 8018     		adds	r0, r0, r2
ARM GAS  C:\Users\simon\AppData\Local\Temp\cc07ySAM.s 			page 39


 816 00c2 0013     		asrs	r0, r0, #12
 817              	.LVL103:
1349:bme280.c      ****     if (humidity > humidity_max)
 818              		.loc 1 1349 0
 819 00c4 C823     		movs	r3, #200
 820 00c6 5B02     		lsls	r3, r3, #9
 821 00c8 9842     		cmp	r0, r3
 822 00ca 00D9     		bls	.L23
1350:bme280.c      ****     {
1351:bme280.c      ****         humidity = humidity_max;
 823              		.loc 1 1351 0
 824 00cc 1800     		movs	r0, r3
 825              	.LVL104:
 826              	.L23:
1352:bme280.c      ****     }
1353:bme280.c      **** 
1354:bme280.c      ****     return humidity;
1355:bme280.c      **** }
 827              		.loc 1 1355 0
 828              		@ sp needed
 829              	.LVL105:
 830              	.LVL106:
 831 00ce 70BD     		pop	{r4, r5, r6, pc}
 832              	.L26:
 833              		.align	2
 834              	.L25:
 835 00d0 00D4FEFF 		.word	-76800
 836              		.cfi_endproc
 837              	.LFE26:
 838              		.size	compensate_humidity, .-compensate_humidity
 839              		.section	.text.interleave_reg_addr,"ax",%progbits
 840              		.align	2
 841              		.code	16
 842              		.thumb_func
 843              		.type	interleave_reg_addr, %function
 844              	interleave_reg_addr:
 845              	.LFB28:
1356:bme280.c      **** #endif
1357:bme280.c      **** 
1358:bme280.c      **** /*!
1359:bme280.c      ****  * @brief This internal API reads the calibration data from the sensor, parse
1360:bme280.c      ****  * it and store in the device structure.
1361:bme280.c      ****  */
1362:bme280.c      **** static int8_t get_calib_data(struct bme280_dev *dev)
1363:bme280.c      **** {
1364:bme280.c      ****     int8_t rslt;
1365:bme280.c      ****     uint8_t reg_addr = BME280_TEMP_PRESS_CALIB_DATA_ADDR;
1366:bme280.c      **** 
1367:bme280.c      ****     /* Array to store calibration data */
1368:bme280.c      ****     uint8_t calib_data[BME280_TEMP_PRESS_CALIB_DATA_LEN] = { 0 };
1369:bme280.c      **** 
1370:bme280.c      ****     /* Read the calibration data from the sensor */
1371:bme280.c      ****     rslt = bme280_get_regs(reg_addr, calib_data, BME280_TEMP_PRESS_CALIB_DATA_LEN, dev);
1372:bme280.c      ****     if (rslt == BME280_OK)
1373:bme280.c      ****     {
1374:bme280.c      ****         /* Parse temperature and pressure calibration data and store
1375:bme280.c      ****          * it in device structure
ARM GAS  C:\Users\simon\AppData\Local\Temp\cc07ySAM.s 			page 40


1376:bme280.c      ****          */
1377:bme280.c      ****         parse_temp_press_calib_data(calib_data, dev);
1378:bme280.c      ****         reg_addr = BME280_HUMIDITY_CALIB_DATA_ADDR;
1379:bme280.c      **** 
1380:bme280.c      ****         /* Read the humidity calibration data from the sensor */
1381:bme280.c      ****         rslt = bme280_get_regs(reg_addr, calib_data, BME280_HUMIDITY_CALIB_DATA_LEN, dev);
1382:bme280.c      ****         if (rslt == BME280_OK)
1383:bme280.c      ****         {
1384:bme280.c      ****             /* Parse humidity calibration data and store it in
1385:bme280.c      ****              * device structure
1386:bme280.c      ****              */
1387:bme280.c      ****             parse_humidity_calib_data(calib_data, dev);
1388:bme280.c      ****         }
1389:bme280.c      ****     }
1390:bme280.c      **** 
1391:bme280.c      ****     return rslt;
1392:bme280.c      **** }
1393:bme280.c      **** 
1394:bme280.c      **** /*!
1395:bme280.c      ****  * @brief This internal API interleaves the register address between the
1396:bme280.c      ****  * register data buffer for burst write operation.
1397:bme280.c      ****  */
1398:bme280.c      **** static void interleave_reg_addr(const uint8_t *reg_addr, uint8_t *temp_buff, const uint8_t *reg_dat
1399:bme280.c      **** {
 846              		.loc 1 1399 0
 847              		.cfi_startproc
 848              		@ args = 0, pretend = 0, frame = 0
 849              		@ frame_needed = 0, uses_anonymous_args = 0
 850              	.LVL107:
 851 0000 F0B5     		push	{r4, r5, r6, r7, lr}
 852              		.cfi_def_cfa_offset 20
 853              		.cfi_offset 4, -20
 854              		.cfi_offset 5, -16
 855              		.cfi_offset 6, -12
 856              		.cfi_offset 7, -8
 857              		.cfi_offset 14, -4
 858              	.LVL108:
1400:bme280.c      ****     uint8_t index;
1401:bme280.c      **** 
1402:bme280.c      ****     for (index = 1; index < len; index++)
 859              		.loc 1 1402 0
 860 0002 0124     		movs	r4, #1
 861 0004 07E0     		b	.L28
 862              	.LVL109:
 863              	.L29:
1403:bme280.c      ****     {
1404:bme280.c      ****         temp_buff[(index * 2) - 1] = reg_addr[index];
 864              		.loc 1 1404 0 discriminator 3
 865 0006 6500     		lsls	r5, r4, #1
 866 0008 6E1E     		subs	r6, r5, #1
 867 000a 075D     		ldrb	r7, [r0, r4]
 868 000c 8F55     		strb	r7, [r1, r6]
1405:bme280.c      ****         temp_buff[index * 2] = reg_data[index];
 869              		.loc 1 1405 0 discriminator 3
 870 000e 165D     		ldrb	r6, [r2, r4]
 871 0010 4E55     		strb	r6, [r1, r5]
1402:bme280.c      ****     {
ARM GAS  C:\Users\simon\AppData\Local\Temp\cc07ySAM.s 			page 41


 872              		.loc 1 1402 0 discriminator 3
 873 0012 0134     		adds	r4, r4, #1
 874              	.LVL110:
 875 0014 E4B2     		uxtb	r4, r4
 876              	.LVL111:
 877              	.L28:
1402:bme280.c      ****     {
 878              		.loc 1 1402 0 is_stmt 0 discriminator 1
 879 0016 9C42     		cmp	r4, r3
 880 0018 F5D3     		bcc	.L29
1406:bme280.c      ****     }
1407:bme280.c      **** }
 881              		.loc 1 1407 0 is_stmt 1
 882              		@ sp needed
 883              	.LVL112:
 884 001a F0BD     		pop	{r4, r5, r6, r7, pc}
 885              		.cfi_endproc
 886              	.LFE28:
 887              		.size	interleave_reg_addr, .-interleave_reg_addr
 888              		.section	.text.parse_temp_press_calib_data,"ax",%progbits
 889              		.align	2
 890              		.code	16
 891              		.thumb_func
 892              		.type	parse_temp_press_calib_data, %function
 893              	parse_temp_press_calib_data:
 894              	.LFB29:
1408:bme280.c      **** 
1409:bme280.c      **** /*!
1410:bme280.c      ****  *  @brief This internal API is used to parse the temperature and
1411:bme280.c      ****  *  pressure calibration data and store it in device structure.
1412:bme280.c      ****  */
1413:bme280.c      **** static void parse_temp_press_calib_data(const uint8_t *reg_data, struct bme280_dev *dev)
1414:bme280.c      **** {
 895              		.loc 1 1414 0
 896              		.cfi_startproc
 897              		@ args = 0, pretend = 0, frame = 0
 898              		@ frame_needed = 0, uses_anonymous_args = 0
 899              		@ link register save eliminated.
 900              	.LVL113:
1415:bme280.c      ****     struct bme280_calib_data *calib_data = &dev->calib_data;
1416:bme280.c      **** 
1417:bme280.c      ****     calib_data->dig_t1 = BME280_CONCAT_BYTES(reg_data[1], reg_data[0]);
 901              		.loc 1 1417 0
 902 0000 4378     		ldrb	r3, [r0, #1]
 903 0002 1B02     		lsls	r3, r3, #8
 904 0004 0278     		ldrb	r2, [r0]
 905 0006 1343     		orrs	r3, r2
 906 0008 0B82     		strh	r3, [r1, #16]
1418:bme280.c      ****     calib_data->dig_t2 = (int16_t)BME280_CONCAT_BYTES(reg_data[3], reg_data[2]);
 907              		.loc 1 1418 0
 908 000a C378     		ldrb	r3, [r0, #3]
 909 000c 1B02     		lsls	r3, r3, #8
 910 000e 8278     		ldrb	r2, [r0, #2]
 911 0010 1343     		orrs	r3, r2
 912 0012 4B82     		strh	r3, [r1, #18]
1419:bme280.c      ****     calib_data->dig_t3 = (int16_t)BME280_CONCAT_BYTES(reg_data[5], reg_data[4]);
 913              		.loc 1 1419 0
ARM GAS  C:\Users\simon\AppData\Local\Temp\cc07ySAM.s 			page 42


 914 0014 4379     		ldrb	r3, [r0, #5]
 915 0016 1B02     		lsls	r3, r3, #8
 916 0018 0279     		ldrb	r2, [r0, #4]
 917 001a 1343     		orrs	r3, r2
 918 001c 8B82     		strh	r3, [r1, #20]
1420:bme280.c      ****     calib_data->dig_p1 = BME280_CONCAT_BYTES(reg_data[7], reg_data[6]);
 919              		.loc 1 1420 0
 920 001e C379     		ldrb	r3, [r0, #7]
 921 0020 1B02     		lsls	r3, r3, #8
 922 0022 8279     		ldrb	r2, [r0, #6]
 923 0024 1343     		orrs	r3, r2
 924 0026 CB82     		strh	r3, [r1, #22]
1421:bme280.c      ****     calib_data->dig_p2 = (int16_t)BME280_CONCAT_BYTES(reg_data[9], reg_data[8]);
 925              		.loc 1 1421 0
 926 0028 437A     		ldrb	r3, [r0, #9]
 927 002a 1B02     		lsls	r3, r3, #8
 928 002c 027A     		ldrb	r2, [r0, #8]
 929 002e 1343     		orrs	r3, r2
 930 0030 0B83     		strh	r3, [r1, #24]
1422:bme280.c      ****     calib_data->dig_p3 = (int16_t)BME280_CONCAT_BYTES(reg_data[11], reg_data[10]);
 931              		.loc 1 1422 0
 932 0032 C37A     		ldrb	r3, [r0, #11]
 933 0034 1B02     		lsls	r3, r3, #8
 934 0036 827A     		ldrb	r2, [r0, #10]
 935 0038 1343     		orrs	r3, r2
 936 003a 4B83     		strh	r3, [r1, #26]
1423:bme280.c      ****     calib_data->dig_p4 = (int16_t)BME280_CONCAT_BYTES(reg_data[13], reg_data[12]);
 937              		.loc 1 1423 0
 938 003c 437B     		ldrb	r3, [r0, #13]
 939 003e 1B02     		lsls	r3, r3, #8
 940 0040 027B     		ldrb	r2, [r0, #12]
 941 0042 1343     		orrs	r3, r2
 942 0044 8B83     		strh	r3, [r1, #28]
1424:bme280.c      ****     calib_data->dig_p5 = (int16_t)BME280_CONCAT_BYTES(reg_data[15], reg_data[14]);
 943              		.loc 1 1424 0
 944 0046 C37B     		ldrb	r3, [r0, #15]
 945 0048 1B02     		lsls	r3, r3, #8
 946 004a 827B     		ldrb	r2, [r0, #14]
 947 004c 1343     		orrs	r3, r2
 948 004e CB83     		strh	r3, [r1, #30]
1425:bme280.c      ****     calib_data->dig_p6 = (int16_t)BME280_CONCAT_BYTES(reg_data[17], reg_data[16]);
 949              		.loc 1 1425 0
 950 0050 437C     		ldrb	r3, [r0, #17]
 951 0052 1B02     		lsls	r3, r3, #8
 952 0054 027C     		ldrb	r2, [r0, #16]
 953 0056 1343     		orrs	r3, r2
 954 0058 0B84     		strh	r3, [r1, #32]
1426:bme280.c      ****     calib_data->dig_p7 = (int16_t)BME280_CONCAT_BYTES(reg_data[19], reg_data[18]);
 955              		.loc 1 1426 0
 956 005a C37C     		ldrb	r3, [r0, #19]
 957 005c 1B02     		lsls	r3, r3, #8
 958 005e 827C     		ldrb	r2, [r0, #18]
 959 0060 1343     		orrs	r3, r2
 960 0062 4B84     		strh	r3, [r1, #34]
1427:bme280.c      ****     calib_data->dig_p8 = (int16_t)BME280_CONCAT_BYTES(reg_data[21], reg_data[20]);
 961              		.loc 1 1427 0
 962 0064 437D     		ldrb	r3, [r0, #21]
ARM GAS  C:\Users\simon\AppData\Local\Temp\cc07ySAM.s 			page 43


 963 0066 1B02     		lsls	r3, r3, #8
 964 0068 027D     		ldrb	r2, [r0, #20]
 965 006a 1343     		orrs	r3, r2
 966 006c 8B84     		strh	r3, [r1, #36]
1428:bme280.c      ****     calib_data->dig_p9 = (int16_t)BME280_CONCAT_BYTES(reg_data[23], reg_data[22]);
 967              		.loc 1 1428 0
 968 006e C37D     		ldrb	r3, [r0, #23]
 969 0070 1B02     		lsls	r3, r3, #8
 970 0072 827D     		ldrb	r2, [r0, #22]
 971 0074 1343     		orrs	r3, r2
 972 0076 CB84     		strh	r3, [r1, #38]
1429:bme280.c      ****     calib_data->dig_h1 = reg_data[25];
 973              		.loc 1 1429 0
 974 0078 427E     		ldrb	r2, [r0, #25]
 975 007a 2823     		movs	r3, #40
 976 007c CA54     		strb	r2, [r1, r3]
1430:bme280.c      **** }
 977              		.loc 1 1430 0
 978              		@ sp needed
 979 007e 7047     		bx	lr
 980              		.cfi_endproc
 981              	.LFE29:
 982              		.size	parse_temp_press_calib_data, .-parse_temp_press_calib_data
 983              		.section	.text.parse_humidity_calib_data,"ax",%progbits
 984              		.align	2
 985              		.code	16
 986              		.thumb_func
 987              		.type	parse_humidity_calib_data, %function
 988              	parse_humidity_calib_data:
 989              	.LFB30:
1431:bme280.c      **** 
1432:bme280.c      **** /*!
1433:bme280.c      ****  *  @brief This internal API is used to parse the humidity calibration data
1434:bme280.c      ****  *  and store it in device structure.
1435:bme280.c      ****  */
1436:bme280.c      **** static void parse_humidity_calib_data(const uint8_t *reg_data, struct bme280_dev *dev)
1437:bme280.c      **** {
 990              		.loc 1 1437 0
 991              		.cfi_startproc
 992              		@ args = 0, pretend = 0, frame = 0
 993              		@ frame_needed = 0, uses_anonymous_args = 0
 994              	.LVL114:
 995 0000 10B5     		push	{r4, lr}
 996              		.cfi_def_cfa_offset 8
 997              		.cfi_offset 4, -8
 998              		.cfi_offset 14, -4
 999              	.LVL115:
1438:bme280.c      ****     struct bme280_calib_data *calib_data = &dev->calib_data;
1439:bme280.c      ****     int16_t dig_h4_lsb;
1440:bme280.c      ****     int16_t dig_h4_msb;
1441:bme280.c      ****     int16_t dig_h5_lsb;
1442:bme280.c      ****     int16_t dig_h5_msb;
1443:bme280.c      **** 
1444:bme280.c      ****     calib_data->dig_h2 = (int16_t)BME280_CONCAT_BYTES(reg_data[1], reg_data[0]);
 1000              		.loc 1 1444 0
 1001 0002 4378     		ldrb	r3, [r0, #1]
 1002 0004 1B02     		lsls	r3, r3, #8
ARM GAS  C:\Users\simon\AppData\Local\Temp\cc07ySAM.s 			page 44


 1003 0006 0278     		ldrb	r2, [r0]
 1004 0008 1343     		orrs	r3, r2
 1005 000a 4B85     		strh	r3, [r1, #42]
1445:bme280.c      ****     calib_data->dig_h3 = reg_data[2];
 1006              		.loc 1 1445 0
 1007 000c 8278     		ldrb	r2, [r0, #2]
 1008 000e 2C23     		movs	r3, #44
 1009 0010 CA54     		strb	r2, [r1, r3]
1446:bme280.c      ****     dig_h4_msb = (int16_t)(int8_t)reg_data[3] * 16;
 1010              		.loc 1 1446 0
 1011 0012 0323     		movs	r3, #3
 1012 0014 C356     		ldrsb	r3, [r0, r3]
 1013 0016 1C01     		lsls	r4, r3, #4
 1014              	.LVL116:
1447:bme280.c      ****     dig_h4_lsb = (int16_t)(reg_data[4] & 0x0F);
 1015              		.loc 1 1447 0
 1016 0018 0279     		ldrb	r2, [r0, #4]
 1017 001a 0F23     		movs	r3, #15
 1018 001c 1340     		ands	r3, r2
 1019              	.LVL117:
1448:bme280.c      ****     calib_data->dig_h4 = dig_h4_msb | dig_h4_lsb;
 1020              		.loc 1 1448 0
 1021 001e 2343     		orrs	r3, r4
 1022              	.LVL118:
 1023 0020 CB85     		strh	r3, [r1, #46]
1449:bme280.c      ****     dig_h5_msb = (int16_t)(int8_t)reg_data[5] * 16;
 1024              		.loc 1 1449 0
 1025 0022 0523     		movs	r3, #5
 1026 0024 C356     		ldrsb	r3, [r0, r3]
 1027 0026 1A01     		lsls	r2, r3, #4
 1028              	.LVL119:
1450:bme280.c      ****     dig_h5_lsb = (int16_t)(reg_data[4] >> 4);
 1029              		.loc 1 1450 0
 1030 0028 0379     		ldrb	r3, [r0, #4]
 1031 002a 1B09     		lsrs	r3, r3, #4
 1032              	.LVL120:
1451:bme280.c      ****     calib_data->dig_h5 = dig_h5_msb | dig_h5_lsb;
 1033              		.loc 1 1451 0
 1034 002c 1343     		orrs	r3, r2
 1035              	.LVL121:
 1036 002e 0B86     		strh	r3, [r1, #48]
 1037              	.LVL122:
1452:bme280.c      ****     calib_data->dig_h6 = (int8_t)reg_data[6];
 1038              		.loc 1 1452 0
 1039 0030 0622     		movs	r2, #6
 1040              	.LVL123:
 1041 0032 8256     		ldrsb	r2, [r0, r2]
 1042 0034 3223     		movs	r3, #50
 1043 0036 CA54     		strb	r2, [r1, r3]
1453:bme280.c      **** }
 1044              		.loc 1 1453 0
 1045              		@ sp needed
 1046              	.LVL124:
 1047 0038 10BD     		pop	{r4, pc}
 1048              		.cfi_endproc
 1049              	.LFE30:
 1050              		.size	parse_humidity_calib_data, .-parse_humidity_calib_data
ARM GAS  C:\Users\simon\AppData\Local\Temp\cc07ySAM.s 			page 45


 1051 003a C046     		.section	.text.are_settings_changed,"ax",%progbits
 1052              		.align	2
 1053              		.code	16
 1054              		.thumb_func
 1055              		.type	are_settings_changed, %function
 1056              	are_settings_changed:
 1057              	.LFB31:
1454:bme280.c      **** 
1455:bme280.c      **** /*!
1456:bme280.c      ****  * @brief This internal API is used to identify the settings which the user
1457:bme280.c      ****  * wants to modify in the sensor.
1458:bme280.c      ****  */
1459:bme280.c      **** static uint8_t are_settings_changed(uint8_t sub_settings, uint8_t desired_settings)
1460:bme280.c      **** {
 1058              		.loc 1 1460 0
 1059              		.cfi_startproc
 1060              		@ args = 0, pretend = 0, frame = 0
 1061              		@ frame_needed = 0, uses_anonymous_args = 0
 1062              		@ link register save eliminated.
 1063              	.LVL125:
1461:bme280.c      ****     uint8_t settings_changed = FALSE;
1462:bme280.c      **** 
1463:bme280.c      ****     if (sub_settings & desired_settings)
 1064              		.loc 1 1463 0
 1065 0000 0142     		tst	r1, r0
 1066 0002 01D0     		beq	.L34
1464:bme280.c      ****     {
1465:bme280.c      ****         /* User wants to modify this particular settings */
1466:bme280.c      ****         settings_changed = TRUE;
 1067              		.loc 1 1466 0
 1068 0004 0120     		movs	r0, #1
 1069              	.LVL126:
 1070 0006 00E0     		b	.L33
 1071              	.LVL127:
 1072              	.L34:
1467:bme280.c      ****     }
1468:bme280.c      ****     else
1469:bme280.c      ****     {
1470:bme280.c      ****         /* User don't want to modify this particular settings */
1471:bme280.c      ****         settings_changed = FALSE;
 1073              		.loc 1 1471 0
 1074 0008 0020     		movs	r0, #0
 1075              	.LVL128:
 1076              	.L33:
1472:bme280.c      ****     }
1473:bme280.c      **** 
1474:bme280.c      ****     return settings_changed;
1475:bme280.c      **** }
 1077              		.loc 1 1475 0
 1078              		@ sp needed
 1079 000a 7047     		bx	lr
 1080              		.cfi_endproc
 1081              	.LFE31:
 1082              		.size	are_settings_changed, .-are_settings_changed
 1083              		.section	.text.null_ptr_check,"ax",%progbits
 1084              		.align	2
 1085              		.code	16
ARM GAS  C:\Users\simon\AppData\Local\Temp\cc07ySAM.s 			page 46


 1086              		.thumb_func
 1087              		.type	null_ptr_check, %function
 1088              	null_ptr_check:
 1089              	.LFB32:
1476:bme280.c      **** 
1477:bme280.c      **** /*!
1478:bme280.c      ****  * @brief This internal API is used to validate the device structure pointer for
1479:bme280.c      ****  * null conditions.
1480:bme280.c      ****  */
1481:bme280.c      **** static int8_t null_ptr_check(const struct bme280_dev *dev)
1482:bme280.c      **** {
 1090              		.loc 1 1482 0
 1091              		.cfi_startproc
 1092              		@ args = 0, pretend = 0, frame = 0
 1093              		@ frame_needed = 0, uses_anonymous_args = 0
 1094              		@ link register save eliminated.
 1095              	.LVL129:
1483:bme280.c      ****     int8_t rslt;
1484:bme280.c      **** 
1485:bme280.c      ****     if ((dev == NULL) || (dev->read == NULL) || (dev->write == NULL) || (dev->delay_ms == NULL))
 1096              		.loc 1 1485 0
 1097 0000 0028     		cmp	r0, #0
 1098 0002 0BD0     		beq	.L37
 1099              		.loc 1 1485 0 is_stmt 0 discriminator 1
 1100 0004 4368     		ldr	r3, [r0, #4]
 1101 0006 002B     		cmp	r3, #0
 1102 0008 0BD0     		beq	.L38
 1103              		.loc 1 1485 0 discriminator 2
 1104 000a 8368     		ldr	r3, [r0, #8]
 1105 000c 002B     		cmp	r3, #0
 1106 000e 0BD0     		beq	.L39
 1107              		.loc 1 1485 0 discriminator 3
 1108 0010 C368     		ldr	r3, [r0, #12]
 1109 0012 002B     		cmp	r3, #0
 1110 0014 0BD1     		bne	.L40
1486:bme280.c      ****     {
1487:bme280.c      ****         /* Device structure pointer is not valid */
1488:bme280.c      ****         rslt = BME280_E_NULL_PTR;
 1111              		.loc 1 1488 0 is_stmt 1
 1112 0016 0120     		movs	r0, #1
 1113              	.LVL130:
 1114 0018 4042     		rsbs	r0, r0, #0
 1115 001a 09E0     		b	.L36
 1116              	.LVL131:
 1117              	.L37:
 1118 001c 0120     		movs	r0, #1
 1119              	.LVL132:
 1120 001e 4042     		rsbs	r0, r0, #0
 1121 0020 06E0     		b	.L36
 1122              	.LVL133:
 1123              	.L38:
 1124 0022 0120     		movs	r0, #1
 1125              	.LVL134:
 1126 0024 4042     		rsbs	r0, r0, #0
 1127 0026 03E0     		b	.L36
 1128              	.LVL135:
 1129              	.L39:
ARM GAS  C:\Users\simon\AppData\Local\Temp\cc07ySAM.s 			page 47


 1130 0028 0120     		movs	r0, #1
 1131              	.LVL136:
 1132 002a 4042     		rsbs	r0, r0, #0
 1133 002c 00E0     		b	.L36
 1134              	.LVL137:
 1135              	.L40:
1489:bme280.c      ****     }
1490:bme280.c      ****     else
1491:bme280.c      ****     {
1492:bme280.c      ****         /* Device structure is fine */
1493:bme280.c      ****         rslt = BME280_OK;
 1136              		.loc 1 1493 0
 1137 002e 0020     		movs	r0, #0
 1138              	.LVL138:
 1139              	.L36:
1494:bme280.c      ****     }
1495:bme280.c      **** 
1496:bme280.c      ****     return rslt;
1497:bme280.c      **** }...
 1140              		.loc 1 1497 0
 1141              		@ sp needed
 1142 0030 7047     		bx	lr
 1143              		.cfi_endproc
 1144              	.LFE32:
 1145              		.size	null_ptr_check, .-null_ptr_check
 1146 0032 C046     		.section	.text.bme280_get_regs,"ax",%progbits
 1147              		.align	2
 1148              		.global	bme280_get_regs
 1149              		.code	16
 1150              		.thumb_func
 1151              		.type	bme280_get_regs, %function
 1152              	bme280_get_regs:
 1153              	.LFB1:
 402:bme280.c      **** {
 1154              		.loc 1 402 0
 1155              		.cfi_startproc
 1156              		@ args = 0, pretend = 0, frame = 8
 1157              		@ frame_needed = 0, uses_anonymous_args = 0
 1158              	.LVL139:
 1159 0000 F0B5     		push	{r4, r5, r6, r7, lr}
 1160              		.cfi_def_cfa_offset 20
 1161              		.cfi_offset 4, -20
 1162              		.cfi_offset 5, -16
 1163              		.cfi_offset 6, -12
 1164              		.cfi_offset 7, -8
 1165              		.cfi_offset 14, -4
 1166 0002 83B0     		sub	sp, sp, #12
 1167              		.cfi_def_cfa_offset 32
 1168 0004 0400     		movs	r4, r0
 1169 0006 0191     		str	r1, [sp, #4]
 1170 0008 1600     		movs	r6, r2
 1171 000a 1F00     		movs	r7, r3
 406:bme280.c      ****     rslt = null_ptr_check(dev);
 1172              		.loc 1 406 0
 1173 000c 1800     		movs	r0, r3
 1174              	.LVL140:
 1175 000e FFF7FEFF 		bl	null_ptr_check
ARM GAS  C:\Users\simon\AppData\Local\Temp\cc07ySAM.s 			page 48


 1176              	.LVL141:
 409:bme280.c      ****     if (rslt == BME280_OK)
 1177              		.loc 1 409 0
 1178 0012 0028     		cmp	r0, #0
 1179 0014 10D1     		bne	.L42
 412:bme280.c      ****         if (dev->intf != BME280_I2C_INTF)
 1180              		.loc 1 412 0
 1181 0016 BB78     		ldrb	r3, [r7, #2]
 1182 0018 012B     		cmp	r3, #1
 1183 001a 03D0     		beq	.L43
 414:bme280.c      ****             reg_addr = reg_addr | 0x80;
 1184              		.loc 1 414 0
 1185 001c 8023     		movs	r3, #128
 1186 001e 5B42     		rsbs	r3, r3, #0
 1187 0020 1C43     		orrs	r4, r3
 1188 0022 E4B2     		uxtb	r4, r4
 1189              	.LVL142:
 1190              	.L43:
 418:bme280.c      ****         rslt = dev->read(dev->dev_id, reg_addr, reg_data, len);
 1191              		.loc 1 418 0
 1192 0024 7D68     		ldr	r5, [r7, #4]
 1193 0026 7878     		ldrb	r0, [r7, #1]
 1194              	.LVL143:
 1195 0028 3300     		movs	r3, r6
 1196 002a 019A     		ldr	r2, [sp, #4]
 1197 002c 2100     		movs	r1, r4
 1198 002e A847     		blx	r5
 1199              	.LVL144:
 421:bme280.c      ****         if (rslt != BME280_OK)
 1200              		.loc 1 421 0
 1201 0030 0028     		cmp	r0, #0
 1202 0032 01D0     		beq	.L42
 423:bme280.c      ****             rslt = BME280_E_COMM_FAIL;
 1203              		.loc 1 423 0
 1204 0034 0420     		movs	r0, #4
 1205              	.LVL145:
 1206 0036 4042     		rsbs	r0, r0, #0
 1207              	.LVL146:
 1208              	.L42:
 428:bme280.c      **** }
 1209              		.loc 1 428 0
 1210 0038 03B0     		add	sp, sp, #12
 1211              		@ sp needed
 1212              	.LVL147:
 1213 003a F0BD     		pop	{r4, r5, r6, r7, pc}
 1214              		.cfi_endproc
 1215              	.LFE1:
 1216              		.size	bme280_get_regs, .-bme280_get_regs
 1217              		.section	.text.get_calib_data,"ax",%progbits
 1218              		.align	2
 1219              		.code	16
 1220              		.thumb_func
 1221              		.type	get_calib_data, %function
 1222              	get_calib_data:
 1223              	.LFB27:
1363:bme280.c      **** {
 1224              		.loc 1 1363 0
ARM GAS  C:\Users\simon\AppData\Local\Temp\cc07ySAM.s 			page 49


 1225              		.cfi_startproc
 1226              		@ args = 0, pretend = 0, frame = 32
 1227              		@ frame_needed = 0, uses_anonymous_args = 0
 1228              	.LVL148:
 1229 0000 30B5     		push	{r4, r5, lr}
 1230              		.cfi_def_cfa_offset 12
 1231              		.cfi_offset 4, -12
 1232              		.cfi_offset 5, -8
 1233              		.cfi_offset 14, -4
 1234 0002 89B0     		sub	sp, sp, #36
 1235              		.cfi_def_cfa_offset 48
 1236 0004 0500     		movs	r5, r0
 1237              	.LVL149:
1368:bme280.c      ****     uint8_t calib_data[BME280_TEMP_PRESS_CALIB_DATA_LEN] = { 0 };
 1238              		.loc 1 1368 0
 1239 0006 1A22     		movs	r2, #26
 1240 0008 0021     		movs	r1, #0
 1241 000a 01A8     		add	r0, sp, #4
 1242              	.LVL150:
 1243 000c FFF7FEFF 		bl	memset
 1244              	.LVL151:
1371:bme280.c      ****     rslt = bme280_get_regs(reg_addr, calib_data, BME280_TEMP_PRESS_CALIB_DATA_LEN, dev);
 1245              		.loc 1 1371 0
 1246 0010 2B00     		movs	r3, r5
 1247 0012 1A22     		movs	r2, #26
 1248 0014 01A9     		add	r1, sp, #4
 1249 0016 8820     		movs	r0, #136
 1250 0018 FFF7FEFF 		bl	bme280_get_regs
 1251              	.LVL152:
 1252 001c 041E     		subs	r4, r0, #0
 1253              	.LVL153:
1372:bme280.c      ****     if (rslt == BME280_OK)
 1254              		.loc 1 1372 0
 1255 001e 0FD1     		bne	.L46
1377:bme280.c      ****         parse_temp_press_calib_data(calib_data, dev);
 1256              		.loc 1 1377 0
 1257 0020 2900     		movs	r1, r5
 1258 0022 01A8     		add	r0, sp, #4
 1259              	.LVL154:
 1260 0024 FFF7FEFF 		bl	parse_temp_press_calib_data
 1261              	.LVL155:
1381:bme280.c      ****         rslt = bme280_get_regs(reg_addr, calib_data, BME280_HUMIDITY_CALIB_DATA_LEN, dev);
 1262              		.loc 1 1381 0
 1263 0028 2B00     		movs	r3, r5
 1264 002a 0722     		movs	r2, #7
 1265 002c 01A9     		add	r1, sp, #4
 1266 002e E120     		movs	r0, #225
 1267 0030 FFF7FEFF 		bl	bme280_get_regs
 1268              	.LVL156:
 1269 0034 041E     		subs	r4, r0, #0
 1270              	.LVL157:
1382:bme280.c      ****         if (rslt == BME280_OK)
 1271              		.loc 1 1382 0
 1272 0036 03D1     		bne	.L46
1387:bme280.c      ****             parse_humidity_calib_data(calib_data, dev);
 1273              		.loc 1 1387 0
 1274 0038 2900     		movs	r1, r5
ARM GAS  C:\Users\simon\AppData\Local\Temp\cc07ySAM.s 			page 50


 1275 003a 01A8     		add	r0, sp, #4
 1276              	.LVL158:
 1277 003c FFF7FEFF 		bl	parse_humidity_calib_data
 1278              	.LVL159:
 1279              	.L46:
1392:bme280.c      **** }
 1280              		.loc 1 1392 0
 1281 0040 2000     		movs	r0, r4
 1282 0042 09B0     		add	sp, sp, #36
 1283              		@ sp needed
 1284              	.LVL160:
 1285              	.LVL161:
 1286 0044 30BD     		pop	{r4, r5, pc}
 1287              		.cfi_endproc
 1288              	.LFE27:
 1289              		.size	get_calib_data, .-get_calib_data
 1290 0046 C046     		.section	.text.bme280_set_regs,"ax",%progbits
 1291              		.align	2
 1292              		.global	bme280_set_regs
 1293              		.code	16
 1294              		.thumb_func
 1295              		.type	bme280_set_regs, %function
 1296              	bme280_set_regs:
 1297              	.LFB2:
 435:bme280.c      **** {
 1298              		.loc 1 435 0
 1299              		.cfi_startproc
 1300              		@ args = 0, pretend = 0, frame = 24
 1301              		@ frame_needed = 0, uses_anonymous_args = 0
 1302              	.LVL162:
 1303 0000 F0B5     		push	{r4, r5, r6, r7, lr}
 1304              		.cfi_def_cfa_offset 20
 1305              		.cfi_offset 4, -20
 1306              		.cfi_offset 5, -16
 1307              		.cfi_offset 6, -12
 1308              		.cfi_offset 7, -8
 1309              		.cfi_offset 14, -4
 1310 0002 87B0     		sub	sp, sp, #28
 1311              		.cfi_def_cfa_offset 48
 1312 0004 0500     		movs	r5, r0
 1313 0006 0F00     		movs	r7, r1
 1314 0008 1400     		movs	r4, r2
 1315 000a 1E00     		movs	r6, r3
 439:bme280.c      ****     if (len > 10)
 1316              		.loc 1 439 0
 1317 000c 0A2A     		cmp	r2, #10
 1318 000e 00D9     		bls	.L48
 441:bme280.c      ****         len = 10;
 1319              		.loc 1 441 0
 1320 0010 0A24     		movs	r4, #10
 1321              	.L48:
 1322              	.LVL163:
 447:bme280.c      ****     rslt = null_ptr_check(dev);
 1323              		.loc 1 447 0
 1324 0012 3000     		movs	r0, r6
 1325              	.LVL164:
 1326 0014 FFF7FEFF 		bl	null_ptr_check
ARM GAS  C:\Users\simon\AppData\Local\Temp\cc07ySAM.s 			page 51


 1327              	.LVL165:
 450:bme280.c      ****     if ((rslt == BME280_OK) && (reg_addr != NULL) && (reg_data != NULL))
 1328              		.loc 1 450 0
 1329 0018 0028     		cmp	r0, #0
 1330 001a 2CD1     		bne	.L56
 450:bme280.c      ****     if ((rslt == BME280_OK) && (reg_addr != NULL) && (reg_data != NULL))
 1331              		.loc 1 450 0 is_stmt 0 discriminator 1
 1332 001c 002D     		cmp	r5, #0
 1333 001e 2DD0     		beq	.L57
 450:bme280.c      ****     if ((rslt == BME280_OK) && (reg_addr != NULL) && (reg_data != NULL))
 1334              		.loc 1 450 0 discriminator 2
 1335 0020 002F     		cmp	r7, #0
 1336 0022 2ED0     		beq	.L58
 452:bme280.c      ****         if (len != 0)
 1337              		.loc 1 452 0 is_stmt 1
 1338 0024 002C     		cmp	r4, #0
 1339 0026 2FD0     		beq	.L59
 454:bme280.c      ****             temp_buff[0] = reg_data[0];
 1340              		.loc 1 454 0
 1341 0028 3A78     		ldrb	r2, [r7]
 1342 002a 01AB     		add	r3, sp, #4
 1343 002c 1A70     		strb	r2, [r3]
 457:bme280.c      ****             if (dev->intf != BME280_I2C_INTF)
 1344              		.loc 1 457 0
 1345 002e B378     		ldrb	r3, [r6, #2]
 1346 0030 012B     		cmp	r3, #1
 1347 0032 08D1     		bne	.L60
 1348 0034 0AE0     		b	.L51
 1349              	.LVL166:
 1350              	.L52:
 461:bme280.c      ****                     reg_addr[reg_addr_cnt] = reg_addr[reg_addr_cnt] & 0x7F;
 1351              		.loc 1 461 0 discriminator 3
 1352 0036 AB18     		adds	r3, r5, r2
 1353 0038 1978     		ldrb	r1, [r3]
 1354 003a 7F20     		movs	r0, #127
 1355 003c 0140     		ands	r1, r0
 1356 003e 1970     		strb	r1, [r3]
 459:bme280.c      ****                 for (reg_addr_cnt = 0; reg_addr_cnt < len; reg_addr_cnt++)
 1357              		.loc 1 459 0 discriminator 3
 1358 0040 0132     		adds	r2, r2, #1
 1359              	.LVL167:
 1360 0042 D2B2     		uxtb	r2, r2
 1361              	.LVL168:
 1362 0044 00E0     		b	.L50
 1363              	.LVL169:
 1364              	.L60:
 1365 0046 0022     		movs	r2, #0
 1366              	.LVL170:
 1367              	.L50:
 459:bme280.c      ****                 for (reg_addr_cnt = 0; reg_addr_cnt < len; reg_addr_cnt++)
 1368              		.loc 1 459 0 is_stmt 0 discriminator 1
 1369 0048 9442     		cmp	r4, r2
 1370 004a F4D8     		bhi	.L52
 1371              	.LVL171:
 1372              	.L51:
 466:bme280.c      ****             if (len > 1)
 1373              		.loc 1 466 0 is_stmt 1
ARM GAS  C:\Users\simon\AppData\Local\Temp\cc07ySAM.s 			page 52


 1374 004c 012C     		cmp	r4, #1
 1375 004e 09D9     		bls	.L53
 471:bme280.c      ****                 interleave_reg_addr(reg_addr, temp_buff, reg_data, len);
 1376              		.loc 1 471 0
 1377 0050 2300     		movs	r3, r4
 1378 0052 3A00     		movs	r2, r7
 1379 0054 01A9     		add	r1, sp, #4
 1380 0056 2800     		movs	r0, r5
 1381 0058 FFF7FEFF 		bl	interleave_reg_addr
 1382              	.LVL172:
 472:bme280.c      ****                 temp_len = ((len * 2) - 1);
 1383              		.loc 1 472 0
 1384 005c 6400     		lsls	r4, r4, #1
 1385              	.LVL173:
 1386 005e 013C     		subs	r4, r4, #1
 1387 0060 A3B2     		uxth	r3, r4
 1388              	.LVL174:
 1389 0062 00E0     		b	.L54
 1390              	.LVL175:
 1391              	.L53:
 476:bme280.c      ****                 temp_len = len;
 1392              		.loc 1 476 0
 1393 0064 A3B2     		uxth	r3, r4
 1394              	.LVL176:
 1395              	.L54:
 478:bme280.c      ****             rslt = dev->write(dev->dev_id, reg_addr[0], temp_buff, temp_len);
 1396              		.loc 1 478 0
 1397 0066 B468     		ldr	r4, [r6, #8]
 1398 0068 7078     		ldrb	r0, [r6, #1]
 1399 006a 2978     		ldrb	r1, [r5]
 1400 006c 01AA     		add	r2, sp, #4
 1401 006e A047     		blx	r4
 1402              	.LVL177:
 481:bme280.c      ****             if (rslt != BME280_OK)
 1403              		.loc 1 481 0
 1404 0070 0028     		cmp	r0, #0
 1405 0072 0ED0     		beq	.L49
 1406 0074 0BE0     		b	.L61
 1407              	.LVL178:
 1408              	.L56:
 493:bme280.c      ****         rslt = BME280_E_NULL_PTR;
 1409              		.loc 1 493 0
 1410 0076 0120     		movs	r0, #1
 1411              	.LVL179:
 1412 0078 4042     		rsbs	r0, r0, #0
 1413 007a 0AE0     		b	.L49
 1414              	.LVL180:
 1415              	.L57:
 1416 007c 0120     		movs	r0, #1
 1417              	.LVL181:
 1418 007e 4042     		rsbs	r0, r0, #0
 1419 0080 07E0     		b	.L49
 1420              	.LVL182:
 1421              	.L58:
 1422 0082 0120     		movs	r0, #1
 1423              	.LVL183:
 1424 0084 4042     		rsbs	r0, r0, #0
ARM GAS  C:\Users\simon\AppData\Local\Temp\cc07ySAM.s 			page 53


 1425 0086 04E0     		b	.L49
 1426              	.LVL184:
 1427              	.L59:
 488:bme280.c      ****             rslt = BME280_E_INVALID_LEN;
 1428              		.loc 1 488 0
 1429 0088 0320     		movs	r0, #3
 1430              	.LVL185:
 1431 008a 4042     		rsbs	r0, r0, #0
 1432 008c 01E0     		b	.L49
 1433              	.LVL186:
 1434              	.L61:
 483:bme280.c      ****                 rslt = BME280_E_COMM_FAIL;
 1435              		.loc 1 483 0
 1436 008e 0420     		movs	r0, #4
 1437              	.LVL187:
 1438 0090 4042     		rsbs	r0, r0, #0
 1439              	.L49:
 1440              	.LVL188:
 497:bme280.c      **** }
 1441              		.loc 1 497 0
 1442 0092 07B0     		add	sp, sp, #28
 1443              		@ sp needed
 1444              	.LVL189:
 1445              	.LVL190:
 1446              	.LVL191:
 1447 0094 F0BD     		pop	{r4, r5, r6, r7, pc}
 1448              		.cfi_endproc
 1449              	.LFE2:
 1450              		.size	bme280_set_regs, .-bme280_set_regs
 1451 0096 C046     		.section	.text.set_osr_humidity_settings,"ax",%progbits
 1452              		.align	2
 1453              		.code	16
 1454              		.thumb_func
 1455              		.type	set_osr_humidity_settings, %function
 1456              	set_osr_humidity_settings:
 1457              	.LFB13:
 852:bme280.c      **** {
 1458              		.loc 1 852 0
 1459              		.cfi_startproc
 1460              		@ args = 0, pretend = 0, frame = 8
 1461              		@ frame_needed = 0, uses_anonymous_args = 0
 1462              	.LVL192:
 1463 0000 10B5     		push	{r4, lr}
 1464              		.cfi_def_cfa_offset 8
 1465              		.cfi_offset 4, -8
 1466              		.cfi_offset 14, -4
 1467 0002 82B0     		sub	sp, sp, #8
 1468              		.cfi_def_cfa_offset 16
 1469 0004 0300     		movs	r3, r0
 1470 0006 0C00     		movs	r4, r1
 856:bme280.c      ****     uint8_t reg_addr = BME280_CTRL_HUM_ADDR;
 1471              		.loc 1 856 0
 1472 0008 6A46     		mov	r2, sp
 1473 000a 501D     		adds	r0, r2, #5
 1474              	.LVL193:
 1475 000c F222     		movs	r2, #242
 1476 000e 0270     		strb	r2, [r0]
ARM GAS  C:\Users\simon\AppData\Local\Temp\cc07ySAM.s 			page 54


 858:bme280.c      ****     ctrl_hum = settings->osr_h & BME280_CTRL_HUM_MSK;
 1477              		.loc 1 858 0
 1478 0010 9B78     		ldrb	r3, [r3, #2]
 1479              	.LVL194:
 1480 0012 6A46     		mov	r2, sp
 1481 0014 D11D     		adds	r1, r2, #7
 1482              	.LVL195:
 1483 0016 0722     		movs	r2, #7
 1484 0018 1340     		ands	r3, r2
 1485 001a 0B70     		strb	r3, [r1]
 861:bme280.c      ****     rslt = bme280_set_regs(&reg_addr, &ctrl_hum, 1, dev);
 1486              		.loc 1 861 0
 1487 001c 2300     		movs	r3, r4
 1488 001e 063A     		subs	r2, r2, #6
 1489 0020 FFF7FEFF 		bl	bme280_set_regs
 1490              	.LVL196:
 866:bme280.c      ****     if (rslt == BME280_OK)
 1491              		.loc 1 866 0
 1492 0024 0028     		cmp	r0, #0
 1493 0026 13D1     		bne	.L63
 868:bme280.c      ****         reg_addr = BME280_CTRL_MEAS_ADDR;
 1494              		.loc 1 868 0
 1495 0028 F422     		movs	r2, #244
 1496 002a 6B46     		mov	r3, sp
 1497 002c 5A71     		strb	r2, [r3, #5]
 869:bme280.c      ****         rslt = bme280_get_regs(reg_addr, &ctrl_meas, 1, dev);
 1498              		.loc 1 869 0
 1499 002e 2300     		movs	r3, r4
 1500 0030 F33A     		subs	r2, r2, #243
 1501 0032 6946     		mov	r1, sp
 1502 0034 0631     		adds	r1, r1, #6
 1503 0036 F430     		adds	r0, r0, #244
 1504              	.LVL197:
 1505 0038 FFF7FEFF 		bl	bme280_get_regs
 1506              	.LVL198:
 870:bme280.c      ****         if (rslt == BME280_OK)
 1507              		.loc 1 870 0
 1508 003c 0028     		cmp	r0, #0
 1509 003e 07D1     		bne	.L63
 872:bme280.c      ****             rslt = bme280_set_regs(&reg_addr, &ctrl_meas, 1, dev);
 1510              		.loc 1 872 0
 1511 0040 2300     		movs	r3, r4
 1512 0042 0122     		movs	r2, #1
 1513 0044 6946     		mov	r1, sp
 1514 0046 0631     		adds	r1, r1, #6
 1515 0048 6846     		mov	r0, sp
 1516              	.LVL199:
 1517 004a 0530     		adds	r0, r0, #5
 1518 004c FFF7FEFF 		bl	bme280_set_regs
 1519              	.LVL200:
 1520              	.L63:
 877:bme280.c      **** }
 1521              		.loc 1 877 0
 1522 0050 02B0     		add	sp, sp, #8
 1523              		@ sp needed
 1524              	.LVL201:
 1525 0052 10BD     		pop	{r4, pc}
ARM GAS  C:\Users\simon\AppData\Local\Temp\cc07ySAM.s 			page 55


 1526              		.cfi_endproc
 1527              	.LFE13:
 1528              		.size	set_osr_humidity_settings, .-set_osr_humidity_settings
 1529              		.section	.text.set_osr_press_temp_settings,"ax",%progbits
 1530              		.align	2
 1531              		.code	16
 1532              		.thumb_func
 1533              		.type	set_osr_press_temp_settings, %function
 1534              	set_osr_press_temp_settings:
 1535              	.LFB14:
 886:bme280.c      **** {
 1536              		.loc 1 886 0
 1537              		.cfi_startproc
 1538              		@ args = 0, pretend = 0, frame = 8
 1539              		@ frame_needed = 0, uses_anonymous_args = 0
 1540              	.LVL202:
 1541 0000 70B5     		push	{r4, r5, r6, lr}
 1542              		.cfi_def_cfa_offset 16
 1543              		.cfi_offset 4, -16
 1544              		.cfi_offset 5, -12
 1545              		.cfi_offset 6, -8
 1546              		.cfi_offset 14, -4
 1547 0002 82B0     		sub	sp, sp, #8
 1548              		.cfi_def_cfa_offset 24
 1549 0004 0600     		movs	r6, r0
 1550 0006 0D00     		movs	r5, r1
 1551 0008 1400     		movs	r4, r2
 888:bme280.c      ****     uint8_t reg_addr = BME280_CTRL_MEAS_ADDR;
 1552              		.loc 1 888 0
 1553 000a F422     		movs	r2, #244
 1554              	.LVL203:
 1555 000c 6B46     		mov	r3, sp
 1556 000e DA71     		strb	r2, [r3, #7]
 891:bme280.c      ****     rslt = bme280_get_regs(reg_addr, &reg_data, 1, dev);
 1557              		.loc 1 891 0
 1558 0010 2300     		movs	r3, r4
 1559 0012 F33A     		subs	r2, r2, #243
 1560 0014 6946     		mov	r1, sp
 1561              	.LVL204:
 1562 0016 0631     		adds	r1, r1, #6
 1563 0018 F420     		movs	r0, #244
 1564              	.LVL205:
 1565 001a FFF7FEFF 		bl	bme280_get_regs
 1566              	.LVL206:
 892:bme280.c      ****     if (rslt == BME280_OK)
 1567              		.loc 1 892 0
 1568 001e 0028     		cmp	r0, #0
 1569 0020 15D1     		bne	.L65
 894:bme280.c      ****         if (desired_settings & BME280_OSR_PRESS_SEL)
 1570              		.loc 1 894 0
 1571 0022 F307     		lsls	r3, r6, #31
 1572 0024 04D5     		bpl	.L66
 896:bme280.c      ****             fill_osr_press_settings(&reg_data, settings);
 1573              		.loc 1 896 0
 1574 0026 2900     		movs	r1, r5
 1575 0028 6B46     		mov	r3, sp
 1576 002a 981D     		adds	r0, r3, #6
ARM GAS  C:\Users\simon\AppData\Local\Temp\cc07ySAM.s 			page 56


 1577              	.LVL207:
 1578 002c FFF7FEFF 		bl	fill_osr_press_settings
 1579              	.LVL208:
 1580              	.L66:
 898:bme280.c      ****         if (desired_settings & BME280_OSR_TEMP_SEL)
 1581              		.loc 1 898 0
 1582 0030 B307     		lsls	r3, r6, #30
 1583 0032 04D5     		bpl	.L67
 900:bme280.c      ****             fill_osr_temp_settings(&reg_data, settings);
 1584              		.loc 1 900 0
 1585 0034 2900     		movs	r1, r5
 1586 0036 6B46     		mov	r3, sp
 1587 0038 981D     		adds	r0, r3, #6
 1588 003a FFF7FEFF 		bl	fill_osr_temp_settings
 1589              	.LVL209:
 1590              	.L67:
 904:bme280.c      ****         rslt = bme280_set_regs(&reg_addr, &reg_data, 1, dev);
 1591              		.loc 1 904 0
 1592 003e 2300     		movs	r3, r4
 1593 0040 0122     		movs	r2, #1
 1594 0042 6946     		mov	r1, sp
 1595 0044 0631     		adds	r1, r1, #6
 1596 0046 6846     		mov	r0, sp
 1597 0048 0730     		adds	r0, r0, #7
 1598 004a FFF7FEFF 		bl	bme280_set_regs
 1599              	.LVL210:
 1600              	.L65:
 908:bme280.c      **** }
 1601              		.loc 1 908 0
 1602 004e 02B0     		add	sp, sp, #8
 1603              		@ sp needed
 1604              	.LVL211:
 1605              	.LVL212:
 1606 0050 70BD     		pop	{r4, r5, r6, pc}
 1607              		.cfi_endproc
 1608              	.LFE14:
 1609              		.size	set_osr_press_temp_settings, .-set_osr_press_temp_settings
 1610 0052 C046     		.section	.text.set_osr_settings,"ax",%progbits
 1611              		.align	2
 1612              		.code	16
 1613              		.thumb_func
 1614              		.type	set_osr_settings, %function
 1615              	set_osr_settings:
 1616              	.LFB12:
 833:bme280.c      **** {
 1617              		.loc 1 833 0
 1618              		.cfi_startproc
 1619              		@ args = 0, pretend = 0, frame = 0
 1620              		@ frame_needed = 0, uses_anonymous_args = 0
 1621              	.LVL213:
 1622 0000 70B5     		push	{r4, r5, r6, lr}
 1623              		.cfi_def_cfa_offset 16
 1624              		.cfi_offset 4, -16
 1625              		.cfi_offset 5, -12
 1626              		.cfi_offset 6, -8
 1627              		.cfi_offset 14, -4
 1628 0002 0600     		movs	r6, r0
ARM GAS  C:\Users\simon\AppData\Local\Temp\cc07ySAM.s 			page 57


 1629 0004 0C00     		movs	r4, r1
 1630 0006 1500     		movs	r5, r2
 1631              	.LVL214:
 836:bme280.c      ****     if (desired_settings & BME280_OSR_HUM_SEL)
 1632              		.loc 1 836 0
 1633 0008 4307     		lsls	r3, r0, #29
 1634 000a 04D5     		bpl	.L71
 838:bme280.c      ****         rslt = set_osr_humidity_settings(settings, dev);
 1635              		.loc 1 838 0
 1636 000c 1100     		movs	r1, r2
 1637              	.LVL215:
 1638 000e 2000     		movs	r0, r4
 1639              	.LVL216:
 1640 0010 FFF7FEFF 		bl	set_osr_humidity_settings
 1641              	.LVL217:
 1642 0014 00E0     		b	.L69
 1643              	.LVL218:
 1644              	.L71:
 834:bme280.c      ****     int8_t rslt = BME280_W_INVALID_OSR_MACRO;
 1645              		.loc 1 834 0
 1646 0016 0120     		movs	r0, #1
 1647              	.LVL219:
 1648              	.L69:
 840:bme280.c      ****     if (desired_settings & (BME280_OSR_PRESS_SEL | BME280_OSR_TEMP_SEL))
 1649              		.loc 1 840 0
 1650 0018 B307     		lsls	r3, r6, #30
 1651 001a 04D0     		beq	.L70
 842:bme280.c      ****         rslt = set_osr_press_temp_settings(desired_settings, settings, dev);
 1652              		.loc 1 842 0
 1653 001c 2A00     		movs	r2, r5
 1654 001e 2100     		movs	r1, r4
 1655 0020 3000     		movs	r0, r6
 1656              	.LVL220:
 1657 0022 FFF7FEFF 		bl	set_osr_press_temp_settings
 1658              	.LVL221:
 1659              	.L70:
 846:bme280.c      **** }
 1660              		.loc 1 846 0
 1661              		@ sp needed
 1662              	.LVL222:
 1663              	.LVL223:
 1664 0026 70BD     		pop	{r4, r5, r6, pc}
 1665              		.cfi_endproc
 1666              	.LFE12:
 1667              		.size	set_osr_settings, .-set_osr_settings
 1668              		.section	.text.set_filter_standby_settings,"ax",%progbits
 1669              		.align	2
 1670              		.code	16
 1671              		.thumb_func
 1672              		.type	set_filter_standby_settings, %function
 1673              	set_filter_standby_settings:
 1674              	.LFB15:
 917:bme280.c      **** {
 1675              		.loc 1 917 0
 1676              		.cfi_startproc
 1677              		@ args = 0, pretend = 0, frame = 8
 1678              		@ frame_needed = 0, uses_anonymous_args = 0
ARM GAS  C:\Users\simon\AppData\Local\Temp\cc07ySAM.s 			page 58


 1679              	.LVL224:
 1680 0000 70B5     		push	{r4, r5, r6, lr}
 1681              		.cfi_def_cfa_offset 16
 1682              		.cfi_offset 4, -16
 1683              		.cfi_offset 5, -12
 1684              		.cfi_offset 6, -8
 1685              		.cfi_offset 14, -4
 1686 0002 82B0     		sub	sp, sp, #8
 1687              		.cfi_def_cfa_offset 24
 1688 0004 0600     		movs	r6, r0
 1689 0006 0D00     		movs	r5, r1
 1690 0008 1400     		movs	r4, r2
 919:bme280.c      ****     uint8_t reg_addr = BME280_CONFIG_ADDR;
 1691              		.loc 1 919 0
 1692 000a F522     		movs	r2, #245
 1693              	.LVL225:
 1694 000c 6B46     		mov	r3, sp
 1695 000e DA71     		strb	r2, [r3, #7]
 922:bme280.c      ****     rslt = bme280_get_regs(reg_addr, &reg_data, 1, dev);
 1696              		.loc 1 922 0
 1697 0010 2300     		movs	r3, r4
 1698 0012 F43A     		subs	r2, r2, #244
 1699 0014 6946     		mov	r1, sp
 1700              	.LVL226:
 1701 0016 0631     		adds	r1, r1, #6
 1702 0018 F520     		movs	r0, #245
 1703              	.LVL227:
 1704 001a FFF7FEFF 		bl	bme280_get_regs
 1705              	.LVL228:
 923:bme280.c      ****     if (rslt == BME280_OK)
 1706              		.loc 1 923 0
 1707 001e 0028     		cmp	r0, #0
 1708 0020 15D1     		bne	.L73
 925:bme280.c      ****         if (desired_settings & BME280_FILTER_SEL)
 1709              		.loc 1 925 0
 1710 0022 3307     		lsls	r3, r6, #28
 1711 0024 04D5     		bpl	.L74
 927:bme280.c      ****             fill_filter_settings(&reg_data, settings);
 1712              		.loc 1 927 0
 1713 0026 2900     		movs	r1, r5
 1714 0028 6B46     		mov	r3, sp
 1715 002a 981D     		adds	r0, r3, #6
 1716              	.LVL229:
 1717 002c FFF7FEFF 		bl	fill_filter_settings
 1718              	.LVL230:
 1719              	.L74:
 929:bme280.c      ****         if (desired_settings & BME280_STANDBY_SEL)
 1720              		.loc 1 929 0
 1721 0030 F306     		lsls	r3, r6, #27
 1722 0032 04D5     		bpl	.L75
 931:bme280.c      ****             fill_standby_settings(&reg_data, settings);
 1723              		.loc 1 931 0
 1724 0034 2900     		movs	r1, r5
 1725 0036 6B46     		mov	r3, sp
 1726 0038 981D     		adds	r0, r3, #6
 1727 003a FFF7FEFF 		bl	fill_standby_settings
 1728              	.LVL231:
ARM GAS  C:\Users\simon\AppData\Local\Temp\cc07ySAM.s 			page 59


 1729              	.L75:
 935:bme280.c      ****         rslt = bme280_set_regs(&reg_addr, &reg_data, 1, dev);
 1730              		.loc 1 935 0
 1731 003e 2300     		movs	r3, r4
 1732 0040 0122     		movs	r2, #1
 1733 0042 6946     		mov	r1, sp
 1734 0044 0631     		adds	r1, r1, #6
 1735 0046 6846     		mov	r0, sp
 1736 0048 0730     		adds	r0, r0, #7
 1737 004a FFF7FEFF 		bl	bme280_set_regs
 1738              	.LVL232:
 1739              	.L73:
 939:bme280.c      **** }
 1740              		.loc 1 939 0
 1741 004e 02B0     		add	sp, sp, #8
 1742              		@ sp needed
 1743              	.LVL233:
 1744              	.LVL234:
 1745 0050 70BD     		pop	{r4, r5, r6, pc}
 1746              		.cfi_endproc
 1747              	.LFE15:
 1748              		.size	set_filter_standby_settings, .-set_filter_standby_settings
 1749 0052 C046     		.section	.text.reload_device_settings,"ax",%progbits
 1750              		.align	2
 1751              		.code	16
 1752              		.thumb_func
 1753              		.type	reload_device_settings, %function
 1754              	reload_device_settings:
 1755              	.LFB23:
1045:bme280.c      **** {
 1756              		.loc 1 1045 0
 1757              		.cfi_startproc
 1758              		@ args = 0, pretend = 0, frame = 0
 1759              		@ frame_needed = 0, uses_anonymous_args = 0
 1760              	.LVL235:
 1761 0000 70B5     		push	{r4, r5, r6, lr}
 1762              		.cfi_def_cfa_offset 16
 1763              		.cfi_offset 4, -16
 1764              		.cfi_offset 5, -12
 1765              		.cfi_offset 6, -8
 1766              		.cfi_offset 14, -4
 1767 0002 0400     		movs	r4, r0
 1768 0004 0D00     		movs	r5, r1
1048:bme280.c      ****     rslt = set_osr_settings(BME280_ALL_SETTINGS_SEL, settings, dev);
 1769              		.loc 1 1048 0
 1770 0006 0A00     		movs	r2, r1
 1771 0008 0100     		movs	r1, r0
 1772              	.LVL236:
 1773 000a 1F20     		movs	r0, #31
 1774              	.LVL237:
 1775 000c FFF7FEFF 		bl	set_osr_settings
 1776              	.LVL238:
1049:bme280.c      ****     if (rslt == BME280_OK)
 1777              		.loc 1 1049 0
 1778 0010 0028     		cmp	r0, #0
 1779 0012 04D1     		bne	.L77
1051:bme280.c      ****         rslt = set_filter_standby_settings(BME280_ALL_SETTINGS_SEL, settings, dev);
ARM GAS  C:\Users\simon\AppData\Local\Temp\cc07ySAM.s 			page 60


 1780              		.loc 1 1051 0
 1781 0014 2A00     		movs	r2, r5
 1782 0016 2100     		movs	r1, r4
 1783 0018 1F30     		adds	r0, r0, #31
 1784              	.LVL239:
 1785 001a FFF7FEFF 		bl	set_filter_standby_settings
 1786              	.LVL240:
 1787              	.L77:
1055:bme280.c      **** }
 1788              		.loc 1 1055 0
 1789              		@ sp needed
 1790              	.LVL241:
 1791              	.LVL242:
 1792 001e 70BD     		pop	{r4, r5, r6, pc}
 1793              		.cfi_endproc
 1794              	.LFE23:
 1795              		.size	reload_device_settings, .-reload_device_settings
 1796              		.section	.text.write_power_mode,"ax",%progbits
 1797              		.align	2
 1798              		.code	16
 1799              		.thumb_func
 1800              		.type	write_power_mode, %function
 1801              	write_power_mode:
 1802              	.LFB21:
 995:bme280.c      **** {
 1803              		.loc 1 995 0
 1804              		.cfi_startproc
 1805              		@ args = 0, pretend = 0, frame = 8
 1806              		@ frame_needed = 0, uses_anonymous_args = 0
 1807              	.LVL243:
 1808 0000 30B5     		push	{r4, r5, lr}
 1809              		.cfi_def_cfa_offset 12
 1810              		.cfi_offset 4, -12
 1811              		.cfi_offset 5, -8
 1812              		.cfi_offset 14, -4
 1813 0002 83B0     		sub	sp, sp, #12
 1814              		.cfi_def_cfa_offset 24
 1815 0004 0400     		movs	r4, r0
 1816 0006 0D00     		movs	r5, r1
 997:bme280.c      ****     uint8_t reg_addr = BME280_PWR_CTRL_ADDR;
 1817              		.loc 1 997 0
 1818 0008 F422     		movs	r2, #244
 1819 000a 6B46     		mov	r3, sp
 1820 000c DA71     		strb	r2, [r3, #7]
1003:bme280.c      ****     rslt = bme280_get_regs(reg_addr, &sensor_mode_reg_val, 1, dev);
 1821              		.loc 1 1003 0
 1822 000e 0B00     		movs	r3, r1
 1823 0010 F33A     		subs	r2, r2, #243
 1824 0012 6946     		mov	r1, sp
 1825              	.LVL244:
 1826 0014 0631     		adds	r1, r1, #6
 1827 0016 F420     		movs	r0, #244
 1828              	.LVL245:
 1829 0018 FFF7FEFF 		bl	bme280_get_regs
 1830              	.LVL246:
1006:bme280.c      ****     if (rslt == BME280_OK)
 1831              		.loc 1 1006 0
ARM GAS  C:\Users\simon\AppData\Local\Temp\cc07ySAM.s 			page 61


 1832 001c 0028     		cmp	r0, #0
 1833 001e 0DD1     		bne	.L79
1008:bme280.c      ****         sensor_mode_reg_val = BME280_SET_BITS_POS_0(sensor_mode_reg_val, BME280_SENSOR_MODE, sensor
 1834              		.loc 1 1008 0
 1835 0020 6B46     		mov	r3, sp
 1836 0022 991D     		adds	r1, r3, #6
 1837 0024 0B78     		ldrb	r3, [r1]
 1838 0026 0322     		movs	r2, #3
 1839 0028 9343     		bics	r3, r2
 1840 002a 1440     		ands	r4, r2
 1841 002c 1C43     		orrs	r4, r3
 1842 002e 0C70     		strb	r4, [r1]
1011:bme280.c      ****         rslt = bme280_set_regs(&reg_addr, &sensor_mode_reg_val, 1, dev);
 1843              		.loc 1 1011 0
 1844 0030 2B00     		movs	r3, r5
 1845 0032 023A     		subs	r2, r2, #2
 1846 0034 6846     		mov	r0, sp
 1847              	.LVL247:
 1848 0036 0730     		adds	r0, r0, #7
 1849 0038 FFF7FEFF 		bl	bme280_set_regs
 1850              	.LVL248:
 1851              	.L79:
1015:bme280.c      **** }
 1852              		.loc 1 1015 0
 1853 003c 03B0     		add	sp, sp, #12
 1854              		@ sp needed
 1855              	.LVL249:
 1856 003e 30BD     		pop	{r4, r5, pc}
 1857              		.cfi_endproc
 1858              	.LFE21:
 1859              		.size	write_power_mode, .-write_power_mode
 1860              		.section	.text.bme280_get_sensor_settings,"ax",%progbits
 1861              		.align	2
 1862              		.global	bme280_get_sensor_settings
 1863              		.code	16
 1864              		.thumb_func
 1865              		.type	bme280_get_sensor_settings, %function
 1866              	bme280_get_sensor_settings:
 1867              	.LFB4:
 547:bme280.c      **** {
 1868              		.loc 1 547 0
 1869              		.cfi_startproc
 1870              		@ args = 0, pretend = 0, frame = 8
 1871              		@ frame_needed = 0, uses_anonymous_args = 0
 1872              	.LVL250:
 1873 0000 30B5     		push	{r4, r5, lr}
 1874              		.cfi_def_cfa_offset 12
 1875              		.cfi_offset 4, -12
 1876              		.cfi_offset 5, -8
 1877              		.cfi_offset 14, -4
 1878 0002 83B0     		sub	sp, sp, #12
 1879              		.cfi_def_cfa_offset 24
 1880 0004 0500     		movs	r5, r0
 552:bme280.c      ****     rslt = null_ptr_check(dev);
 1881              		.loc 1 552 0
 1882 0006 FFF7FEFF 		bl	null_ptr_check
 1883              	.LVL251:
ARM GAS  C:\Users\simon\AppData\Local\Temp\cc07ySAM.s 			page 62


 1884 000a 041E     		subs	r4, r0, #0
 1885              	.LVL252:
 555:bme280.c      ****     if (rslt == BME280_OK)
 1886              		.loc 1 555 0
 1887 000c 0CD1     		bne	.L81
 557:bme280.c      ****         rslt = bme280_get_regs(BME280_CTRL_HUM_ADDR, reg_data, 4, dev);
 1888              		.loc 1 557 0
 1889 000e 2B00     		movs	r3, r5
 1890 0010 0422     		movs	r2, #4
 1891 0012 01A9     		add	r1, sp, #4
 1892 0014 F220     		movs	r0, #242
 1893              	.LVL253:
 1894 0016 FFF7FEFF 		bl	bme280_get_regs
 1895              	.LVL254:
 1896 001a 041E     		subs	r4, r0, #0
 1897              	.LVL255:
 558:bme280.c      ****         if (rslt == BME280_OK)
 1898              		.loc 1 558 0
 1899 001c 04D1     		bne	.L81
 560:bme280.c      ****             parse_device_settings(reg_data, &dev->settings);
 1900              		.loc 1 560 0
 1901 001e 2900     		movs	r1, r5
 1902 0020 3831     		adds	r1, r1, #56
 1903 0022 01A8     		add	r0, sp, #4
 1904              	.LVL256:
 1905 0024 FFF7FEFF 		bl	parse_device_settings
 1906              	.LVL257:
 1907              	.L81:
 565:bme280.c      **** }
 1908              		.loc 1 565 0
 1909 0028 2000     		movs	r0, r4
 1910 002a 03B0     		add	sp, sp, #12
 1911              		@ sp needed
 1912              	.LVL258:
 1913              	.LVL259:
 1914 002c 30BD     		pop	{r4, r5, pc}
 1915              		.cfi_endproc
 1916              	.LFE4:
 1917              		.size	bme280_get_sensor_settings, .-bme280_get_sensor_settings
 1918 002e C046     		.section	.text.bme280_get_sensor_mode,"ax",%progbits
 1919              		.align	2
 1920              		.global	bme280_get_sensor_mode
 1921              		.code	16
 1922              		.thumb_func
 1923              		.type	bme280_get_sensor_mode, %function
 1924              	bme280_get_sensor_mode:
 1925              	.LFB6:
 603:bme280.c      **** {
 1926              		.loc 1 603 0
 1927              		.cfi_startproc
 1928              		@ args = 0, pretend = 0, frame = 0
 1929              		@ frame_needed = 0, uses_anonymous_args = 0
 1930              	.LVL260:
 1931 0000 70B5     		push	{r4, r5, r6, lr}
 1932              		.cfi_def_cfa_offset 16
 1933              		.cfi_offset 4, -16
 1934              		.cfi_offset 5, -12
ARM GAS  C:\Users\simon\AppData\Local\Temp\cc07ySAM.s 			page 63


 1935              		.cfi_offset 6, -8
 1936              		.cfi_offset 14, -4
 1937 0002 0400     		movs	r4, r0
 1938 0004 0D00     		movs	r5, r1
 607:bme280.c      ****     rslt = null_ptr_check(dev);
 1939              		.loc 1 607 0
 1940 0006 0800     		movs	r0, r1
 1941              	.LVL261:
 1942 0008 FFF7FEFF 		bl	null_ptr_check
 1943              	.LVL262:
 608:bme280.c      ****     if (rslt == BME280_OK)
 1944              		.loc 1 608 0
 1945 000c 0028     		cmp	r0, #0
 1946 000e 09D1     		bne	.L83
 611:bme280.c      ****         rslt = bme280_get_regs(BME280_PWR_CTRL_ADDR, sensor_mode, 1, dev);
 1947              		.loc 1 611 0
 1948 0010 2B00     		movs	r3, r5
 1949 0012 0122     		movs	r2, #1
 1950 0014 2100     		movs	r1, r4
 1951 0016 F430     		adds	r0, r0, #244
 1952              	.LVL263:
 1953 0018 FFF7FEFF 		bl	bme280_get_regs
 1954              	.LVL264:
 614:bme280.c      ****         *sensor_mode = BME280_GET_BITS_POS_0(*sensor_mode, BME280_SENSOR_MODE);
 1955              		.loc 1 614 0
 1956 001c 2378     		ldrb	r3, [r4]
 1957 001e 0322     		movs	r2, #3
 1958 0020 1340     		ands	r3, r2
 1959 0022 2370     		strb	r3, [r4]
 1960              	.LVL265:
 1961              	.L83:
 618:bme280.c      **** }
 1962              		.loc 1 618 0
 1963              		@ sp needed
 1964              	.LVL266:
 1965              	.LVL267:
 1966 0024 70BD     		pop	{r4, r5, r6, pc}
 1967              		.cfi_endproc
 1968              	.LFE6:
 1969              		.size	bme280_get_sensor_mode, .-bme280_get_sensor_mode
 1970 0026 C046     		.section	.text.bme280_soft_reset,"ax",%progbits
 1971              		.align	2
 1972              		.global	bme280_soft_reset
 1973              		.code	16
 1974              		.thumb_func
 1975              		.type	bme280_soft_reset, %function
 1976              	bme280_soft_reset:
 1977              	.LFB7:
 624:bme280.c      **** {
 1978              		.loc 1 624 0
 1979              		.cfi_startproc
 1980              		@ args = 0, pretend = 0, frame = 8
 1981              		@ frame_needed = 0, uses_anonymous_args = 0
 1982              	.LVL268:
 1983 0000 30B5     		push	{r4, r5, lr}
 1984              		.cfi_def_cfa_offset 12
 1985              		.cfi_offset 4, -12
ARM GAS  C:\Users\simon\AppData\Local\Temp\cc07ySAM.s 			page 64


 1986              		.cfi_offset 5, -8
 1987              		.cfi_offset 14, -4
 1988 0002 83B0     		sub	sp, sp, #12
 1989              		.cfi_def_cfa_offset 24
 1990 0004 0500     		movs	r5, r0
 626:bme280.c      ****     uint8_t reg_addr = BME280_RESET_ADDR;
 1991              		.loc 1 626 0
 1992 0006 E022     		movs	r2, #224
 1993 0008 6B46     		mov	r3, sp
 1994 000a DA71     		strb	r2, [r3, #7]
 627:bme280.c      ****     uint8_t status_reg = 0;
 1995              		.loc 1 627 0
 1996 000c 0022     		movs	r2, #0
 1997 000e 6B46     		mov	r3, sp
 1998 0010 9A71     		strb	r2, [r3, #6]
 1999              	.LVL269:
 631:bme280.c      ****     uint8_t soft_rst_cmd = BME280_SOFT_RESET_COMMAND;
 2000              		.loc 1 631 0
 2001 0012 B632     		adds	r2, r2, #182
 2002 0014 6B46     		mov	r3, sp
 2003 0016 5A71     		strb	r2, [r3, #5]
 634:bme280.c      ****     rslt = null_ptr_check(dev);
 2004              		.loc 1 634 0
 2005 0018 FFF7FEFF 		bl	null_ptr_check
 2006              	.LVL270:
 637:bme280.c      ****     if (rslt == BME280_OK)
 2007              		.loc 1 637 0
 2008 001c 0028     		cmp	r0, #0
 2009 001e 28D1     		bne	.L85
 640:bme280.c      ****         rslt = bme280_set_regs(&reg_addr, &soft_rst_cmd, 1, dev);
 2010              		.loc 1 640 0
 2011 0020 2B00     		movs	r3, r5
 2012 0022 0122     		movs	r2, #1
 2013 0024 6946     		mov	r1, sp
 2014 0026 0531     		adds	r1, r1, #5
 2015 0028 6846     		mov	r0, sp
 2016              	.LVL271:
 2017 002a 0730     		adds	r0, r0, #7
 2018 002c FFF7FEFF 		bl	bme280_set_regs
 2019              	.LVL272:
 642:bme280.c      ****         if (rslt == BME280_OK)
 2020              		.loc 1 642 0
 2021 0030 0028     		cmp	r0, #0
 2022 0032 1ED1     		bne	.L85
 2023 0034 0524     		movs	r4, #5
 2024 0036 00E0     		b	.L87
 2025              	.LVL273:
 2026              	.L88:
 650:bme280.c      ****             } while ((rslt == BME280_OK) && (try_run--) && (status_reg & BME280_STATUS_IM_UPDATE));
 2027              		.loc 1 650 0
 2028 0038 1C00     		movs	r4, r3
 2029              	.LVL274:
 2030              	.L87:
 648:bme280.c      ****                 dev->delay_ms(2);
 2031              		.loc 1 648 0 discriminator 3
 2032 003a 0220     		movs	r0, #2
 2033 003c EB68     		ldr	r3, [r5, #12]
ARM GAS  C:\Users\simon\AppData\Local\Temp\cc07ySAM.s 			page 65


 2034 003e 9847     		blx	r3
 2035              	.LVL275:
 649:bme280.c      ****                 rslt = bme280_get_regs(BME280_STATUS_REG_ADDR, &status_reg, 1, dev);
 2036              		.loc 1 649 0 discriminator 3
 2037 0040 2B00     		movs	r3, r5
 2038 0042 0122     		movs	r2, #1
 2039 0044 6946     		mov	r1, sp
 2040 0046 0631     		adds	r1, r1, #6
 2041 0048 F320     		movs	r0, #243
 2042 004a FFF7FEFF 		bl	bme280_get_regs
 2043              	.LVL276:
 650:bme280.c      ****             } while ((rslt == BME280_OK) && (try_run--) && (status_reg & BME280_STATUS_IM_UPDATE));
 2044              		.loc 1 650 0 discriminator 3
 2045 004e 0028     		cmp	r0, #0
 2046 0050 08D1     		bne	.L86
 650:bme280.c      ****             } while ((rslt == BME280_OK) && (try_run--) && (status_reg & BME280_STATUS_IM_UPDATE));
 2047              		.loc 1 650 0 is_stmt 0 discriminator 1
 2048 0052 631E     		subs	r3, r4, #1
 2049 0054 DBB2     		uxtb	r3, r3
 2050              	.LVL277:
 2051 0056 002C     		cmp	r4, #0
 2052 0058 04D0     		beq	.L86
 650:bme280.c      ****             } while ((rslt == BME280_OK) && (try_run--) && (status_reg & BME280_STATUS_IM_UPDATE));
 2053              		.loc 1 650 0 discriminator 2
 2054 005a 6A46     		mov	r2, sp
 2055 005c 0632     		adds	r2, r2, #6
 2056 005e 1278     		ldrb	r2, [r2]
 2057 0060 D207     		lsls	r2, r2, #31
 2058 0062 E9D4     		bmi	.L88
 2059              	.LVL278:
 2060              	.L86:
 652:bme280.c      ****             if (status_reg & BME280_STATUS_IM_UPDATE)
 2061              		.loc 1 652 0 is_stmt 1
 2062 0064 6B46     		mov	r3, sp
 2063 0066 0633     		adds	r3, r3, #6
 2064 0068 1B78     		ldrb	r3, [r3]
 2065 006a DB07     		lsls	r3, r3, #31
 2066 006c 01D5     		bpl	.L85
 654:bme280.c      ****                 rslt = BME280_E_NVM_COPY_FAILED;
 2067              		.loc 1 654 0
 2068 006e 0620     		movs	r0, #6
 2069              	.LVL279:
 2070 0070 4042     		rsbs	r0, r0, #0
 2071              	.L85:
 2072              	.LVL280:
 661:bme280.c      **** }
 2073              		.loc 1 661 0
 2074 0072 03B0     		add	sp, sp, #12
 2075              		@ sp needed
 2076              	.LVL281:
 2077 0074 30BD     		pop	{r4, r5, pc}
 2078              		.cfi_endproc
 2079              	.LFE7:
 2080              		.size	bme280_soft_reset, .-bme280_soft_reset
 2081 0076 C046     		.section	.text.bme280_init,"ax",%progbits
 2082              		.align	2
 2083              		.global	bme280_init
ARM GAS  C:\Users\simon\AppData\Local\Temp\cc07ySAM.s 			page 66


 2084              		.code	16
 2085              		.thumb_func
 2086              		.type	bme280_init, %function
 2087              	bme280_init:
 2088              	.LFB0:
 350:bme280.c      **** {
 2089              		.loc 1 350 0
 2090              		.cfi_startproc
 2091              		@ args = 0, pretend = 0, frame = 8
 2092              		@ frame_needed = 0, uses_anonymous_args = 0
 2093              	.LVL282:
 2094 0000 70B5     		push	{r4, r5, r6, lr}
 2095              		.cfi_def_cfa_offset 16
 2096              		.cfi_offset 4, -16
 2097              		.cfi_offset 5, -12
 2098              		.cfi_offset 6, -8
 2099              		.cfi_offset 14, -4
 2100 0002 82B0     		sub	sp, sp, #8
 2101              		.cfi_def_cfa_offset 24
 2102 0004 0600     		movs	r6, r0
 2103              	.LVL283:
 355:bme280.c      ****     uint8_t chip_id = 0;
 2104              		.loc 1 355 0
 2105 0006 0022     		movs	r2, #0
 2106 0008 6B46     		mov	r3, sp
 2107 000a DA71     		strb	r2, [r3, #7]
 358:bme280.c      ****     rslt = null_ptr_check(dev);
 2108              		.loc 1 358 0
 2109 000c FFF7FEFF 		bl	null_ptr_check
 2110              	.LVL284:
 2111 0010 041E     		subs	r4, r0, #0
 2112              	.LVL285:
 361:bme280.c      ****     if (rslt == BME280_OK)
 2113              		.loc 1 361 0
 2114 0012 1FD0     		beq	.L96
 2115 0014 25E0     		b	.L92
 2116              	.LVL286:
 2117              	.L95:
 366:bme280.c      ****             rslt = bme280_get_regs(BME280_CHIP_ID_ADDR, &chip_id, 1, dev);
 2118              		.loc 1 366 0
 2119 0016 3300     		movs	r3, r6
 2120 0018 0122     		movs	r2, #1
 2121 001a 6946     		mov	r1, sp
 2122 001c 0731     		adds	r1, r1, #7
 2123 001e D020     		movs	r0, #208
 2124 0020 FFF7FEFF 		bl	bme280_get_regs
 2125              	.LVL287:
 2126 0024 041E     		subs	r4, r0, #0
 2127              	.LVL288:
 369:bme280.c      ****             if ((rslt == BME280_OK) && (chip_id == BME280_CHIP_ID))
 2128              		.loc 1 369 0
 2129 0026 0FD1     		bne	.L93
 369:bme280.c      ****             if ((rslt == BME280_OK) && (chip_id == BME280_CHIP_ID))
 2130              		.loc 1 369 0 is_stmt 0 discriminator 1
 2131 0028 6B46     		mov	r3, sp
 2132 002a 0733     		adds	r3, r3, #7
 2133 002c 1B78     		ldrb	r3, [r3]
ARM GAS  C:\Users\simon\AppData\Local\Temp\cc07ySAM.s 			page 67


 2134 002e 602B     		cmp	r3, #96
 2135 0030 0AD1     		bne	.L93
 371:bme280.c      ****                 dev->chip_id = chip_id;
 2136              		.loc 1 371 0 is_stmt 1
 2137 0032 3370     		strb	r3, [r6]
 374:bme280.c      ****                 rslt = bme280_soft_reset(dev);
 2138              		.loc 1 374 0
 2139 0034 3000     		movs	r0, r6
 2140              	.LVL289:
 2141 0036 FFF7FEFF 		bl	bme280_soft_reset
 2142              	.LVL290:
 2143 003a 041E     		subs	r4, r0, #0
 2144              	.LVL291:
 375:bme280.c      ****                 if (rslt == BME280_OK)
 2145              		.loc 1 375 0
 2146 003c 0DD1     		bne	.L94
 378:bme280.c      ****                     rslt = get_calib_data(dev);
 2147              		.loc 1 378 0
 2148 003e 3000     		movs	r0, r6
 2149              	.LVL292:
 2150 0040 FFF7FEFF 		bl	get_calib_data
 2151              	.LVL293:
 2152 0044 0400     		movs	r4, r0
 2153              	.LVL294:
 2154 0046 08E0     		b	.L94
 2155              	.L93:
 384:bme280.c      ****             dev->delay_ms(1);
 2156              		.loc 1 384 0
 2157 0048 0120     		movs	r0, #1
 2158              	.LVL295:
 2159 004a F368     		ldr	r3, [r6, #12]
 2160 004c 9847     		blx	r3
 2161              	.LVL296:
 385:bme280.c      ****             --try_count;
 2162              		.loc 1 385 0
 2163 004e 013D     		subs	r5, r5, #1
 2164              	.LVL297:
 2165 0050 EDB2     		uxtb	r5, r5
 2166              	.LVL298:
 2167 0052 00E0     		b	.L91
 2168              	.LVL299:
 2169              	.L96:
 2170 0054 0525     		movs	r5, #5
 2171              	.LVL300:
 2172              	.L91:
 363:bme280.c      ****         while (try_count)
 2173              		.loc 1 363 0
 2174 0056 002D     		cmp	r5, #0
 2175 0058 DDD1     		bne	.L95
 2176              	.LVL301:
 2177              	.L94:
 389:bme280.c      ****         if (!try_count)
 2178              		.loc 1 389 0
 2179 005a 002D     		cmp	r5, #0
 2180 005c 01D1     		bne	.L92
 391:bme280.c      ****             rslt = BME280_E_DEV_NOT_FOUND;
 2181              		.loc 1 391 0
ARM GAS  C:\Users\simon\AppData\Local\Temp\cc07ySAM.s 			page 68


 2182 005e 0224     		movs	r4, #2
 2183              	.LVL302:
 2184 0060 6442     		rsbs	r4, r4, #0
 2185              	.LVL303:
 2186              	.L92:
 396:bme280.c      **** }
 2187              		.loc 1 396 0
 2188 0062 2000     		movs	r0, r4
 2189 0064 02B0     		add	sp, sp, #8
 2190              		@ sp needed
 2191              	.LVL304:
 2192              	.LVL305:
 2193 0066 70BD     		pop	{r4, r5, r6, pc}
 2194              		.cfi_endproc
 2195              	.LFE0:
 2196              		.size	bme280_init, .-bme280_init
 2197              		.section	.text.put_device_to_sleep,"ax",%progbits
 2198              		.align	2
 2199              		.code	16
 2200              		.thumb_func
 2201              		.type	put_device_to_sleep, %function
 2202              	put_device_to_sleep:
 2203              	.LFB22:
1021:bme280.c      **** {
 2204              		.loc 1 1021 0
 2205              		.cfi_startproc
 2206              		@ args = 0, pretend = 0, frame = 16
 2207              		@ frame_needed = 0, uses_anonymous_args = 0
 2208              	.LVL306:
 2209 0000 10B5     		push	{r4, lr}
 2210              		.cfi_def_cfa_offset 8
 2211              		.cfi_offset 4, -8
 2212              		.cfi_offset 14, -4
 2213 0002 84B0     		sub	sp, sp, #16
 2214              		.cfi_def_cfa_offset 24
 2215 0004 0400     		movs	r4, r0
1026:bme280.c      ****     rslt = bme280_get_regs(BME280_CTRL_HUM_ADDR, reg_data, 4, dev);
 2216              		.loc 1 1026 0
 2217 0006 0300     		movs	r3, r0
 2218 0008 0422     		movs	r2, #4
 2219 000a 03A9     		add	r1, sp, #12
 2220 000c F220     		movs	r0, #242
 2221              	.LVL307:
 2222 000e FFF7FEFF 		bl	bme280_get_regs
 2223              	.LVL308:
1027:bme280.c      ****     if (rslt == BME280_OK)
 2224              		.loc 1 1027 0
 2225 0012 0028     		cmp	r0, #0
 2226 0014 0CD1     		bne	.L99
1029:bme280.c      ****         parse_device_settings(reg_data, &settings);
 2227              		.loc 1 1029 0
 2228 0016 01A9     		add	r1, sp, #4
 2229 0018 03A8     		add	r0, sp, #12
 2230              	.LVL309:
 2231 001a FFF7FEFF 		bl	parse_device_settings
 2232              	.LVL310:
1030:bme280.c      ****         rslt = bme280_soft_reset(dev);
ARM GAS  C:\Users\simon\AppData\Local\Temp\cc07ySAM.s 			page 69


 2233              		.loc 1 1030 0
 2234 001e 2000     		movs	r0, r4
 2235 0020 FFF7FEFF 		bl	bme280_soft_reset
 2236              	.LVL311:
1031:bme280.c      ****         if (rslt == BME280_OK)
 2237              		.loc 1 1031 0
 2238 0024 0028     		cmp	r0, #0
 2239 0026 03D1     		bne	.L99
1033:bme280.c      ****             rslt = reload_device_settings(&settings, dev);
 2240              		.loc 1 1033 0
 2241 0028 2100     		movs	r1, r4
 2242 002a 01A8     		add	r0, sp, #4
 2243              	.LVL312:
 2244 002c FFF7FEFF 		bl	reload_device_settings
 2245              	.LVL313:
 2246              	.L99:
1038:bme280.c      **** }
 2247              		.loc 1 1038 0
 2248 0030 04B0     		add	sp, sp, #16
 2249              		@ sp needed
 2250              	.LVL314:
 2251 0032 10BD     		pop	{r4, pc}
 2252              		.cfi_endproc
 2253              	.LFE22:
 2254              		.size	put_device_to_sleep, .-put_device_to_sleep
 2255              		.section	.text.bme280_set_sensor_settings,"ax",%progbits
 2256              		.align	2
 2257              		.global	bme280_set_sensor_settings
 2258              		.code	16
 2259              		.thumb_func
 2260              		.type	bme280_set_sensor_settings, %function
 2261              	bme280_set_sensor_settings:
 2262              	.LFB3:
 504:bme280.c      **** {
 2263              		.loc 1 504 0
 2264              		.cfi_startproc
 2265              		@ args = 0, pretend = 0, frame = 8
 2266              		@ frame_needed = 0, uses_anonymous_args = 0
 2267              	.LVL315:
 2268 0000 70B5     		push	{r4, r5, r6, lr}
 2269              		.cfi_def_cfa_offset 16
 2270              		.cfi_offset 4, -16
 2271              		.cfi_offset 5, -12
 2272              		.cfi_offset 6, -8
 2273              		.cfi_offset 14, -4
 2274 0002 82B0     		sub	sp, sp, #8
 2275              		.cfi_def_cfa_offset 24
 2276 0004 0600     		movs	r6, r0
 2277 0006 0D00     		movs	r5, r1
 509:bme280.c      ****     rslt = null_ptr_check(dev);
 2278              		.loc 1 509 0
 2279 0008 0800     		movs	r0, r1
 2280              	.LVL316:
 2281 000a FFF7FEFF 		bl	null_ptr_check
 2282              	.LVL317:
 2283 000e 041E     		subs	r4, r0, #0
 2284              	.LVL318:
ARM GAS  C:\Users\simon\AppData\Local\Temp\cc07ySAM.s 			page 70


 512:bme280.c      ****     if (rslt == BME280_OK)
 2285              		.loc 1 512 0
 2286 0010 2DD1     		bne	.L101
 514:bme280.c      ****         rslt = bme280_get_sensor_mode(&sensor_mode, dev);
 2287              		.loc 1 514 0
 2288 0012 2900     		movs	r1, r5
 2289 0014 6B46     		mov	r3, sp
 2290 0016 D81D     		adds	r0, r3, #7
 2291              	.LVL319:
 2292 0018 FFF7FEFF 		bl	bme280_get_sensor_mode
 2293              	.LVL320:
 2294 001c 041E     		subs	r4, r0, #0
 2295              	.LVL321:
 515:bme280.c      ****         if ((rslt == BME280_OK) && (sensor_mode != BME280_SLEEP_MODE))
 2296              		.loc 1 515 0
 2297 001e 08D1     		bne	.L102
 515:bme280.c      ****         if ((rslt == BME280_OK) && (sensor_mode != BME280_SLEEP_MODE))
 2298              		.loc 1 515 0 is_stmt 0 discriminator 1
 2299 0020 6B46     		mov	r3, sp
 2300 0022 0733     		adds	r3, r3, #7
 2301 0024 1B78     		ldrb	r3, [r3]
 2302 0026 002B     		cmp	r3, #0
 2303 0028 03D0     		beq	.L102
 517:bme280.c      ****             rslt = put_device_to_sleep(dev);
 2304              		.loc 1 517 0 is_stmt 1
 2305 002a 2800     		movs	r0, r5
 2306              	.LVL322:
 2307 002c FFF7FEFF 		bl	put_device_to_sleep
 2308              	.LVL323:
 2309 0030 0400     		movs	r4, r0
 2310              	.LVL324:
 2311              	.L102:
 519:bme280.c      ****         if (rslt == BME280_OK)
 2312              		.loc 1 519 0
 2313 0032 002C     		cmp	r4, #0
 2314 0034 1BD1     		bne	.L101
 524:bme280.c      ****             if (are_settings_changed(OVERSAMPLING_SETTINGS, desired_settings))
 2315              		.loc 1 524 0
 2316 0036 3100     		movs	r1, r6
 2317 0038 0720     		movs	r0, #7
 2318 003a FFF7FEFF 		bl	are_settings_changed
 2319              	.LVL325:
 2320 003e 0028     		cmp	r0, #0
 2321 0040 06D0     		beq	.L103
 526:bme280.c      ****                 rslt = set_osr_settings(desired_settings, &dev->settings, dev);
 2322              		.loc 1 526 0
 2323 0042 2900     		movs	r1, r5
 2324 0044 3831     		adds	r1, r1, #56
 2325 0046 2A00     		movs	r2, r5
 2326 0048 3000     		movs	r0, r6
 2327 004a FFF7FEFF 		bl	set_osr_settings
 2328              	.LVL326:
 2329 004e 0400     		movs	r4, r0
 2330              	.LVL327:
 2331              	.L103:
 532:bme280.c      ****             if ((rslt == BME280_OK) && are_settings_changed(FILTER_STANDBY_SETTINGS, desired_settin
 2332              		.loc 1 532 0
ARM GAS  C:\Users\simon\AppData\Local\Temp\cc07ySAM.s 			page 71


 2333 0050 002C     		cmp	r4, #0
 2334 0052 0CD1     		bne	.L101
 532:bme280.c      ****             if ((rslt == BME280_OK) && are_settings_changed(FILTER_STANDBY_SETTINGS, desired_settin
 2335              		.loc 1 532 0 is_stmt 0 discriminator 1
 2336 0054 3100     		movs	r1, r6
 2337 0056 1820     		movs	r0, #24
 2338 0058 FFF7FEFF 		bl	are_settings_changed
 2339              	.LVL328:
 2340 005c 0028     		cmp	r0, #0
 2341 005e 06D0     		beq	.L101
 534:bme280.c      ****                 rslt = set_filter_standby_settings(desired_settings, &dev->settings, dev);
 2342              		.loc 1 534 0 is_stmt 1
 2343 0060 2900     		movs	r1, r5
 2344 0062 3831     		adds	r1, r1, #56
 2345 0064 2A00     		movs	r2, r5
 2346 0066 3000     		movs	r0, r6
 2347 0068 FFF7FEFF 		bl	set_filter_standby_settings
 2348              	.LVL329:
 2349 006c 0400     		movs	r4, r0
 2350              	.LVL330:
 2351              	.L101:
 540:bme280.c      **** }
 2352              		.loc 1 540 0
 2353 006e 2000     		movs	r0, r4
 2354 0070 02B0     		add	sp, sp, #8
 2355              		@ sp needed
 2356              	.LVL331:
 2357              	.LVL332:
 2358 0072 70BD     		pop	{r4, r5, r6, pc}
 2359              		.cfi_endproc
 2360              	.LFE3:
 2361              		.size	bme280_set_sensor_settings, .-bme280_set_sensor_settings
 2362              		.section	.text.bme280_set_sensor_mode,"ax",%progbits
 2363              		.align	2
 2364              		.global	bme280_set_sensor_mode
 2365              		.code	16
 2366              		.thumb_func
 2367              		.type	bme280_set_sensor_mode, %function
 2368              	bme280_set_sensor_mode:
 2369              	.LFB5:
 571:bme280.c      **** {
 2370              		.loc 1 571 0
 2371              		.cfi_startproc
 2372              		@ args = 0, pretend = 0, frame = 8
 2373              		@ frame_needed = 0, uses_anonymous_args = 0
 2374              	.LVL333:
 2375 0000 30B5     		push	{r4, r5, lr}
 2376              		.cfi_def_cfa_offset 12
 2377              		.cfi_offset 4, -12
 2378              		.cfi_offset 5, -8
 2379              		.cfi_offset 14, -4
 2380 0002 83B0     		sub	sp, sp, #12
 2381              		.cfi_def_cfa_offset 24
 2382 0004 0500     		movs	r5, r0
 2383 0006 0C00     		movs	r4, r1
 576:bme280.c      ****     rslt = null_ptr_check(dev);
 2384              		.loc 1 576 0
ARM GAS  C:\Users\simon\AppData\Local\Temp\cc07ySAM.s 			page 72


 2385 0008 0800     		movs	r0, r1
 2386              	.LVL334:
 2387 000a FFF7FEFF 		bl	null_ptr_check
 2388              	.LVL335:
 577:bme280.c      ****     if (rslt == BME280_OK)
 2389              		.loc 1 577 0
 2390 000e 0028     		cmp	r0, #0
 2391 0010 14D1     		bne	.L105
 579:bme280.c      ****         rslt = bme280_get_sensor_mode(&last_set_mode, dev);
 2392              		.loc 1 579 0
 2393 0012 2100     		movs	r1, r4
 2394 0014 6B46     		mov	r3, sp
 2395 0016 D81D     		adds	r0, r3, #7
 2396              	.LVL336:
 2397 0018 FFF7FEFF 		bl	bme280_get_sensor_mode
 2398              	.LVL337:
 584:bme280.c      ****         if ((rslt == BME280_OK) && (last_set_mode != BME280_SLEEP_MODE))
 2399              		.loc 1 584 0
 2400 001c 0028     		cmp	r0, #0
 2401 001e 07D1     		bne	.L106
 584:bme280.c      ****         if ((rslt == BME280_OK) && (last_set_mode != BME280_SLEEP_MODE))
 2402              		.loc 1 584 0 is_stmt 0 discriminator 1
 2403 0020 6B46     		mov	r3, sp
 2404 0022 0733     		adds	r3, r3, #7
 2405 0024 1B78     		ldrb	r3, [r3]
 2406 0026 002B     		cmp	r3, #0
 2407 0028 02D0     		beq	.L106
 586:bme280.c      ****             rslt = put_device_to_sleep(dev);
 2408              		.loc 1 586 0 is_stmt 1
 2409 002a 2000     		movs	r0, r4
 2410              	.LVL338:
 2411 002c FFF7FEFF 		bl	put_device_to_sleep
 2412              	.LVL339:
 2413              	.L106:
 590:bme280.c      ****         if (rslt == BME280_OK)
 2414              		.loc 1 590 0
 2415 0030 0028     		cmp	r0, #0
 2416 0032 03D1     		bne	.L105
 592:bme280.c      ****             rslt = write_power_mode(sensor_mode, dev);
 2417              		.loc 1 592 0
 2418 0034 2100     		movs	r1, r4
 2419 0036 2800     		movs	r0, r5
 2420              	.LVL340:
 2421 0038 FFF7FEFF 		bl	write_power_mode
 2422              	.LVL341:
 2423              	.L105:
 597:bme280.c      **** }
 2424              		.loc 1 597 0
 2425 003c 03B0     		add	sp, sp, #12
 2426              		@ sp needed
 2427              	.LVL342:
 2428 003e 30BD     		pop	{r4, r5, pc}
 2429              		.cfi_endproc
 2430              	.LFE5:
 2431              		.size	bme280_set_sensor_mode, .-bme280_set_sensor_mode
 2432              		.section	.text.bme280_parse_sensor_data,"ax",%progbits
 2433              		.align	2
ARM GAS  C:\Users\simon\AppData\Local\Temp\cc07ySAM.s 			page 73


 2434              		.global	bme280_parse_sensor_data
 2435              		.code	16
 2436              		.thumb_func
 2437              		.type	bme280_parse_sensor_data, %function
 2438              	bme280_parse_sensor_data:
 2439              	.LFB9:
 708:bme280.c      **** {
 2440              		.loc 1 708 0
 2441              		.cfi_startproc
 2442              		@ args = 0, pretend = 0, frame = 0
 2443              		@ frame_needed = 0, uses_anonymous_args = 0
 2444              	.LVL343:
 2445 0000 10B5     		push	{r4, lr}
 2446              		.cfi_def_cfa_offset 8
 2447              		.cfi_offset 4, -8
 2448              		.cfi_offset 14, -4
 715:bme280.c      ****     data_msb = (uint32_t)reg_data[0] << 12;
 2449              		.loc 1 715 0
 2450 0002 0378     		ldrb	r3, [r0]
 2451 0004 1B03     		lsls	r3, r3, #12
 2452              	.LVL344:
 716:bme280.c      ****     data_lsb = (uint32_t)reg_data[1] << 4;
 2453              		.loc 1 716 0
 2454 0006 4278     		ldrb	r2, [r0, #1]
 2455 0008 1201     		lsls	r2, r2, #4
 2456              	.LVL345:
 717:bme280.c      ****     data_xlsb = (uint32_t)reg_data[2] >> 4;
 2457              		.loc 1 717 0
 2458 000a 8478     		ldrb	r4, [r0, #2]
 2459 000c 2409     		lsrs	r4, r4, #4
 2460              	.LVL346:
 718:bme280.c      ****     uncomp_data->pressure = data_msb | data_lsb | data_xlsb;
 2461              		.loc 1 718 0
 2462 000e 1343     		orrs	r3, r2
 2463              	.LVL347:
 2464 0010 2343     		orrs	r3, r4
 2465 0012 0B60     		str	r3, [r1]
 2466              	.LVL348:
 721:bme280.c      ****     data_msb = (uint32_t)reg_data[3] << 12;
 2467              		.loc 1 721 0
 2468 0014 C378     		ldrb	r3, [r0, #3]
 2469 0016 1B03     		lsls	r3, r3, #12
 2470              	.LVL349:
 722:bme280.c      ****     data_lsb = (uint32_t)reg_data[4] << 4;
 2471              		.loc 1 722 0
 2472 0018 0279     		ldrb	r2, [r0, #4]
 2473              	.LVL350:
 2474 001a 1201     		lsls	r2, r2, #4
 2475              	.LVL351:
 723:bme280.c      ****     data_xlsb = (uint32_t)reg_data[5] >> 4;
 2476              		.loc 1 723 0
 2477 001c 4479     		ldrb	r4, [r0, #5]
 2478              	.LVL352:
 2479 001e 2409     		lsrs	r4, r4, #4
 2480              	.LVL353:
 724:bme280.c      ****     uncomp_data->temperature = data_msb | data_lsb | data_xlsb;
 2481              		.loc 1 724 0
ARM GAS  C:\Users\simon\AppData\Local\Temp\cc07ySAM.s 			page 74


 2482 0020 1343     		orrs	r3, r2
 2483              	.LVL354:
 2484 0022 2343     		orrs	r3, r4
 2485 0024 4B60     		str	r3, [r1, #4]
 2486              	.LVL355:
 727:bme280.c      ****     data_msb = (uint32_t)reg_data[6] << 8;
 2487              		.loc 1 727 0
 2488 0026 8379     		ldrb	r3, [r0, #6]
 2489 0028 1B02     		lsls	r3, r3, #8
 2490              	.LVL356:
 728:bme280.c      ****     data_lsb = (uint32_t)reg_data[7];
 2491              		.loc 1 728 0
 2492 002a C279     		ldrb	r2, [r0, #7]
 2493              	.LVL357:
 729:bme280.c      ****     uncomp_data->humidity = data_msb | data_lsb;
 2494              		.loc 1 729 0
 2495 002c 1343     		orrs	r3, r2
 2496              	.LVL358:
 2497 002e 8B60     		str	r3, [r1, #8]
 2498              	.LVL359:
 730:bme280.c      **** }
 2499              		.loc 1 730 0
 2500              		@ sp needed
 2501              	.LVL360:
 2502 0030 10BD     		pop	{r4, pc}
 2503              		.cfi_endproc
 2504              	.LFE9:
 2505              		.size	bme280_parse_sensor_data, .-bme280_parse_sensor_data
 2506              		.section	.text.bme280_compensate_data,"ax",%progbits
 2507              		.align	2
 2508              		.global	bme280_compensate_data
 2509              		.code	16
 2510              		.thumb_func
 2511              		.type	bme280_compensate_data, %function
 2512              	bme280_compensate_data:
 2513              	.LFB10:
 741:bme280.c      **** {
 2514              		.loc 1 741 0
 2515              		.cfi_startproc
 2516              		@ args = 0, pretend = 0, frame = 0
 2517              		@ frame_needed = 0, uses_anonymous_args = 0
 2518              	.LVL361:
 2519 0000 F8B5     		push	{r3, r4, r5, r6, r7, lr}
 2520              		.cfi_def_cfa_offset 24
 2521              		.cfi_offset 3, -24
 2522              		.cfi_offset 4, -20
 2523              		.cfi_offset 5, -16
 2524              		.cfi_offset 6, -12
 2525              		.cfi_offset 7, -8
 2526              		.cfi_offset 14, -4
 2527 0002 0500     		movs	r5, r0
 2528 0004 0E00     		movs	r6, r1
 2529 0006 1400     		movs	r4, r2
 2530 0008 1F00     		movs	r7, r3
 2531              	.LVL362:
 744:bme280.c      ****     if ((uncomp_data != NULL) && (comp_data != NULL) && (calib_data != NULL))
 2532              		.loc 1 744 0
ARM GAS  C:\Users\simon\AppData\Local\Temp\cc07ySAM.s 			page 75


 2533 000a 0029     		cmp	r1, #0
 2534 000c 1ED0     		beq	.L112
 744:bme280.c      ****     if ((uncomp_data != NULL) && (comp_data != NULL) && (calib_data != NULL))
 2535              		.loc 1 744 0 is_stmt 0 discriminator 1
 2536 000e 002A     		cmp	r2, #0
 2537 0010 1FD0     		beq	.L113
 744:bme280.c      ****     if ((uncomp_data != NULL) && (comp_data != NULL) && (calib_data != NULL))
 2538              		.loc 1 744 0 discriminator 2
 2539 0012 002B     		cmp	r3, #0
 2540 0014 20D0     		beq	.L114
 747:bme280.c      ****         comp_data->temperature = 0;
 2541              		.loc 1 747 0 is_stmt 1
 2542 0016 0023     		movs	r3, #0
 2543              	.LVL363:
 2544 0018 5360     		str	r3, [r2, #4]
 748:bme280.c      ****         comp_data->pressure = 0;
 2545              		.loc 1 748 0
 2546 001a 1360     		str	r3, [r2]
 749:bme280.c      ****         comp_data->humidity = 0;
 2547              		.loc 1 749 0
 2548 001c 9360     		str	r3, [r2, #8]
 752:bme280.c      ****         if (sensor_comp & (BME280_PRESS | BME280_TEMP | BME280_HUM))
 2549              		.loc 1 752 0
 2550 001e 4307     		lsls	r3, r0, #29
 2551 0020 04D0     		beq	.L110
 755:bme280.c      ****             comp_data->temperature = compensate_temperature(uncomp_data, calib_data);
 2552              		.loc 1 755 0
 2553 0022 3900     		movs	r1, r7
 2554              	.LVL364:
 2555 0024 3000     		movs	r0, r6
 2556              	.LVL365:
 2557 0026 FFF7FEFF 		bl	compensate_temperature
 2558              	.LVL366:
 2559 002a 6060     		str	r0, [r4, #4]
 2560              	.L110:
 757:bme280.c      ****         if (sensor_comp & BME280_PRESS)
 2561              		.loc 1 757 0
 2562 002c EB07     		lsls	r3, r5, #31
 2563 002e 04D5     		bpl	.L111
 760:bme280.c      ****             comp_data->pressure = compensate_pressure(uncomp_data, calib_data);
 2564              		.loc 1 760 0
 2565 0030 3900     		movs	r1, r7
 2566 0032 3000     		movs	r0, r6
 2567 0034 FFF7FEFF 		bl	compensate_pressure
 2568              	.LVL367:
 2569 0038 2060     		str	r0, [r4]
 2570              	.L111:
 762:bme280.c      ****         if (sensor_comp & BME280_HUM)
 2571              		.loc 1 762 0
 2572 003a 6B07     		lsls	r3, r5, #29
 2573 003c 0FD5     		bpl	.L115
 765:bme280.c      ****             comp_data->humidity = compensate_humidity(uncomp_data, calib_data);
 2574              		.loc 1 765 0
 2575 003e 3900     		movs	r1, r7
 2576 0040 3000     		movs	r0, r6
 2577 0042 FFF7FEFF 		bl	compensate_humidity
 2578              	.LVL368:
ARM GAS  C:\Users\simon\AppData\Local\Temp\cc07ySAM.s 			page 76


 2579 0046 A060     		str	r0, [r4, #8]
 742:bme280.c      ****     int8_t rslt = BME280_OK;
 2580              		.loc 1 742 0
 2581 0048 0020     		movs	r0, #0
 2582 004a 09E0     		b	.L109
 2583              	.LVL369:
 2584              	.L112:
 770:bme280.c      ****         rslt = BME280_E_NULL_PTR;
 2585              		.loc 1 770 0
 2586 004c 0120     		movs	r0, #1
 2587              	.LVL370:
 2588 004e 4042     		rsbs	r0, r0, #0
 2589 0050 06E0     		b	.L109
 2590              	.LVL371:
 2591              	.L113:
 2592 0052 0120     		movs	r0, #1
 2593              	.LVL372:
 2594 0054 4042     		rsbs	r0, r0, #0
 2595 0056 03E0     		b	.L109
 2596              	.LVL373:
 2597              	.L114:
 2598 0058 0120     		movs	r0, #1
 2599              	.LVL374:
 2600 005a 4042     		rsbs	r0, r0, #0
 2601 005c 00E0     		b	.L109
 2602              	.LVL375:
 2603              	.L115:
 742:bme280.c      ****     int8_t rslt = BME280_OK;
 2604              		.loc 1 742 0
 2605 005e 0020     		movs	r0, #0
 2606              	.L109:
 2607              	.LVL376:
 774:bme280.c      **** }
 2608              		.loc 1 774 0
 2609              		@ sp needed
 2610              	.LVL377:
 2611              	.LVL378:
 2612              	.LVL379:
 2613 0060 F8BD     		pop	{r3, r4, r5, r6, r7, pc}
 2614              		.cfi_endproc
 2615              	.LFE10:
 2616              		.size	bme280_compensate_data, .-bme280_compensate_data
 2617 0062 C046     		.section	.text.bme280_get_sensor_data,"ax",%progbits
 2618              		.align	2
 2619              		.global	bme280_get_sensor_data
 2620              		.code	16
 2621              		.thumb_func
 2622              		.type	bme280_get_sensor_data, %function
 2623              	bme280_get_sensor_data:
 2624              	.LFB8:
 669:bme280.c      **** {
 2625              		.loc 1 669 0
 2626              		.cfi_startproc
 2627              		@ args = 0, pretend = 0, frame = 24
 2628              		@ frame_needed = 0, uses_anonymous_args = 0
 2629              	.LVL380:
 2630 0000 70B5     		push	{r4, r5, r6, lr}
ARM GAS  C:\Users\simon\AppData\Local\Temp\cc07ySAM.s 			page 77


 2631              		.cfi_def_cfa_offset 16
 2632              		.cfi_offset 4, -16
 2633              		.cfi_offset 5, -12
 2634              		.cfi_offset 6, -8
 2635              		.cfi_offset 14, -4
 2636 0002 86B0     		sub	sp, sp, #24
 2637              		.cfi_def_cfa_offset 40
 2638 0004 0600     		movs	r6, r0
 2639 0006 0D00     		movs	r5, r1
 2640 0008 1400     		movs	r4, r2
 675:bme280.c      ****     uint8_t reg_data[BME280_P_T_H_DATA_LEN] = { 0 };
 2641              		.loc 1 675 0
 2642 000a 0822     		movs	r2, #8
 2643              	.LVL381:
 2644 000c 0021     		movs	r1, #0
 2645              	.LVL382:
 2646 000e 04A8     		add	r0, sp, #16
 2647              	.LVL383:
 2648 0010 FFF7FEFF 		bl	memset
 2649              	.LVL384:
 676:bme280.c      ****     struct bme280_uncomp_data uncomp_data = { 0, 0, 0 };
 2650              		.loc 1 676 0
 2651 0014 0023     		movs	r3, #0
 2652 0016 0193     		str	r3, [sp, #4]
 2653 0018 0293     		str	r3, [sp, #8]
 2654 001a 0393     		str	r3, [sp, #12]
 679:bme280.c      ****     rslt = null_ptr_check(dev);
 2655              		.loc 1 679 0
 2656 001c 2000     		movs	r0, r4
 2657 001e FFF7FEFF 		bl	null_ptr_check
 2658              	.LVL385:
 680:bme280.c      ****     if ((rslt == BME280_OK) && (comp_data != NULL))
 2659              		.loc 1 680 0
 2660 0022 0028     		cmp	r0, #0
 2661 0024 15D1     		bne	.L118
 680:bme280.c      ****     if ((rslt == BME280_OK) && (comp_data != NULL))
 2662              		.loc 1 680 0 is_stmt 0 discriminator 1
 2663 0026 002D     		cmp	r5, #0
 2664 0028 16D0     		beq	.L119
 683:bme280.c      ****         rslt = bme280_get_regs(BME280_DATA_ADDR, reg_data, BME280_P_T_H_DATA_LEN, dev);
 2665              		.loc 1 683 0 is_stmt 1
 2666 002a 2300     		movs	r3, r4
 2667 002c 0822     		movs	r2, #8
 2668 002e 04A9     		add	r1, sp, #16
 2669 0030 F730     		adds	r0, r0, #247
 2670              	.LVL386:
 2671 0032 FFF7FEFF 		bl	bme280_get_regs
 2672              	.LVL387:
 684:bme280.c      ****         if (rslt == BME280_OK)
 2673              		.loc 1 684 0
 2674 0036 0028     		cmp	r0, #0
 2675 0038 10D1     		bne	.L117
 687:bme280.c      ****             bme280_parse_sensor_data(reg_data, &uncomp_data);
 2676              		.loc 1 687 0
 2677 003a 01A9     		add	r1, sp, #4
 2678 003c 04A8     		add	r0, sp, #16
 2679              	.LVL388:
ARM GAS  C:\Users\simon\AppData\Local\Temp\cc07ySAM.s 			page 78


 2680 003e FFF7FEFF 		bl	bme280_parse_sensor_data
 2681              	.LVL389:
 692:bme280.c      ****             rslt = bme280_compensate_data(sensor_comp, &uncomp_data, comp_data, &dev->calib_data);
 2682              		.loc 1 692 0
 2683 0042 2300     		movs	r3, r4
 2684 0044 1033     		adds	r3, r3, #16
 2685 0046 2A00     		movs	r2, r5
 2686 0048 01A9     		add	r1, sp, #4
 2687 004a 3000     		movs	r0, r6
 2688 004c FFF7FEFF 		bl	bme280_compensate_data
 2689              	.LVL390:
 2690 0050 04E0     		b	.L117
 2691              	.L118:
 697:bme280.c      ****         rslt = BME280_E_NULL_PTR;
 2692              		.loc 1 697 0
 2693 0052 0120     		movs	r0, #1
 2694              	.LVL391:
 2695 0054 4042     		rsbs	r0, r0, #0
 2696 0056 01E0     		b	.L117
 2697              	.LVL392:
 2698              	.L119:
 2699 0058 0120     		movs	r0, #1
 2700              	.LVL393:
 2701 005a 4042     		rsbs	r0, r0, #0
 2702              	.L117:
 2703              	.LVL394:
 701:bme280.c      **** }
 2704              		.loc 1 701 0
 2705 005c 06B0     		add	sp, sp, #24
 2706              		@ sp needed
 2707              	.LVL395:
 2708              	.LVL396:
 2709 005e 70BD     		pop	{r4, r5, r6, pc}
 2710              		.cfi_endproc
 2711              	.LFE8:
 2712              		.size	bme280_get_sensor_data, .-bme280_get_sensor_data
 2713              		.global	__aeabi_idiv
 2714              		.section	.text.bme280_cal_meas_delay,"ax",%progbits
 2715              		.align	2
 2716              		.global	bme280_cal_meas_delay
 2717              		.code	16
 2718              		.thumb_func
 2719              		.type	bme280_cal_meas_delay, %function
 2720              	bme280_cal_meas_delay:
 2721              	.LFB11:
 781:bme280.c      **** {
 2722              		.loc 1 781 0
 2723              		.cfi_startproc
 2724              		@ args = 0, pretend = 0, frame = 8
 2725              		@ frame_needed = 0, uses_anonymous_args = 0
 2726              	.LVL397:
 2727 0000 10B5     		push	{r4, lr}
 2728              		.cfi_def_cfa_offset 8
 2729              		.cfi_offset 4, -8
 2730              		.cfi_offset 14, -4
 2731 0002 82B0     		sub	sp, sp, #8
 2732              		.cfi_def_cfa_offset 16
ARM GAS  C:\Users\simon\AppData\Local\Temp\cc07ySAM.s 			page 79


 2733 0004 0400     		movs	r4, r0
 788:bme280.c      ****     uint8_t osr_sett_to_act_osr[] = { 0, 1, 2, 4, 8, 16 };
 2734              		.loc 1 788 0
 2735 0006 0622     		movs	r2, #6
 2736 0008 1549     		ldr	r1, .L127
 2737 000a 6846     		mov	r0, sp
 2738              	.LVL398:
 2739 000c FFF7FEFF 		bl	memcpy
 2740              	.LVL399:
 791:bme280.c      ****     if (settings->osr_t <= 5)
 2741              		.loc 1 791 0
 2742 0010 6378     		ldrb	r3, [r4, #1]
 2743 0012 052B     		cmp	r3, #5
 2744 0014 02D8     		bhi	.L124
 793:bme280.c      ****         temp_osr = osr_sett_to_act_osr[settings->osr_t];
 2745              		.loc 1 793 0
 2746 0016 6A46     		mov	r2, sp
 2747 0018 D05C     		ldrb	r0, [r2, r3]
 2748              	.LVL400:
 2749 001a 00E0     		b	.L121
 2750              	.LVL401:
 2751              	.L124:
 797:bme280.c      ****         temp_osr = 16;
 2752              		.loc 1 797 0
 2753 001c 1020     		movs	r0, #16
 2754              	.L121:
 2755              	.LVL402:
 800:bme280.c      ****     if (settings->osr_p <= 5)
 2756              		.loc 1 800 0
 2757 001e 2378     		ldrb	r3, [r4]
 2758 0020 052B     		cmp	r3, #5
 2759 0022 02D8     		bhi	.L125
 802:bme280.c      ****         pres_osr = osr_sett_to_act_osr[settings->osr_p];
 2760              		.loc 1 802 0
 2761 0024 6A46     		mov	r2, sp
 2762 0026 D25C     		ldrb	r2, [r2, r3]
 2763              	.LVL403:
 2764 0028 00E0     		b	.L122
 2765              	.LVL404:
 2766              	.L125:
 806:bme280.c      ****         pres_osr = 16;
 2767              		.loc 1 806 0
 2768 002a 1022     		movs	r2, #16
 2769              	.L122:
 2770              	.LVL405:
 809:bme280.c      ****     if (settings->osr_h <= 5)
 2771              		.loc 1 809 0
 2772 002c A378     		ldrb	r3, [r4, #2]
 2773 002e 052B     		cmp	r3, #5
 2774 0030 02D8     		bhi	.L126
 811:bme280.c      ****         hum_osr = osr_sett_to_act_osr[settings->osr_h];
 2775              		.loc 1 811 0
 2776 0032 6946     		mov	r1, sp
 2777 0034 CC5C     		ldrb	r4, [r1, r3]
 2778              	.LVL406:
 2779 0036 00E0     		b	.L123
 2780              	.LVL407:
ARM GAS  C:\Users\simon\AppData\Local\Temp\cc07ySAM.s 			page 80


 2781              	.L126:
 815:bme280.c      ****         hum_osr = 16;
 2782              		.loc 1 815 0
 2783 0038 1024     		movs	r4, #16
 2784              	.LVL408:
 2785              	.L123:
 819:bme280.c      ****         (uint32_t)((BME280_MEAS_OFFSET + (BME280_MEAS_DUR * temp_osr) +
 2786              		.loc 1 819 0
 2787 003a 0A4B     		ldr	r3, .L127+4
 2788 003c 0100     		movs	r1, r0
 2789 003e 5943     		muls	r1, r3
 2790 0040 0948     		ldr	r0, .L127+8
 2791              	.LVL409:
 2792 0042 0818     		adds	r0, r1, r0
 820:bme280.c      ****                     ((BME280_MEAS_DUR * pres_osr) + BME280_PRES_HUM_MEAS_OFFSET) +
 2793              		.loc 1 820 0
 2794 0044 5A43     		muls	r2, r3
 2795              	.LVL410:
 2796 0046 0949     		ldr	r1, .L127+12
 2797 0048 8C46     		mov	ip, r1
 2798 004a 6244     		add	r2, r2, ip
 819:bme280.c      ****         (uint32_t)((BME280_MEAS_OFFSET + (BME280_MEAS_DUR * temp_osr) +
 2799              		.loc 1 819 0
 2800 004c 8018     		adds	r0, r0, r2
 821:bme280.c      ****                     ((BME280_MEAS_DUR * hum_osr) + BME280_PRES_HUM_MEAS_OFFSET)) / BME280_MEAS_SCAL
 2801              		.loc 1 821 0
 2802 004e 6343     		muls	r3, r4
 2803 0050 6344     		add	r3, r3, ip
 820:bme280.c      ****                     ((BME280_MEAS_DUR * pres_osr) + BME280_PRES_HUM_MEAS_OFFSET) +
 2804              		.loc 1 820 0
 2805 0052 C018     		adds	r0, r0, r3
 821:bme280.c      ****                     ((BME280_MEAS_DUR * hum_osr) + BME280_PRES_HUM_MEAS_OFFSET)) / BME280_MEAS_SCAL
 2806              		.loc 1 821 0
 2807 0054 AA31     		adds	r1, r1, #170
 2808 0056 FF31     		adds	r1, r1, #255
 2809 0058 FFF7FEFF 		bl	__aeabi_idiv
 2810              	.LVL411:
 824:bme280.c      **** }
 2811              		.loc 1 824 0
 2812 005c 02B0     		add	sp, sp, #8
 2813              		@ sp needed
 2814              	.LVL412:
 2815 005e 10BD     		pop	{r4, pc}
 2816              	.L128:
 2817              		.align	2
 2818              	.L127:
 2819 0060 00000000 		.word	.LANCHOR0
 2820 0064 FC080000 		.word	2300
 2821 0068 E2040000 		.word	1250
 2822 006c 3F020000 		.word	575
 2823              		.cfi_endproc
 2824              	.LFE11:
 2825              		.size	bme280_cal_meas_delay, .-bme280_cal_meas_delay
 2826              		.section	.rodata
 2827              		.align	2
 2828              		.set	.LANCHOR0,. + 0
 2829              	.LC0:
ARM GAS  C:\Users\simon\AppData\Local\Temp\cc07ySAM.s 			page 81


 2830 0000 00       		.byte	0
 2831 0001 01       		.byte	1
 2832 0002 02       		.byte	2
 2833 0003 04       		.byte	4
 2834 0004 08       		.byte	8
 2835 0005 10       		.byte	16
 2836              		.text
 2837              	.Letext0:
 2838              		.file 2 "d:\\program files (x86)\\cypress\\psoc creator\\4.2\\psoc creator\\import\\gnu\\arm\\5.4.
 2839              		.file 3 "d:\\program files (x86)\\cypress\\psoc creator\\4.2\\psoc creator\\import\\gnu\\arm\\5.4.
 2840              		.file 4 "bme280_defs.h"
 2841              		.section	.debug_info,"",%progbits
 2842              	.Ldebug_info0:
 2843 0000 D4170000 		.4byte	0x17d4
 2844 0004 0400     		.2byte	0x4
 2845 0006 00000000 		.4byte	.Ldebug_abbrev0
 2846 000a 04       		.byte	0x4
 2847 000b 01       		.uleb128 0x1
 2848 000c 80000000 		.4byte	.LASF147
 2849 0010 0C       		.byte	0xc
 2850 0011 36040000 		.4byte	.LASF148
 2851 0015 75070000 		.4byte	.LASF149
 2852 0019 00000000 		.4byte	.Ldebug_ranges0+0
 2853 001d 00000000 		.4byte	0
 2854 0021 00000000 		.4byte	.Ldebug_line0
 2855 0025 02       		.uleb128 0x2
 2856 0026 83010000 		.4byte	.LASF0
 2857 002a 02       		.byte	0x2
 2858 002b 1B       		.byte	0x1b
 2859 002c 30000000 		.4byte	0x30
 2860 0030 03       		.uleb128 0x3
 2861 0031 01       		.byte	0x1
 2862 0032 06       		.byte	0x6
 2863 0033 F1010000 		.4byte	.LASF2
 2864 0037 02       		.uleb128 0x2
 2865 0038 68000000 		.4byte	.LASF1
 2866 003c 02       		.byte	0x2
 2867 003d 1D       		.byte	0x1d
 2868 003e 42000000 		.4byte	0x42
 2869 0042 03       		.uleb128 0x3
 2870 0043 01       		.byte	0x1
 2871 0044 08       		.byte	0x8
 2872 0045 96050000 		.4byte	.LASF3
 2873 0049 02       		.uleb128 0x2
 2874 004a CE020000 		.4byte	.LASF4
 2875 004e 02       		.byte	0x2
 2876 004f 29       		.byte	0x29
 2877 0050 54000000 		.4byte	0x54
 2878 0054 03       		.uleb128 0x3
 2879 0055 02       		.byte	0x2
 2880 0056 05       		.byte	0x5
 2881 0057 B2050000 		.4byte	.LASF5
 2882 005b 02       		.uleb128 0x2
 2883 005c 8C060000 		.4byte	.LASF6
 2884 0060 02       		.byte	0x2
 2885 0061 2B       		.byte	0x2b
 2886 0062 66000000 		.4byte	0x66
ARM GAS  C:\Users\simon\AppData\Local\Temp\cc07ySAM.s 			page 82


 2887 0066 03       		.uleb128 0x3
 2888 0067 02       		.byte	0x2
 2889 0068 07       		.byte	0x7
 2890 0069 BF030000 		.4byte	.LASF7
 2891 006d 02       		.uleb128 0x2
 2892 006e B9060000 		.4byte	.LASF8
 2893 0072 02       		.byte	0x2
 2894 0073 3F       		.byte	0x3f
 2895 0074 78000000 		.4byte	0x78
 2896 0078 03       		.uleb128 0x3
 2897 0079 04       		.byte	0x4
 2898 007a 05       		.byte	0x5
 2899 007b 1D020000 		.4byte	.LASF9
 2900 007f 02       		.uleb128 0x2
 2901 0080 A2020000 		.4byte	.LASF10
 2902 0084 02       		.byte	0x2
 2903 0085 41       		.byte	0x41
 2904 0086 8A000000 		.4byte	0x8a
 2905 008a 03       		.uleb128 0x3
 2906 008b 04       		.byte	0x4
 2907 008c 07       		.byte	0x7
 2908 008d 74030000 		.4byte	.LASF11
 2909 0091 02       		.uleb128 0x2
 2910 0092 65010000 		.4byte	.LASF12
 2911 0096 02       		.byte	0x2
 2912 0097 59       		.byte	0x59
 2913 0098 9C000000 		.4byte	0x9c
 2914 009c 03       		.uleb128 0x3
 2915 009d 08       		.byte	0x8
 2916 009e 05       		.byte	0x5
 2917 009f E3010000 		.4byte	.LASF13
 2918 00a3 03       		.uleb128 0x3
 2919 00a4 08       		.byte	0x8
 2920 00a5 07       		.byte	0x7
 2921 00a6 0E010000 		.4byte	.LASF14
 2922 00aa 04       		.uleb128 0x4
 2923 00ab 04       		.byte	0x4
 2924 00ac 05       		.byte	0x5
 2925 00ad 696E7400 		.ascii	"int\000"
 2926 00b1 03       		.uleb128 0x3
 2927 00b2 04       		.byte	0x4
 2928 00b3 07       		.byte	0x7
 2929 00b4 38030000 		.4byte	.LASF15
 2930 00b8 02       		.uleb128 0x2
 2931 00b9 C8060000 		.4byte	.LASF16
 2932 00bd 03       		.byte	0x3
 2933 00be 14       		.byte	0x14
 2934 00bf 25000000 		.4byte	0x25
 2935 00c3 02       		.uleb128 0x2
 2936 00c4 1E070000 		.4byte	.LASF17
 2937 00c8 03       		.byte	0x3
 2938 00c9 18       		.byte	0x18
 2939 00ca 37000000 		.4byte	0x37
 2940 00ce 02       		.uleb128 0x2
 2941 00cf DB010000 		.4byte	.LASF18
 2942 00d3 03       		.byte	0x3
 2943 00d4 20       		.byte	0x20
ARM GAS  C:\Users\simon\AppData\Local\Temp\cc07ySAM.s 			page 83


 2944 00d5 49000000 		.4byte	0x49
 2945 00d9 02       		.uleb128 0x2
 2946 00da 72020000 		.4byte	.LASF19
 2947 00de 03       		.byte	0x3
 2948 00df 24       		.byte	0x24
 2949 00e0 5B000000 		.4byte	0x5b
 2950 00e4 02       		.uleb128 0x2
 2951 00e5 8E050000 		.4byte	.LASF20
 2952 00e9 03       		.byte	0x3
 2953 00ea 2C       		.byte	0x2c
 2954 00eb 6D000000 		.4byte	0x6d
 2955 00ef 02       		.uleb128 0x2
 2956 00f0 5F060000 		.4byte	.LASF21
 2957 00f4 03       		.byte	0x3
 2958 00f5 30       		.byte	0x30
 2959 00f6 7F000000 		.4byte	0x7f
 2960 00fa 02       		.uleb128 0x2
 2961 00fb E8070000 		.4byte	.LASF22
 2962 00ff 03       		.byte	0x3
 2963 0100 38       		.byte	0x38
 2964 0101 91000000 		.4byte	0x91
 2965 0105 03       		.uleb128 0x3
 2966 0106 08       		.byte	0x8
 2967 0107 04       		.byte	0x4
 2968 0108 90040000 		.4byte	.LASF23
 2969 010c 05       		.uleb128 0x5
 2970 010d FA060000 		.4byte	.LASF150
 2971 0111 01       		.byte	0x1
 2972 0112 42000000 		.4byte	0x42
 2973 0116 04       		.byte	0x4
 2974 0117 F4       		.byte	0xf4
 2975 0118 29010000 		.4byte	0x129
 2976 011c 06       		.uleb128 0x6
 2977 011d 0E050000 		.4byte	.LASF24
 2978 0121 00       		.byte	0
 2979 0122 06       		.uleb128 0x6
 2980 0123 2F070000 		.4byte	.LASF25
 2981 0127 01       		.byte	0x1
 2982 0128 00       		.byte	0
 2983 0129 02       		.uleb128 0x2
 2984 012a DE040000 		.4byte	.LASF26
 2985 012e 04       		.byte	0x4
 2986 012f FF       		.byte	0xff
 2987 0130 34010000 		.4byte	0x134
 2988 0134 07       		.uleb128 0x7
 2989 0135 04       		.byte	0x4
 2990 0136 3A010000 		.4byte	0x13a
 2991 013a 08       		.uleb128 0x8
 2992 013b B8000000 		.4byte	0xb8
 2993 013f 58010000 		.4byte	0x158
 2994 0143 09       		.uleb128 0x9
 2995 0144 C3000000 		.4byte	0xc3
 2996 0148 09       		.uleb128 0x9
 2997 0149 C3000000 		.4byte	0xc3
 2998 014d 09       		.uleb128 0x9
 2999 014e 58010000 		.4byte	0x158
 3000 0152 09       		.uleb128 0x9
ARM GAS  C:\Users\simon\AppData\Local\Temp\cc07ySAM.s 			page 84


 3001 0153 D9000000 		.4byte	0xd9
 3002 0157 00       		.byte	0
 3003 0158 07       		.uleb128 0x7
 3004 0159 04       		.byte	0x4
 3005 015a C3000000 		.4byte	0xc3
 3006 015e 0A       		.uleb128 0xa
 3007 015f BD010000 		.4byte	.LASF27
 3008 0163 04       		.byte	0x4
 3009 0164 0001     		.2byte	0x100
 3010 0166 6A010000 		.4byte	0x16a
 3011 016a 07       		.uleb128 0x7
 3012 016b 04       		.byte	0x4
 3013 016c 70010000 		.4byte	0x170
 3014 0170 0B       		.uleb128 0xb
 3015 0171 7B010000 		.4byte	0x17b
 3016 0175 09       		.uleb128 0x9
 3017 0176 EF000000 		.4byte	0xef
 3018 017a 00       		.byte	0
 3019 017b 0C       		.uleb128 0xc
 3020 017c 5D080000 		.4byte	.LASF47
 3021 0180 28       		.byte	0x28
 3022 0181 04       		.byte	0x4
 3023 0182 0501     		.2byte	0x105
 3024 0184 80020000 		.4byte	0x280
 3025 0188 0D       		.uleb128 0xd
 3026 0189 72040000 		.4byte	.LASF28
 3027 018d 04       		.byte	0x4
 3028 018e 0C01     		.2byte	0x10c
 3029 0190 D9000000 		.4byte	0xd9
 3030 0194 00       		.byte	0
 3031 0195 0D       		.uleb128 0xd
 3032 0196 79040000 		.4byte	.LASF29
 3033 019a 04       		.byte	0x4
 3034 019b 0D01     		.2byte	0x10d
 3035 019d CE000000 		.4byte	0xce
 3036 01a1 02       		.byte	0x2
 3037 01a2 0D       		.uleb128 0xd
 3038 01a3 80040000 		.4byte	.LASF30
 3039 01a7 04       		.byte	0x4
 3040 01a8 0E01     		.2byte	0x10e
 3041 01aa CE000000 		.4byte	0xce
 3042 01ae 04       		.byte	0x4
 3043 01af 0D       		.uleb128 0xd
 3044 01b0 FD070000 		.4byte	.LASF31
 3045 01b4 04       		.byte	0x4
 3046 01b5 0F01     		.2byte	0x10f
 3047 01b7 D9000000 		.4byte	0xd9
 3048 01bb 06       		.byte	0x6
 3049 01bc 0D       		.uleb128 0xd
 3050 01bd 04080000 		.4byte	.LASF32
 3051 01c1 04       		.byte	0x4
 3052 01c2 1001     		.2byte	0x110
 3053 01c4 CE000000 		.4byte	0xce
 3054 01c8 08       		.byte	0x8
 3055 01c9 0D       		.uleb128 0xd
 3056 01ca 0B080000 		.4byte	.LASF33
 3057 01ce 04       		.byte	0x4
ARM GAS  C:\Users\simon\AppData\Local\Temp\cc07ySAM.s 			page 85


 3058 01cf 1101     		.2byte	0x111
 3059 01d1 CE000000 		.4byte	0xce
 3060 01d5 0A       		.byte	0xa
 3061 01d6 0D       		.uleb128 0xd
 3062 01d7 12080000 		.4byte	.LASF34
 3063 01db 04       		.byte	0x4
 3064 01dc 1201     		.2byte	0x112
 3065 01de CE000000 		.4byte	0xce
 3066 01e2 0C       		.byte	0xc
 3067 01e3 0D       		.uleb128 0xd
 3068 01e4 19080000 		.4byte	.LASF35
 3069 01e8 04       		.byte	0x4
 3070 01e9 1301     		.2byte	0x113
 3071 01eb CE000000 		.4byte	0xce
 3072 01ef 0E       		.byte	0xe
 3073 01f0 0D       		.uleb128 0xd
 3074 01f1 20080000 		.4byte	.LASF36
 3075 01f5 04       		.byte	0x4
 3076 01f6 1401     		.2byte	0x114
 3077 01f8 CE000000 		.4byte	0xce
 3078 01fc 10       		.byte	0x10
 3079 01fd 0D       		.uleb128 0xd
 3080 01fe 27080000 		.4byte	.LASF37
 3081 0202 04       		.byte	0x4
 3082 0203 1501     		.2byte	0x115
 3083 0205 CE000000 		.4byte	0xce
 3084 0209 12       		.byte	0x12
 3085 020a 0D       		.uleb128 0xd
 3086 020b 2E080000 		.4byte	.LASF38
 3087 020f 04       		.byte	0x4
 3088 0210 1601     		.2byte	0x116
 3089 0212 CE000000 		.4byte	0xce
 3090 0216 14       		.byte	0x14
 3091 0217 0D       		.uleb128 0xd
 3092 0218 35080000 		.4byte	.LASF39
 3093 021c 04       		.byte	0x4
 3094 021d 1701     		.2byte	0x117
 3095 021f CE000000 		.4byte	0xce
 3096 0223 16       		.byte	0x16
 3097 0224 0D       		.uleb128 0xd
 3098 0225 3F070000 		.4byte	.LASF40
 3099 0229 04       		.byte	0x4
 3100 022a 1801     		.2byte	0x118
 3101 022c C3000000 		.4byte	0xc3
 3102 0230 18       		.byte	0x18
 3103 0231 0D       		.uleb128 0xd
 3104 0232 46070000 		.4byte	.LASF41
 3105 0236 04       		.byte	0x4
 3106 0237 1901     		.2byte	0x119
 3107 0239 CE000000 		.4byte	0xce
 3108 023d 1A       		.byte	0x1a
 3109 023e 0D       		.uleb128 0xd
 3110 023f 4D070000 		.4byte	.LASF42
 3111 0243 04       		.byte	0x4
 3112 0244 1A01     		.2byte	0x11a
 3113 0246 C3000000 		.4byte	0xc3
 3114 024a 1C       		.byte	0x1c
ARM GAS  C:\Users\simon\AppData\Local\Temp\cc07ySAM.s 			page 86


 3115 024b 0D       		.uleb128 0xd
 3116 024c 54070000 		.4byte	.LASF43
 3117 0250 04       		.byte	0x4
 3118 0251 1B01     		.2byte	0x11b
 3119 0253 CE000000 		.4byte	0xce
 3120 0257 1E       		.byte	0x1e
 3121 0258 0D       		.uleb128 0xd
 3122 0259 5B070000 		.4byte	.LASF44
 3123 025d 04       		.byte	0x4
 3124 025e 1C01     		.2byte	0x11c
 3125 0260 CE000000 		.4byte	0xce
 3126 0264 20       		.byte	0x20
 3127 0265 0D       		.uleb128 0xd
 3128 0266 62070000 		.4byte	.LASF45
 3129 026a 04       		.byte	0x4
 3130 026b 1D01     		.2byte	0x11d
 3131 026d B8000000 		.4byte	0xb8
 3132 0271 22       		.byte	0x22
 3133 0272 0D       		.uleb128 0xd
 3134 0273 C7020000 		.4byte	.LASF46
 3135 0277 04       		.byte	0x4
 3136 0278 1E01     		.2byte	0x11e
 3137 027a E4000000 		.4byte	0xe4
 3138 027e 24       		.byte	0x24
 3139 027f 00       		.byte	0
 3140 0280 0C       		.uleb128 0xc
 3141 0281 B0040000 		.4byte	.LASF48
 3142 0285 0C       		.byte	0xc
 3143 0286 04       		.byte	0x4
 3144 0287 3401     		.2byte	0x134
 3145 0289 B5020000 		.4byte	0x2b5
 3146 028d 0D       		.uleb128 0xd
 3147 028e 05050000 		.4byte	.LASF49
 3148 0292 04       		.byte	0x4
 3149 0293 3701     		.2byte	0x137
 3150 0295 EF000000 		.4byte	0xef
 3151 0299 00       		.byte	0
 3152 029a 0D       		.uleb128 0xd
 3153 029b 7B020000 		.4byte	.LASF50
 3154 029f 04       		.byte	0x4
 3155 02a0 3A01     		.2byte	0x13a
 3156 02a2 E4000000 		.4byte	0xe4
 3157 02a6 04       		.byte	0x4
 3158 02a7 0D       		.uleb128 0xd
 3159 02a8 E9030000 		.4byte	.LASF51
 3160 02ac 04       		.byte	0x4
 3161 02ad 3D01     		.2byte	0x13d
 3162 02af EF000000 		.4byte	0xef
 3163 02b3 08       		.byte	0x8
 3164 02b4 00       		.byte	0
 3165 02b5 0C       		.uleb128 0xc
 3166 02b6 0E060000 		.4byte	.LASF52
 3167 02ba 0C       		.byte	0xc
 3168 02bb 04       		.byte	0x4
 3169 02bc 4501     		.2byte	0x145
 3170 02be EA020000 		.4byte	0x2ea
 3171 02c2 0D       		.uleb128 0xd
ARM GAS  C:\Users\simon\AppData\Local\Temp\cc07ySAM.s 			page 87


 3172 02c3 05050000 		.4byte	.LASF49
 3173 02c7 04       		.byte	0x4
 3174 02c8 4801     		.2byte	0x148
 3175 02ca EF000000 		.4byte	0xef
 3176 02ce 00       		.byte	0
 3177 02cf 0D       		.uleb128 0xd
 3178 02d0 7B020000 		.4byte	.LASF50
 3179 02d4 04       		.byte	0x4
 3180 02d5 4B01     		.2byte	0x14b
 3181 02d7 EF000000 		.4byte	0xef
 3182 02db 04       		.byte	0x4
 3183 02dc 0D       		.uleb128 0xd
 3184 02dd E9030000 		.4byte	.LASF51
 3185 02e1 04       		.byte	0x4
 3186 02e2 4E01     		.2byte	0x14e
 3187 02e4 EF000000 		.4byte	0xef
 3188 02e8 08       		.byte	0x8
 3189 02e9 00       		.byte	0
 3190 02ea 0C       		.uleb128 0xc
 3191 02eb 26020000 		.4byte	.LASF53
 3192 02ef 05       		.byte	0x5
 3193 02f0 04       		.byte	0x4
 3194 02f1 5501     		.2byte	0x155
 3195 02f3 39030000 		.4byte	0x339
 3196 02f7 0D       		.uleb128 0xd
 3197 02f8 BC050000 		.4byte	.LASF54
 3198 02fc 04       		.byte	0x4
 3199 02fd 5801     		.2byte	0x158
 3200 02ff C3000000 		.4byte	0xc3
 3201 0303 00       		.byte	0
 3202 0304 0D       		.uleb128 0xd
 3203 0305 D7050000 		.4byte	.LASF55
 3204 0309 04       		.byte	0x4
 3205 030a 5B01     		.2byte	0x15b
 3206 030c C3000000 		.4byte	0xc3
 3207 0310 01       		.byte	0x1
 3208 0311 0D       		.uleb128 0xd
 3209 0312 A4050000 		.4byte	.LASF56
 3210 0316 04       		.byte	0x4
 3211 0317 5E01     		.2byte	0x15e
 3212 0319 C3000000 		.4byte	0xc3
 3213 031d 02       		.byte	0x2
 3214 031e 0D       		.uleb128 0xd
 3215 031f E4060000 		.4byte	.LASF57
 3216 0323 04       		.byte	0x4
 3217 0324 6101     		.2byte	0x161
 3218 0326 C3000000 		.4byte	0xc3
 3219 032a 03       		.byte	0x3
 3220 032b 0D       		.uleb128 0xd
 3221 032c 0A030000 		.4byte	.LASF58
 3222 0330 04       		.byte	0x4
 3223 0331 6401     		.2byte	0x164
 3224 0333 C3000000 		.4byte	0xc3
 3225 0337 04       		.byte	0x4
 3226 0338 00       		.byte	0
 3227 0339 0C       		.uleb128 0xc
 3228 033a A5040000 		.4byte	.LASF59
ARM GAS  C:\Users\simon\AppData\Local\Temp\cc07ySAM.s 			page 88


 3229 033e 40       		.byte	0x40
 3230 033f 04       		.byte	0x4
 3231 0340 6A01     		.2byte	0x16a
 3232 0342 AF030000 		.4byte	0x3af
 3233 0346 0D       		.uleb128 0xd
 3234 0347 68060000 		.4byte	.LASF60
 3235 034b 04       		.byte	0x4
 3236 034c 6D01     		.2byte	0x16d
 3237 034e C3000000 		.4byte	0xc3
 3238 0352 00       		.byte	0
 3239 0353 0D       		.uleb128 0xd
 3240 0354 3C080000 		.4byte	.LASF61
 3241 0358 04       		.byte	0x4
 3242 0359 7001     		.2byte	0x170
 3243 035b C3000000 		.4byte	0xc3
 3244 035f 01       		.byte	0x1
 3245 0360 0D       		.uleb128 0xd
 3246 0361 6D040000 		.4byte	.LASF62
 3247 0365 04       		.byte	0x4
 3248 0366 7301     		.2byte	0x173
 3249 0368 0C010000 		.4byte	0x10c
 3250 036c 02       		.byte	0x2
 3251 036d 0D       		.uleb128 0xd
 3252 036e 70060000 		.4byte	.LASF63
 3253 0372 04       		.byte	0x4
 3254 0373 7601     		.2byte	0x176
 3255 0375 29010000 		.4byte	0x129
 3256 0379 04       		.byte	0x4
 3257 037a 0D       		.uleb128 0xd
 3258 037b 3F040000 		.4byte	.LASF64
 3259 037f 04       		.byte	0x4
 3260 0380 7901     		.2byte	0x179
 3261 0382 29010000 		.4byte	0x129
 3262 0386 08       		.byte	0x8
 3263 0387 0D       		.uleb128 0xd
 3264 0388 42060000 		.4byte	.LASF65
 3265 038c 04       		.byte	0x4
 3266 038d 7C01     		.2byte	0x17c
 3267 038f 5E010000 		.4byte	0x15e
 3268 0393 0C       		.byte	0xc
 3269 0394 0D       		.uleb128 0xd
 3270 0395 3A000000 		.4byte	.LASF66
 3271 0399 04       		.byte	0x4
 3272 039a 7F01     		.2byte	0x17f
 3273 039c 7B010000 		.4byte	0x17b
 3274 03a0 10       		.byte	0x10
 3275 03a1 0D       		.uleb128 0xd
 3276 03a2 1E050000 		.4byte	.LASF67
 3277 03a6 04       		.byte	0x4
 3278 03a7 8201     		.2byte	0x182
 3279 03a9 EA020000 		.4byte	0x2ea
 3280 03ad 38       		.byte	0x38
 3281 03ae 00       		.byte	0
 3282 03af 0E       		.uleb128 0xe
 3283 03b0 CF060000 		.4byte	.LASF69
 3284 03b4 01       		.byte	0x1
 3285 03b5 B103     		.2byte	0x3b1
ARM GAS  C:\Users\simon\AppData\Local\Temp\cc07ySAM.s 			page 89


 3286 03b7 00000000 		.4byte	.LFB16
 3287 03bb 16000000 		.4byte	.LFE16-.LFB16
 3288 03bf 01       		.uleb128 0x1
 3289 03c0 9C       		.byte	0x9c
 3290 03c1 E4030000 		.4byte	0x3e4
 3291 03c5 0F       		.uleb128 0xf
 3292 03c6 2D040000 		.4byte	.LASF68
 3293 03ca 01       		.byte	0x1
 3294 03cb B103     		.2byte	0x3b1
 3295 03cd 58010000 		.4byte	0x158
 3296 03d1 01       		.uleb128 0x1
 3297 03d2 50       		.byte	0x50
 3298 03d3 10       		.uleb128 0x10
 3299 03d4 1E050000 		.4byte	.LASF67
 3300 03d8 01       		.byte	0x1
 3301 03d9 B103     		.2byte	0x3b1
 3302 03db E4030000 		.4byte	0x3e4
 3303 03df 00000000 		.4byte	.LLST0
 3304 03e3 00       		.byte	0
 3305 03e4 07       		.uleb128 0x7
 3306 03e5 04       		.byte	0x4
 3307 03e6 EA030000 		.4byte	0x3ea
 3308 03ea 11       		.uleb128 0x11
 3309 03eb EA020000 		.4byte	0x2ea
 3310 03ef 0E       		.uleb128 0xe
 3311 03f0 34050000 		.4byte	.LASF70
 3312 03f4 01       		.byte	0x1
 3313 03f5 BA03     		.2byte	0x3ba
 3314 03f7 00000000 		.4byte	.LFB17
 3315 03fb 10000000 		.4byte	.LFE17-.LFB17
 3316 03ff 01       		.uleb128 0x1
 3317 0400 9C       		.byte	0x9c
 3318 0401 24040000 		.4byte	0x424
 3319 0405 0F       		.uleb128 0xf
 3320 0406 2D040000 		.4byte	.LASF68
 3321 040a 01       		.byte	0x1
 3322 040b BA03     		.2byte	0x3ba
 3323 040d 58010000 		.4byte	0x158
 3324 0411 01       		.uleb128 0x1
 3325 0412 50       		.byte	0x50
 3326 0413 10       		.uleb128 0x10
 3327 0414 1E050000 		.4byte	.LASF67
 3328 0418 01       		.byte	0x1
 3329 0419 BA03     		.2byte	0x3ba
 3330 041b E4030000 		.4byte	0x3e4
 3331 041f 21000000 		.4byte	.LLST1
 3332 0423 00       		.byte	0
 3333 0424 0E       		.uleb128 0xe
 3334 0425 5A020000 		.4byte	.LASF71
 3335 0429 01       		.byte	0x1
 3336 042a C303     		.2byte	0x3c3
 3337 042c 00000000 		.4byte	.LFB18
 3338 0430 16000000 		.4byte	.LFE18-.LFB18
 3339 0434 01       		.uleb128 0x1
 3340 0435 9C       		.byte	0x9c
 3341 0436 59040000 		.4byte	0x459
 3342 043a 0F       		.uleb128 0xf
ARM GAS  C:\Users\simon\AppData\Local\Temp\cc07ySAM.s 			page 90


 3343 043b 2D040000 		.4byte	.LASF68
 3344 043f 01       		.byte	0x1
 3345 0440 C303     		.2byte	0x3c3
 3346 0442 58010000 		.4byte	0x158
 3347 0446 01       		.uleb128 0x1
 3348 0447 50       		.byte	0x50
 3349 0448 10       		.uleb128 0x10
 3350 0449 1E050000 		.4byte	.LASF67
 3351 044d 01       		.byte	0x1
 3352 044e C303     		.2byte	0x3c3
 3353 0450 E4030000 		.4byte	0x3e4
 3354 0454 42000000 		.4byte	.LLST2
 3355 0458 00       		.byte	0
 3356 0459 0E       		.uleb128 0xe
 3357 045a FD010000 		.4byte	.LASF72
 3358 045e 01       		.byte	0x1
 3359 045f CC03     		.2byte	0x3cc
 3360 0461 00000000 		.4byte	.LFB19
 3361 0465 10000000 		.4byte	.LFE19-.LFB19
 3362 0469 01       		.uleb128 0x1
 3363 046a 9C       		.byte	0x9c
 3364 046b 8E040000 		.4byte	0x48e
 3365 046f 0F       		.uleb128 0xf
 3366 0470 2D040000 		.4byte	.LASF68
 3367 0474 01       		.byte	0x1
 3368 0475 CC03     		.2byte	0x3cc
 3369 0477 58010000 		.4byte	0x158
 3370 047b 01       		.uleb128 0x1
 3371 047c 50       		.byte	0x50
 3372 047d 10       		.uleb128 0x10
 3373 047e 1E050000 		.4byte	.LASF67
 3374 0482 01       		.byte	0x1
 3375 0483 CC03     		.2byte	0x3cc
 3376 0485 E4030000 		.4byte	0x3e4
 3377 0489 63000000 		.4byte	.LLST3
 3378 048d 00       		.byte	0
 3379 048e 0E       		.uleb128 0xe
 3380 048f 25010000 		.4byte	.LASF73
 3381 0493 01       		.byte	0x1
 3382 0494 D603     		.2byte	0x3d6
 3383 0496 00000000 		.4byte	.LFB20
 3384 049a 28000000 		.4byte	.LFE20-.LFB20
 3385 049e 01       		.uleb128 0x1
 3386 049f 9C       		.byte	0x9c
 3387 04a0 C1040000 		.4byte	0x4c1
 3388 04a4 0F       		.uleb128 0xf
 3389 04a5 2D040000 		.4byte	.LASF68
 3390 04a9 01       		.byte	0x1
 3391 04aa D603     		.2byte	0x3d6
 3392 04ac C1040000 		.4byte	0x4c1
 3393 04b0 01       		.uleb128 0x1
 3394 04b1 50       		.byte	0x50
 3395 04b2 0F       		.uleb128 0xf
 3396 04b3 1E050000 		.4byte	.LASF67
 3397 04b7 01       		.byte	0x1
 3398 04b8 D603     		.2byte	0x3d6
 3399 04ba CC040000 		.4byte	0x4cc
ARM GAS  C:\Users\simon\AppData\Local\Temp\cc07ySAM.s 			page 91


 3400 04be 01       		.uleb128 0x1
 3401 04bf 51       		.byte	0x51
 3402 04c0 00       		.byte	0
 3403 04c1 07       		.uleb128 0x7
 3404 04c2 04       		.byte	0x4
 3405 04c3 C7040000 		.4byte	0x4c7
 3406 04c7 11       		.uleb128 0x11
 3407 04c8 C3000000 		.4byte	0xc3
 3408 04cc 07       		.uleb128 0x7
 3409 04cd 04       		.byte	0x4
 3410 04ce EA020000 		.4byte	0x2ea
 3411 04d2 12       		.uleb128 0x12
 3412 04d3 D2030000 		.4byte	.LASF79
 3413 04d7 01       		.byte	0x1
 3414 04d8 9C04     		.2byte	0x49c
 3415 04da E4000000 		.4byte	0xe4
 3416 04de 00000000 		.4byte	.LFB24
 3417 04e2 70000000 		.4byte	.LFE24-.LFB24
 3418 04e6 01       		.uleb128 0x1
 3419 04e7 9C       		.byte	0x9c
 3420 04e8 57050000 		.4byte	0x557
 3421 04ec 10       		.uleb128 0x10
 3422 04ed 45040000 		.4byte	.LASF74
 3423 04f1 01       		.byte	0x1
 3424 04f2 9C04     		.2byte	0x49c
 3425 04f4 57050000 		.4byte	0x557
 3426 04f8 84000000 		.4byte	.LLST4
 3427 04fc 0F       		.uleb128 0xf
 3428 04fd 3A000000 		.4byte	.LASF66
 3429 0501 01       		.byte	0x1
 3430 0502 9D04     		.2byte	0x49d
 3431 0504 62050000 		.4byte	0x562
 3432 0508 01       		.uleb128 0x1
 3433 0509 51       		.byte	0x51
 3434 050a 13       		.uleb128 0x13
 3435 050b 6A030000 		.4byte	.LASF75
 3436 050f 01       		.byte	0x1
 3437 0510 9F04     		.2byte	0x49f
 3438 0512 E4000000 		.4byte	0xe4
 3439 0516 A5000000 		.4byte	.LLST5
 3440 051a 13       		.uleb128 0x13
 3441 051b 6F030000 		.4byte	.LASF76
 3442 051f 01       		.byte	0x1
 3443 0520 A004     		.2byte	0x4a0
 3444 0522 E4000000 		.4byte	0xe4
 3445 0526 23010000 		.4byte	.LLST6
 3446 052a 13       		.uleb128 0x13
 3447 052b 7B020000 		.4byte	.LASF50
 3448 052f 01       		.byte	0x1
 3449 0530 A104     		.2byte	0x4a1
 3450 0532 E4000000 		.4byte	0xe4
 3451 0536 73010000 		.4byte	.LLST7
 3452 053a 14       		.uleb128 0x14
 3453 053b B7020000 		.4byte	.LASF77
 3454 053f 01       		.byte	0x1
 3455 0540 A204     		.2byte	0x4a2
 3456 0542 E4000000 		.4byte	0xe4
ARM GAS  C:\Users\simon\AppData\Local\Temp\cc07ySAM.s 			page 92


 3457 0546 E060     		.sleb128 -4000
 3458 0548 15       		.uleb128 0x15
 3459 0549 92020000 		.4byte	.LASF78
 3460 054d 01       		.byte	0x1
 3461 054e A304     		.2byte	0x4a3
 3462 0550 E4000000 		.4byte	0xe4
 3463 0554 3421     		.2byte	0x2134
 3464 0556 00       		.byte	0
 3465 0557 07       		.uleb128 0x7
 3466 0558 04       		.byte	0x4
 3467 0559 5D050000 		.4byte	0x55d
 3468 055d 11       		.uleb128 0x11
 3469 055e B5020000 		.4byte	0x2b5
 3470 0562 07       		.uleb128 0x7
 3471 0563 04       		.byte	0x4
 3472 0564 7B010000 		.4byte	0x17b
 3473 0568 16       		.uleb128 0x16
 3474 0569 4B060000 		.4byte	.LASF80
 3475 056d 01       		.byte	0x1
 3476 056e BE04     		.2byte	0x4be
 3477 0570 EF000000 		.4byte	0xef
 3478 0574 00000000 		.4byte	.LFB25
 3479 0578 2C020000 		.4byte	.LFE25-.LFB25
 3480 057c 01       		.uleb128 0x1
 3481 057d 9C       		.byte	0x9c
 3482 057e 17060000 		.4byte	0x617
 3483 0582 10       		.uleb128 0x10
 3484 0583 45040000 		.4byte	.LASF74
 3485 0587 01       		.byte	0x1
 3486 0588 BE04     		.2byte	0x4be
 3487 058a 57050000 		.4byte	0x557
 3488 058e B0010000 		.4byte	.LLST8
 3489 0592 10       		.uleb128 0x10
 3490 0593 3A000000 		.4byte	.LASF66
 3491 0597 01       		.byte	0x1
 3492 0598 BF04     		.2byte	0x4bf
 3493 059a 17060000 		.4byte	0x617
 3494 059e DC010000 		.4byte	.LLST9
 3495 05a2 13       		.uleb128 0x13
 3496 05a3 6A030000 		.4byte	.LASF75
 3497 05a7 01       		.byte	0x1
 3498 05a8 C104     		.2byte	0x4c1
 3499 05aa FA000000 		.4byte	0xfa
 3500 05ae 08020000 		.4byte	.LLST10
 3501 05b2 13       		.uleb128 0x13
 3502 05b3 6F030000 		.4byte	.LASF76
 3503 05b7 01       		.byte	0x1
 3504 05b8 C204     		.2byte	0x4c2
 3505 05ba FA000000 		.4byte	0xfa
 3506 05be 60020000 		.4byte	.LLST11
 3507 05c2 17       		.uleb128 0x17
 3508 05c3 C3060000 		.4byte	.LASF81
 3509 05c7 01       		.byte	0x1
 3510 05c8 C304     		.2byte	0x4c3
 3511 05ca FA000000 		.4byte	0xfa
 3512 05ce 00000000 		.8byte	0x800000000000
 3512      00800000 
ARM GAS  C:\Users\simon\AppData\Local\Temp\cc07ySAM.s 			page 93


 3513 05d6 13       		.uleb128 0x13
 3514 05d7 86030000 		.4byte	.LASF82
 3515 05db 01       		.byte	0x1
 3516 05dc C404     		.2byte	0x4c4
 3517 05de FA000000 		.4byte	0xfa
 3518 05e2 B0020000 		.4byte	.LLST12
 3519 05e6 13       		.uleb128 0x13
 3520 05e7 05050000 		.4byte	.LASF49
 3521 05eb 01       		.byte	0x1
 3522 05ec C504     		.2byte	0x4c5
 3523 05ee EF000000 		.4byte	0xef
 3524 05f2 D8020000 		.4byte	.LLST13
 3525 05f6 18       		.uleb128 0x18
 3526 05f7 4A050000 		.4byte	.LASF83
 3527 05fb 01       		.byte	0x1
 3528 05fc C604     		.2byte	0x4c6
 3529 05fe EF000000 		.4byte	0xef
 3530 0602 C0C62D00 		.4byte	0x2dc6c0
 3531 0606 18       		.uleb128 0x18
 3532 0607 27050000 		.4byte	.LASF84
 3533 060b 01       		.byte	0x1
 3534 060c C704     		.2byte	0x4c7
 3535 060e EF000000 		.4byte	0xef
 3536 0612 C0D8A700 		.4byte	0xa7d8c0
 3537 0616 00       		.byte	0
 3538 0617 07       		.uleb128 0x7
 3539 0618 04       		.byte	0x4
 3540 0619 1D060000 		.4byte	0x61d
 3541 061d 11       		.uleb128 0x11
 3542 061e 7B010000 		.4byte	0x17b
 3543 0622 12       		.uleb128 0x12
 3544 0623 6F010000 		.4byte	.LASF85
 3545 0627 01       		.byte	0x1
 3546 0628 2B05     		.2byte	0x52b
 3547 062a EF000000 		.4byte	0xef
 3548 062e 00000000 		.4byte	.LFB26
 3549 0632 D4000000 		.4byte	.LFE26-.LFB26
 3550 0636 01       		.uleb128 0x1
 3551 0637 9C       		.byte	0x9c
 3552 0638 CB060000 		.4byte	0x6cb
 3553 063c 10       		.uleb128 0x10
 3554 063d 45040000 		.4byte	.LASF74
 3555 0641 01       		.byte	0x1
 3556 0642 2B05     		.2byte	0x52b
 3557 0644 57050000 		.4byte	0x557
 3558 0648 01030000 		.4byte	.LLST14
 3559 064c 10       		.uleb128 0x10
 3560 064d 3A000000 		.4byte	.LASF66
 3561 0651 01       		.byte	0x1
 3562 0652 2C05     		.2byte	0x52c
 3563 0654 17060000 		.4byte	0x617
 3564 0658 22030000 		.4byte	.LLST15
 3565 065c 13       		.uleb128 0x13
 3566 065d 6A030000 		.4byte	.LASF75
 3567 0661 01       		.byte	0x1
 3568 0662 2E05     		.2byte	0x52e
 3569 0664 E4000000 		.4byte	0xe4
ARM GAS  C:\Users\simon\AppData\Local\Temp\cc07ySAM.s 			page 94


 3570 0668 43030000 		.4byte	.LLST16
 3571 066c 13       		.uleb128 0x13
 3572 066d 6F030000 		.4byte	.LASF76
 3573 0671 01       		.byte	0x1
 3574 0672 2F05     		.2byte	0x52f
 3575 0674 E4000000 		.4byte	0xe4
 3576 0678 77030000 		.4byte	.LLST17
 3577 067c 13       		.uleb128 0x13
 3578 067d C3060000 		.4byte	.LASF81
 3579 0681 01       		.byte	0x1
 3580 0682 3005     		.2byte	0x530
 3581 0684 E4000000 		.4byte	0xe4
 3582 0688 9E080000 		.4byte	.LLST18
 3583 068c 13       		.uleb128 0x13
 3584 068d 86030000 		.4byte	.LASF82
 3585 0691 01       		.byte	0x1
 3586 0692 3105     		.2byte	0x531
 3587 0694 E4000000 		.4byte	0xe4
 3588 0698 370F0000 		.4byte	.LLST19
 3589 069c 13       		.uleb128 0x13
 3590 069d 8B030000 		.4byte	.LASF86
 3591 06a1 01       		.byte	0x1
 3592 06a2 3205     		.2byte	0x532
 3593 06a4 E4000000 		.4byte	0xe4
 3594 06a8 B7110000 		.4byte	.LLST20
 3595 06ac 19       		.uleb128 0x19
 3596 06ad E9030000 		.4byte	.LASF51
 3597 06b1 01       		.byte	0x1
 3598 06b2 3305     		.2byte	0x533
 3599 06b4 EF000000 		.4byte	0xef
 3600 06b8 01       		.uleb128 0x1
 3601 06b9 50       		.byte	0x50
 3602 06ba 18       		.uleb128 0x18
 3603 06bb 35060000 		.4byte	.LASF87
 3604 06bf 01       		.byte	0x1
 3605 06c0 3405     		.2byte	0x534
 3606 06c2 EF000000 		.4byte	0xef
 3607 06c6 00900100 		.4byte	0x19000
 3608 06ca 00       		.byte	0
 3609 06cb 0E       		.uleb128 0xe
 3610 06cc 90030000 		.4byte	.LASF88
 3611 06d0 01       		.byte	0x1
 3612 06d1 7605     		.2byte	0x576
 3613 06d3 00000000 		.4byte	.LFB28
 3614 06d7 1C000000 		.4byte	.LFE28-.LFB28
 3615 06db 01       		.uleb128 0x1
 3616 06dc 9C       		.byte	0x9c
 3617 06dd 2A070000 		.4byte	0x72a
 3618 06e1 0F       		.uleb128 0xf
 3619 06e2 14020000 		.4byte	.LASF89
 3620 06e6 01       		.byte	0x1
 3621 06e7 7605     		.2byte	0x576
 3622 06e9 C1040000 		.4byte	0x4c1
 3623 06ed 01       		.uleb128 0x1
 3624 06ee 50       		.byte	0x50
 3625 06ef 0F       		.uleb128 0xf
 3626 06f0 D1010000 		.4byte	.LASF90
ARM GAS  C:\Users\simon\AppData\Local\Temp\cc07ySAM.s 			page 95


 3627 06f4 01       		.byte	0x1
 3628 06f5 7605     		.2byte	0x576
 3629 06f7 58010000 		.4byte	0x158
 3630 06fb 01       		.uleb128 0x1
 3631 06fc 51       		.byte	0x51
 3632 06fd 0F       		.uleb128 0xf
 3633 06fe 2D040000 		.4byte	.LASF68
 3634 0702 01       		.byte	0x1
 3635 0703 7605     		.2byte	0x576
 3636 0705 C1040000 		.4byte	0x4c1
 3637 0709 01       		.uleb128 0x1
 3638 070a 52       		.byte	0x52
 3639 070b 1A       		.uleb128 0x1a
 3640 070c 6C656E00 		.ascii	"len\000"
 3641 0710 01       		.byte	0x1
 3642 0711 7605     		.2byte	0x576
 3643 0713 C3000000 		.4byte	0xc3
 3644 0717 01       		.uleb128 0x1
 3645 0718 53       		.byte	0x53
 3646 0719 13       		.uleb128 0x13
 3647 071a 97060000 		.4byte	.LASF91
 3648 071e 01       		.byte	0x1
 3649 071f 7805     		.2byte	0x578
 3650 0721 C3000000 		.4byte	0xc3
 3651 0725 7D120000 		.4byte	.LLST21
 3652 0729 00       		.byte	0
 3653 072a 0E       		.uleb128 0xe
 3654 072b 4E030000 		.4byte	.LASF92
 3655 072f 01       		.byte	0x1
 3656 0730 8505     		.2byte	0x585
 3657 0732 00000000 		.4byte	.LFB29
 3658 0736 80000000 		.4byte	.LFE29-.LFB29
 3659 073a 01       		.uleb128 0x1
 3660 073b 9C       		.byte	0x9c
 3661 073c 6D070000 		.4byte	0x76d
 3662 0740 0F       		.uleb128 0xf
 3663 0741 2D040000 		.4byte	.LASF68
 3664 0745 01       		.byte	0x1
 3665 0746 8505     		.2byte	0x585
 3666 0748 C1040000 		.4byte	0x4c1
 3667 074c 01       		.uleb128 0x1
 3668 074d 50       		.byte	0x50
 3669 074e 1A       		.uleb128 0x1a
 3670 074f 64657600 		.ascii	"dev\000"
 3671 0753 01       		.byte	0x1
 3672 0754 8505     		.2byte	0x585
 3673 0756 6D070000 		.4byte	0x76d
 3674 075a 01       		.uleb128 0x1
 3675 075b 51       		.byte	0x51
 3676 075c 19       		.uleb128 0x19
 3677 075d 3A000000 		.4byte	.LASF66
 3678 0761 01       		.byte	0x1
 3679 0762 8705     		.2byte	0x587
 3680 0764 62050000 		.4byte	0x562
 3681 0768 03       		.uleb128 0x3
 3682 0769 71       		.byte	0x71
 3683 076a 10       		.sleb128 16
ARM GAS  C:\Users\simon\AppData\Local\Temp\cc07ySAM.s 			page 96


 3684 076b 9F       		.byte	0x9f
 3685 076c 00       		.byte	0
 3686 076d 07       		.uleb128 0x7
 3687 076e 04       		.byte	0x4
 3688 076f 39030000 		.4byte	0x339
 3689 0773 0E       		.uleb128 0xe
 3690 0774 F4050000 		.4byte	.LASF93
 3691 0778 01       		.byte	0x1
 3692 0779 9C05     		.2byte	0x59c
 3693 077b 00000000 		.4byte	.LFB30
 3694 077f 3A000000 		.4byte	.LFE30-.LFB30
 3695 0783 01       		.uleb128 0x1
 3696 0784 9C       		.byte	0x9c
 3697 0785 F6070000 		.4byte	0x7f6
 3698 0789 0F       		.uleb128 0xf
 3699 078a 2D040000 		.4byte	.LASF68
 3700 078e 01       		.byte	0x1
 3701 078f 9C05     		.2byte	0x59c
 3702 0791 C1040000 		.4byte	0x4c1
 3703 0795 01       		.uleb128 0x1
 3704 0796 50       		.byte	0x50
 3705 0797 1A       		.uleb128 0x1a
 3706 0798 64657600 		.ascii	"dev\000"
 3707 079c 01       		.byte	0x1
 3708 079d 9C05     		.2byte	0x59c
 3709 079f 6D070000 		.4byte	0x76d
 3710 07a3 01       		.uleb128 0x1
 3711 07a4 51       		.byte	0x51
 3712 07a5 19       		.uleb128 0x19
 3713 07a6 3A000000 		.4byte	.LASF66
 3714 07aa 01       		.byte	0x1
 3715 07ab 9E05     		.2byte	0x59e
 3716 07ad 62050000 		.4byte	0x562
 3717 07b1 03       		.uleb128 0x3
 3718 07b2 71       		.byte	0x71
 3719 07b3 10       		.sleb128 16
 3720 07b4 9F       		.byte	0x9f
 3721 07b5 13       		.uleb128 0x13
 3722 07b6 CC050000 		.4byte	.LASF94
 3723 07ba 01       		.byte	0x1
 3724 07bb 9F05     		.2byte	0x59f
 3725 07bd CE000000 		.4byte	0xce
 3726 07c1 A7120000 		.4byte	.LLST22
 3727 07c5 13       		.uleb128 0x13
 3728 07c6 87020000 		.4byte	.LASF95
 3729 07ca 01       		.byte	0x1
 3730 07cb A005     		.2byte	0x5a0
 3731 07cd CE000000 		.4byte	0xce
 3732 07d1 C9120000 		.4byte	.LLST23
 3733 07d5 13       		.uleb128 0x13
 3734 07d6 0A000000 		.4byte	.LASF96
 3735 07da 01       		.byte	0x1
 3736 07db A105     		.2byte	0x5a1
 3737 07dd CE000000 		.4byte	0xce
 3738 07e1 DC120000 		.4byte	.LLST24
 3739 07e5 13       		.uleb128 0x13
 3740 07e6 B2010000 		.4byte	.LASF97
ARM GAS  C:\Users\simon\AppData\Local\Temp\cc07ySAM.s 			page 97


 3741 07ea 01       		.byte	0x1
 3742 07eb A205     		.2byte	0x5a2
 3743 07ed CE000000 		.4byte	0xce
 3744 07f1 03130000 		.4byte	.LLST25
 3745 07f5 00       		.byte	0
 3746 07f6 12       		.uleb128 0x12
 3747 07f7 BC040000 		.4byte	.LASF98
 3748 07fb 01       		.byte	0x1
 3749 07fc B305     		.2byte	0x5b3
 3750 07fe C3000000 		.4byte	0xc3
 3751 0802 00000000 		.4byte	.LFB31
 3752 0806 0C000000 		.4byte	.LFE31-.LFB31
 3753 080a 01       		.uleb128 0x1
 3754 080b 9C       		.byte	0x9c
 3755 080c 3F080000 		.4byte	0x83f
 3756 0810 10       		.uleb128 0x10
 3757 0811 F0070000 		.4byte	.LASF99
 3758 0815 01       		.byte	0x1
 3759 0816 B305     		.2byte	0x5b3
 3760 0818 C3000000 		.4byte	0xc3
 3761 081c 16130000 		.4byte	.LLST26
 3762 0820 0F       		.uleb128 0xf
 3763 0821 17030000 		.4byte	.LASF100
 3764 0825 01       		.byte	0x1
 3765 0826 B305     		.2byte	0x5b3
 3766 0828 C3000000 		.4byte	0xc3
 3767 082c 01       		.uleb128 0x1
 3768 082d 51       		.byte	0x51
 3769 082e 13       		.uleb128 0x13
 3770 082f 08040000 		.4byte	.LASF101
 3771 0833 01       		.byte	0x1
 3772 0834 B505     		.2byte	0x5b5
 3773 0836 C3000000 		.4byte	0xc3
 3774 083a 50130000 		.4byte	.LLST27
 3775 083e 00       		.byte	0
 3776 083f 12       		.uleb128 0x12
 3777 0840 51040000 		.4byte	.LASF102
 3778 0844 01       		.byte	0x1
 3779 0845 C905     		.2byte	0x5c9
 3780 0847 B8000000 		.4byte	0xb8
 3781 084b 00000000 		.4byte	.LFB32
 3782 084f 32000000 		.4byte	.LFE32-.LFB32
 3783 0853 01       		.uleb128 0x1
 3784 0854 9C       		.byte	0x9c
 3785 0855 78080000 		.4byte	0x878
 3786 0859 1B       		.uleb128 0x1b
 3787 085a 64657600 		.ascii	"dev\000"
 3788 085e 01       		.byte	0x1
 3789 085f C905     		.2byte	0x5c9
 3790 0861 78080000 		.4byte	0x878
 3791 0865 6F130000 		.4byte	.LLST28
 3792 0869 19       		.uleb128 0x19
 3793 086a 0D070000 		.4byte	.LASF103
 3794 086e 01       		.byte	0x1
 3795 086f CB05     		.2byte	0x5cb
 3796 0871 B8000000 		.4byte	0xb8
 3797 0875 01       		.uleb128 0x1
ARM GAS  C:\Users\simon\AppData\Local\Temp\cc07ySAM.s 			page 98


 3798 0876 50       		.byte	0x50
 3799 0877 00       		.byte	0
 3800 0878 07       		.uleb128 0x7
 3801 0879 04       		.byte	0x4
 3802 087a 7E080000 		.4byte	0x87e
 3803 087e 11       		.uleb128 0x11
 3804 087f 39030000 		.4byte	0x339
 3805 0883 1C       		.uleb128 0x1c
 3806 0884 28030000 		.4byte	.LASF106
 3807 0888 01       		.byte	0x1
 3808 0889 9101     		.2byte	0x191
 3809 088b B8000000 		.4byte	0xb8
 3810 088f 00000000 		.4byte	.LFB1
 3811 0893 3C000000 		.4byte	.LFE1-.LFB1
 3812 0897 01       		.uleb128 0x1
 3813 0898 9C       		.byte	0x9c
 3814 0899 1E090000 		.4byte	0x91e
 3815 089d 10       		.uleb128 0x10
 3816 089e 14020000 		.4byte	.LASF89
 3817 08a2 01       		.byte	0x1
 3818 08a3 9101     		.2byte	0x191
 3819 08a5 C3000000 		.4byte	0xc3
 3820 08a9 F4130000 		.4byte	.LLST29
 3821 08ad 10       		.uleb128 0x10
 3822 08ae 2D040000 		.4byte	.LASF68
 3823 08b2 01       		.byte	0x1
 3824 08b3 9101     		.2byte	0x191
 3825 08b5 58010000 		.4byte	0x158
 3826 08b9 20140000 		.4byte	.LLST30
 3827 08bd 1B       		.uleb128 0x1b
 3828 08be 6C656E00 		.ascii	"len\000"
 3829 08c2 01       		.byte	0x1
 3830 08c3 9101     		.2byte	0x191
 3831 08c5 D9000000 		.4byte	0xd9
 3832 08c9 3F140000 		.4byte	.LLST31
 3833 08cd 1B       		.uleb128 0x1b
 3834 08ce 64657600 		.ascii	"dev\000"
 3835 08d2 01       		.byte	0x1
 3836 08d3 9101     		.2byte	0x191
 3837 08d5 78080000 		.4byte	0x878
 3838 08d9 60140000 		.4byte	.LLST32
 3839 08dd 13       		.uleb128 0x13
 3840 08de 0D070000 		.4byte	.LASF103
 3841 08e2 01       		.byte	0x1
 3842 08e3 9301     		.2byte	0x193
 3843 08e5 B8000000 		.4byte	0xb8
 3844 08e9 8C140000 		.4byte	.LLST33
 3845 08ed 1D       		.uleb128 0x1d
 3846 08ee 12000000 		.4byte	.LVL141
 3847 08f2 3F080000 		.4byte	0x83f
 3848 08f6 01090000 		.4byte	0x901
 3849 08fa 1E       		.uleb128 0x1e
 3850 08fb 01       		.uleb128 0x1
 3851 08fc 50       		.byte	0x50
 3852 08fd 02       		.uleb128 0x2
 3853 08fe 77       		.byte	0x77
 3854 08ff 00       		.sleb128 0
ARM GAS  C:\Users\simon\AppData\Local\Temp\cc07ySAM.s 			page 99


 3855 0900 00       		.byte	0
 3856 0901 1F       		.uleb128 0x1f
 3857 0902 30000000 		.4byte	.LVL144
 3858 0906 02       		.uleb128 0x2
 3859 0907 75       		.byte	0x75
 3860 0908 00       		.sleb128 0
 3861 0909 1E       		.uleb128 0x1e
 3862 090a 01       		.uleb128 0x1
 3863 090b 51       		.byte	0x51
 3864 090c 02       		.uleb128 0x2
 3865 090d 74       		.byte	0x74
 3866 090e 00       		.sleb128 0
 3867 090f 1E       		.uleb128 0x1e
 3868 0910 01       		.uleb128 0x1
 3869 0911 52       		.byte	0x52
 3870 0912 03       		.uleb128 0x3
 3871 0913 91       		.byte	0x91
 3872 0914 64       		.sleb128 -28
 3873 0915 06       		.byte	0x6
 3874 0916 1E       		.uleb128 0x1e
 3875 0917 01       		.uleb128 0x1
 3876 0918 53       		.byte	0x53
 3877 0919 02       		.uleb128 0x2
 3878 091a 76       		.byte	0x76
 3879 091b 00       		.sleb128 0
 3880 091c 00       		.byte	0
 3881 091d 00       		.byte	0
 3882 091e 12       		.uleb128 0x12
 3883 091f EB060000 		.4byte	.LASF104
 3884 0923 01       		.byte	0x1
 3885 0924 5205     		.2byte	0x552
 3886 0926 B8000000 		.4byte	0xb8
 3887 092a 00000000 		.4byte	.LFB27
 3888 092e 46000000 		.4byte	.LFE27-.LFB27
 3889 0932 01       		.uleb128 0x1
 3890 0933 9C       		.byte	0x9c
 3891 0934 100A0000 		.4byte	0xa10
 3892 0938 1B       		.uleb128 0x1b
 3893 0939 64657600 		.ascii	"dev\000"
 3894 093d 01       		.byte	0x1
 3895 093e 5205     		.2byte	0x552
 3896 0940 6D070000 		.4byte	0x76d
 3897 0944 B5140000 		.4byte	.LLST34
 3898 0948 13       		.uleb128 0x13
 3899 0949 0D070000 		.4byte	.LASF103
 3900 094d 01       		.byte	0x1
 3901 094e 5405     		.2byte	0x554
 3902 0950 B8000000 		.4byte	0xb8
 3903 0954 E1140000 		.4byte	.LLST35
 3904 0958 13       		.uleb128 0x13
 3905 0959 14020000 		.4byte	.LASF89
 3906 095d 01       		.byte	0x1
 3907 095e 5505     		.2byte	0x555
 3908 0960 C3000000 		.4byte	0xc3
 3909 0964 15150000 		.4byte	.LLST36
 3910 0968 19       		.uleb128 0x19
 3911 0969 3A000000 		.4byte	.LASF66
ARM GAS  C:\Users\simon\AppData\Local\Temp\cc07ySAM.s 			page 100


 3912 096d 01       		.byte	0x1
 3913 096e 5805     		.2byte	0x558
 3914 0970 100A0000 		.4byte	0xa10
 3915 0974 02       		.uleb128 0x2
 3916 0975 91       		.byte	0x91
 3917 0976 54       		.sleb128 -44
 3918 0977 1D       		.uleb128 0x1d
 3919 0978 10000000 		.4byte	.LVL151
 3920 097c C5170000 		.4byte	0x17c5
 3921 0980 95090000 		.4byte	0x995
 3922 0984 1E       		.uleb128 0x1e
 3923 0985 01       		.uleb128 0x1
 3924 0986 50       		.byte	0x50
 3925 0987 02       		.uleb128 0x2
 3926 0988 91       		.byte	0x91
 3927 0989 54       		.sleb128 -44
 3928 098a 1E       		.uleb128 0x1e
 3929 098b 01       		.uleb128 0x1
 3930 098c 51       		.byte	0x51
 3931 098d 01       		.uleb128 0x1
 3932 098e 30       		.byte	0x30
 3933 098f 1E       		.uleb128 0x1e
 3934 0990 01       		.uleb128 0x1
 3935 0991 52       		.byte	0x52
 3936 0992 01       		.uleb128 0x1
 3937 0993 4A       		.byte	0x4a
 3938 0994 00       		.byte	0
 3939 0995 1D       		.uleb128 0x1d
 3940 0996 1C000000 		.4byte	.LVL152
 3941 099a 83080000 		.4byte	0x883
 3942 099e BA090000 		.4byte	0x9ba
 3943 09a2 1E       		.uleb128 0x1e
 3944 09a3 01       		.uleb128 0x1
 3945 09a4 50       		.byte	0x50
 3946 09a5 02       		.uleb128 0x2
 3947 09a6 09       		.byte	0x9
 3948 09a7 88       		.byte	0x88
 3949 09a8 1E       		.uleb128 0x1e
 3950 09a9 01       		.uleb128 0x1
 3951 09aa 51       		.byte	0x51
 3952 09ab 02       		.uleb128 0x2
 3953 09ac 91       		.byte	0x91
 3954 09ad 54       		.sleb128 -44
 3955 09ae 1E       		.uleb128 0x1e
 3956 09af 01       		.uleb128 0x1
 3957 09b0 52       		.byte	0x52
 3958 09b1 01       		.uleb128 0x1
 3959 09b2 4A       		.byte	0x4a
 3960 09b3 1E       		.uleb128 0x1e
 3961 09b4 01       		.uleb128 0x1
 3962 09b5 53       		.byte	0x53
 3963 09b6 02       		.uleb128 0x2
 3964 09b7 75       		.byte	0x75
 3965 09b8 00       		.sleb128 0
 3966 09b9 00       		.byte	0
 3967 09ba 1D       		.uleb128 0x1d
 3968 09bb 28000000 		.4byte	.LVL155
ARM GAS  C:\Users\simon\AppData\Local\Temp\cc07ySAM.s 			page 101


 3969 09bf 2A070000 		.4byte	0x72a
 3970 09c3 D4090000 		.4byte	0x9d4
 3971 09c7 1E       		.uleb128 0x1e
 3972 09c8 01       		.uleb128 0x1
 3973 09c9 50       		.byte	0x50
 3974 09ca 02       		.uleb128 0x2
 3975 09cb 91       		.byte	0x91
 3976 09cc 54       		.sleb128 -44
 3977 09cd 1E       		.uleb128 0x1e
 3978 09ce 01       		.uleb128 0x1
 3979 09cf 51       		.byte	0x51
 3980 09d0 02       		.uleb128 0x2
 3981 09d1 75       		.byte	0x75
 3982 09d2 00       		.sleb128 0
 3983 09d3 00       		.byte	0
 3984 09d4 1D       		.uleb128 0x1d
 3985 09d5 34000000 		.4byte	.LVL156
 3986 09d9 83080000 		.4byte	0x883
 3987 09dd F9090000 		.4byte	0x9f9
 3988 09e1 1E       		.uleb128 0x1e
 3989 09e2 01       		.uleb128 0x1
 3990 09e3 50       		.byte	0x50
 3991 09e4 02       		.uleb128 0x2
 3992 09e5 09       		.byte	0x9
 3993 09e6 E1       		.byte	0xe1
 3994 09e7 1E       		.uleb128 0x1e
 3995 09e8 01       		.uleb128 0x1
 3996 09e9 51       		.byte	0x51
 3997 09ea 02       		.uleb128 0x2
 3998 09eb 91       		.byte	0x91
 3999 09ec 54       		.sleb128 -44
 4000 09ed 1E       		.uleb128 0x1e
 4001 09ee 01       		.uleb128 0x1
 4002 09ef 52       		.byte	0x52
 4003 09f0 01       		.uleb128 0x1
 4004 09f1 37       		.byte	0x37
 4005 09f2 1E       		.uleb128 0x1e
 4006 09f3 01       		.uleb128 0x1
 4007 09f4 53       		.byte	0x53
 4008 09f5 02       		.uleb128 0x2
 4009 09f6 75       		.byte	0x75
 4010 09f7 00       		.sleb128 0
 4011 09f8 00       		.byte	0
 4012 09f9 20       		.uleb128 0x20
 4013 09fa 40000000 		.4byte	.LVL159
 4014 09fe 73070000 		.4byte	0x773
 4015 0a02 1E       		.uleb128 0x1e
 4016 0a03 01       		.uleb128 0x1
 4017 0a04 50       		.byte	0x50
 4018 0a05 02       		.uleb128 0x2
 4019 0a06 91       		.byte	0x91
 4020 0a07 54       		.sleb128 -44
 4021 0a08 1E       		.uleb128 0x1e
 4022 0a09 01       		.uleb128 0x1
 4023 0a0a 51       		.byte	0x51
 4024 0a0b 02       		.uleb128 0x2
 4025 0a0c 75       		.byte	0x75
ARM GAS  C:\Users\simon\AppData\Local\Temp\cc07ySAM.s 			page 102


 4026 0a0d 00       		.sleb128 0
 4027 0a0e 00       		.byte	0
 4028 0a0f 00       		.byte	0
 4029 0a10 21       		.uleb128 0x21
 4030 0a11 C3000000 		.4byte	0xc3
 4031 0a15 200A0000 		.4byte	0xa20
 4032 0a19 22       		.uleb128 0x22
 4033 0a1a 200A0000 		.4byte	0xa20
 4034 0a1e 19       		.byte	0x19
 4035 0a1f 00       		.byte	0
 4036 0a20 03       		.uleb128 0x3
 4037 0a21 04       		.byte	0x4
 4038 0a22 07       		.byte	0x7
 4039 0a23 87040000 		.4byte	.LASF105
 4040 0a27 1C       		.uleb128 0x1c
 4041 0a28 8C010000 		.4byte	.LASF107
 4042 0a2c 01       		.byte	0x1
 4043 0a2d B201     		.2byte	0x1b2
 4044 0a2f B8000000 		.4byte	0xb8
 4045 0a33 00000000 		.4byte	.LFB2
 4046 0a37 96000000 		.4byte	.LFE2-.LFB2
 4047 0a3b 01       		.uleb128 0x1
 4048 0a3c 9C       		.byte	0x9c
 4049 0a3d 0A0B0000 		.4byte	0xb0a
 4050 0a41 10       		.uleb128 0x10
 4051 0a42 14020000 		.4byte	.LASF89
 4052 0a46 01       		.byte	0x1
 4053 0a47 B201     		.2byte	0x1b2
 4054 0a49 58010000 		.4byte	0x158
 4055 0a4d 37150000 		.4byte	.LLST37
 4056 0a51 10       		.uleb128 0x10
 4057 0a52 2D040000 		.4byte	.LASF68
 4058 0a56 01       		.byte	0x1
 4059 0a57 B201     		.2byte	0x1b2
 4060 0a59 C1040000 		.4byte	0x4c1
 4061 0a5d 63150000 		.4byte	.LLST38
 4062 0a61 1B       		.uleb128 0x1b
 4063 0a62 6C656E00 		.ascii	"len\000"
 4064 0a66 01       		.byte	0x1
 4065 0a67 B201     		.2byte	0x1b2
 4066 0a69 C3000000 		.4byte	0xc3
 4067 0a6d 8F150000 		.4byte	.LLST39
 4068 0a71 1B       		.uleb128 0x1b
 4069 0a72 64657600 		.ascii	"dev\000"
 4070 0a76 01       		.byte	0x1
 4071 0a77 B201     		.2byte	0x1b2
 4072 0a79 78080000 		.4byte	0x878
 4073 0a7d C3150000 		.4byte	.LLST40
 4074 0a81 13       		.uleb128 0x13
 4075 0a82 0D070000 		.4byte	.LASF103
 4076 0a86 01       		.byte	0x1
 4077 0a87 B401     		.2byte	0x1b4
 4078 0a89 B8000000 		.4byte	0xb8
 4079 0a8d EF150000 		.4byte	.LLST41
 4080 0a91 19       		.uleb128 0x19
 4081 0a92 D1010000 		.4byte	.LASF90
 4082 0a96 01       		.byte	0x1
ARM GAS  C:\Users\simon\AppData\Local\Temp\cc07ySAM.s 			page 103


 4083 0a97 B501     		.2byte	0x1b5
 4084 0a99 0A0B0000 		.4byte	0xb0a
 4085 0a9d 02       		.uleb128 0x2
 4086 0a9e 91       		.byte	0x91
 4087 0a9f 54       		.sleb128 -44
 4088 0aa0 13       		.uleb128 0x13
 4089 0aa1 26070000 		.4byte	.LASF108
 4090 0aa5 01       		.byte	0x1
 4091 0aa6 BB01     		.2byte	0x1bb
 4092 0aa8 D9000000 		.4byte	0xd9
 4093 0aac 4F160000 		.4byte	.LLST42
 4094 0ab0 13       		.uleb128 0x13
 4095 0ab1 D1040000 		.4byte	.LASF109
 4096 0ab5 01       		.byte	0x1
 4097 0ab6 BC01     		.2byte	0x1bc
 4098 0ab8 C3000000 		.4byte	0xc3
 4099 0abc 6D160000 		.4byte	.LLST43
 4100 0ac0 1D       		.uleb128 0x1d
 4101 0ac1 18000000 		.4byte	.LVL165
 4102 0ac5 3F080000 		.4byte	0x83f
 4103 0ac9 D40A0000 		.4byte	0xad4
 4104 0acd 1E       		.uleb128 0x1e
 4105 0ace 01       		.uleb128 0x1
 4106 0acf 50       		.byte	0x50
 4107 0ad0 02       		.uleb128 0x2
 4108 0ad1 76       		.byte	0x76
 4109 0ad2 00       		.sleb128 0
 4110 0ad3 00       		.byte	0
 4111 0ad4 1D       		.uleb128 0x1d
 4112 0ad5 5C000000 		.4byte	.LVL172
 4113 0ad9 CB060000 		.4byte	0x6cb
 4114 0add FA0A0000 		.4byte	0xafa
 4115 0ae1 1E       		.uleb128 0x1e
 4116 0ae2 01       		.uleb128 0x1
 4117 0ae3 50       		.byte	0x50
 4118 0ae4 02       		.uleb128 0x2
 4119 0ae5 75       		.byte	0x75
 4120 0ae6 00       		.sleb128 0
 4121 0ae7 1E       		.uleb128 0x1e
 4122 0ae8 01       		.uleb128 0x1
 4123 0ae9 51       		.byte	0x51
 4124 0aea 02       		.uleb128 0x2
 4125 0aeb 91       		.byte	0x91
 4126 0aec 54       		.sleb128 -44
 4127 0aed 1E       		.uleb128 0x1e
 4128 0aee 01       		.uleb128 0x1
 4129 0aef 52       		.byte	0x52
 4130 0af0 02       		.uleb128 0x2
 4131 0af1 77       		.byte	0x77
 4132 0af2 00       		.sleb128 0
 4133 0af3 1E       		.uleb128 0x1e
 4134 0af4 01       		.uleb128 0x1
 4135 0af5 53       		.byte	0x53
 4136 0af6 02       		.uleb128 0x2
 4137 0af7 74       		.byte	0x74
 4138 0af8 00       		.sleb128 0
 4139 0af9 00       		.byte	0
ARM GAS  C:\Users\simon\AppData\Local\Temp\cc07ySAM.s 			page 104


 4140 0afa 1F       		.uleb128 0x1f
 4141 0afb 70000000 		.4byte	.LVL177
 4142 0aff 02       		.uleb128 0x2
 4143 0b00 74       		.byte	0x74
 4144 0b01 00       		.sleb128 0
 4145 0b02 1E       		.uleb128 0x1e
 4146 0b03 01       		.uleb128 0x1
 4147 0b04 52       		.byte	0x52
 4148 0b05 02       		.uleb128 0x2
 4149 0b06 91       		.byte	0x91
 4150 0b07 54       		.sleb128 -44
 4151 0b08 00       		.byte	0
 4152 0b09 00       		.byte	0
 4153 0b0a 21       		.uleb128 0x21
 4154 0b0b C3000000 		.4byte	0xc3
 4155 0b0f 1A0B0000 		.4byte	0xb1a
 4156 0b13 22       		.uleb128 0x22
 4157 0b14 200A0000 		.4byte	0xa20
 4158 0b18 13       		.byte	0x13
 4159 0b19 00       		.byte	0
 4160 0b1a 12       		.uleb128 0x12
 4161 0b1b 43080000 		.4byte	.LASF110
 4162 0b1f 01       		.byte	0x1
 4163 0b20 5303     		.2byte	0x353
 4164 0b22 B8000000 		.4byte	0xb8
 4165 0b26 00000000 		.4byte	.LFB13
 4166 0b2a 54000000 		.4byte	.LFE13-.LFB13
 4167 0b2e 01       		.uleb128 0x1
 4168 0b2f 9C       		.byte	0x9c
 4169 0b30 F70B0000 		.4byte	0xbf7
 4170 0b34 10       		.uleb128 0x10
 4171 0b35 1E050000 		.4byte	.LASF67
 4172 0b39 01       		.byte	0x1
 4173 0b3a 5303     		.2byte	0x353
 4174 0b3c E4030000 		.4byte	0x3e4
 4175 0b40 96160000 		.4byte	.LLST44
 4176 0b44 1B       		.uleb128 0x1b
 4177 0b45 64657600 		.ascii	"dev\000"
 4178 0b49 01       		.byte	0x1
 4179 0b4a 5303     		.2byte	0x353
 4180 0b4c 78080000 		.4byte	0x878
 4181 0b50 C2160000 		.4byte	.LLST45
 4182 0b54 13       		.uleb128 0x13
 4183 0b55 0D070000 		.4byte	.LASF103
 4184 0b59 01       		.byte	0x1
 4185 0b5a 5503     		.2byte	0x355
 4186 0b5c B8000000 		.4byte	0xb8
 4187 0b60 EE160000 		.4byte	.LLST46
 4188 0b64 19       		.uleb128 0x19
 4189 0b65 36020000 		.4byte	.LASF111
 4190 0b69 01       		.byte	0x1
 4191 0b6a 5603     		.2byte	0x356
 4192 0b6c C3000000 		.4byte	0xc3
 4193 0b70 02       		.uleb128 0x2
 4194 0b71 91       		.byte	0x91
 4195 0b72 77       		.sleb128 -9
 4196 0b73 19       		.uleb128 0x19
ARM GAS  C:\Users\simon\AppData\Local\Temp\cc07ySAM.s 			page 105


 4197 0b74 C2050000 		.4byte	.LASF112
 4198 0b78 01       		.byte	0x1
 4199 0b79 5703     		.2byte	0x357
 4200 0b7b C3000000 		.4byte	0xc3
 4201 0b7f 02       		.uleb128 0x2
 4202 0b80 91       		.byte	0x91
 4203 0b81 76       		.sleb128 -10
 4204 0b82 19       		.uleb128 0x19
 4205 0b83 14020000 		.4byte	.LASF89
 4206 0b87 01       		.byte	0x1
 4207 0b88 5803     		.2byte	0x358
 4208 0b8a C3000000 		.4byte	0xc3
 4209 0b8e 02       		.uleb128 0x2
 4210 0b8f 91       		.byte	0x91
 4211 0b90 75       		.sleb128 -11
 4212 0b91 1D       		.uleb128 0x1d
 4213 0b92 24000000 		.4byte	.LVL196
 4214 0b96 270A0000 		.4byte	0xa27
 4215 0b9a B60B0000 		.4byte	0xbb6
 4216 0b9e 1E       		.uleb128 0x1e
 4217 0b9f 01       		.uleb128 0x1
 4218 0ba0 50       		.byte	0x50
 4219 0ba1 02       		.uleb128 0x2
 4220 0ba2 7D       		.byte	0x7d
 4221 0ba3 05       		.sleb128 5
 4222 0ba4 1E       		.uleb128 0x1e
 4223 0ba5 01       		.uleb128 0x1
 4224 0ba6 51       		.byte	0x51
 4225 0ba7 02       		.uleb128 0x2
 4226 0ba8 7D       		.byte	0x7d
 4227 0ba9 07       		.sleb128 7
 4228 0baa 1E       		.uleb128 0x1e
 4229 0bab 01       		.uleb128 0x1
 4230 0bac 52       		.byte	0x52
 4231 0bad 01       		.uleb128 0x1
 4232 0bae 31       		.byte	0x31
 4233 0baf 1E       		.uleb128 0x1e
 4234 0bb0 01       		.uleb128 0x1
 4235 0bb1 53       		.byte	0x53
 4236 0bb2 02       		.uleb128 0x2
 4237 0bb3 74       		.byte	0x74
 4238 0bb4 00       		.sleb128 0
 4239 0bb5 00       		.byte	0
 4240 0bb6 1D       		.uleb128 0x1d
 4241 0bb7 3C000000 		.4byte	.LVL198
 4242 0bbb 83080000 		.4byte	0x883
 4243 0bbf D50B0000 		.4byte	0xbd5
 4244 0bc3 1E       		.uleb128 0x1e
 4245 0bc4 01       		.uleb128 0x1
 4246 0bc5 51       		.byte	0x51
 4247 0bc6 02       		.uleb128 0x2
 4248 0bc7 7D       		.byte	0x7d
 4249 0bc8 06       		.sleb128 6
 4250 0bc9 1E       		.uleb128 0x1e
 4251 0bca 01       		.uleb128 0x1
 4252 0bcb 52       		.byte	0x52
 4253 0bcc 01       		.uleb128 0x1
ARM GAS  C:\Users\simon\AppData\Local\Temp\cc07ySAM.s 			page 106


 4254 0bcd 31       		.byte	0x31
 4255 0bce 1E       		.uleb128 0x1e
 4256 0bcf 01       		.uleb128 0x1
 4257 0bd0 53       		.byte	0x53
 4258 0bd1 02       		.uleb128 0x2
 4259 0bd2 74       		.byte	0x74
 4260 0bd3 00       		.sleb128 0
 4261 0bd4 00       		.byte	0
 4262 0bd5 20       		.uleb128 0x20
 4263 0bd6 50000000 		.4byte	.LVL200
 4264 0bda 270A0000 		.4byte	0xa27
 4265 0bde 1E       		.uleb128 0x1e
 4266 0bdf 01       		.uleb128 0x1
 4267 0be0 50       		.byte	0x50
 4268 0be1 02       		.uleb128 0x2
 4269 0be2 7D       		.byte	0x7d
 4270 0be3 05       		.sleb128 5
 4271 0be4 1E       		.uleb128 0x1e
 4272 0be5 01       		.uleb128 0x1
 4273 0be6 51       		.byte	0x51
 4274 0be7 02       		.uleb128 0x2
 4275 0be8 7D       		.byte	0x7d
 4276 0be9 06       		.sleb128 6
 4277 0bea 1E       		.uleb128 0x1e
 4278 0beb 01       		.uleb128 0x1
 4279 0bec 52       		.byte	0x52
 4280 0bed 01       		.uleb128 0x1
 4281 0bee 31       		.byte	0x31
 4282 0bef 1E       		.uleb128 0x1e
 4283 0bf0 01       		.uleb128 0x1
 4284 0bf1 53       		.byte	0x53
 4285 0bf2 02       		.uleb128 0x2
 4286 0bf3 74       		.byte	0x74
 4287 0bf4 00       		.sleb128 0
 4288 0bf5 00       		.byte	0
 4289 0bf6 00       		.byte	0
 4290 0bf7 12       		.uleb128 0x12
 4291 0bf8 9D060000 		.4byte	.LASF113
 4292 0bfc 01       		.byte	0x1
 4293 0bfd 7303     		.2byte	0x373
 4294 0bff B8000000 		.4byte	0xb8
 4295 0c03 00000000 		.4byte	.LFB14
 4296 0c07 52000000 		.4byte	.LFE14-.LFB14
 4297 0c0b 01       		.uleb128 0x1
 4298 0c0c 9C       		.byte	0x9c
 4299 0c0d EA0C0000 		.4byte	0xcea
 4300 0c11 10       		.uleb128 0x10
 4301 0c12 17030000 		.4byte	.LASF100
 4302 0c16 01       		.byte	0x1
 4303 0c17 7303     		.2byte	0x373
 4304 0c19 C3000000 		.4byte	0xc3
 4305 0c1d 25170000 		.4byte	.LLST47
 4306 0c21 10       		.uleb128 0x10
 4307 0c22 1E050000 		.4byte	.LASF67
 4308 0c26 01       		.byte	0x1
 4309 0c27 7403     		.2byte	0x374
 4310 0c29 E4030000 		.4byte	0x3e4
ARM GAS  C:\Users\simon\AppData\Local\Temp\cc07ySAM.s 			page 107


 4311 0c2d 46170000 		.4byte	.LLST48
 4312 0c31 1B       		.uleb128 0x1b
 4313 0c32 64657600 		.ascii	"dev\000"
 4314 0c36 01       		.byte	0x1
 4315 0c37 7503     		.2byte	0x375
 4316 0c39 78080000 		.4byte	0x878
 4317 0c3d 72170000 		.4byte	.LLST49
 4318 0c41 13       		.uleb128 0x13
 4319 0c42 0D070000 		.4byte	.LASF103
 4320 0c46 01       		.byte	0x1
 4321 0c47 7703     		.2byte	0x377
 4322 0c49 B8000000 		.4byte	0xb8
 4323 0c4d 9E170000 		.4byte	.LLST50
 4324 0c51 19       		.uleb128 0x19
 4325 0c52 14020000 		.4byte	.LASF89
 4326 0c56 01       		.byte	0x1
 4327 0c57 7803     		.2byte	0x378
 4328 0c59 C3000000 		.4byte	0xc3
 4329 0c5d 02       		.uleb128 0x2
 4330 0c5e 91       		.byte	0x91
 4331 0c5f 6F       		.sleb128 -17
 4332 0c60 19       		.uleb128 0x19
 4333 0c61 2D040000 		.4byte	.LASF68
 4334 0c65 01       		.byte	0x1
 4335 0c66 7903     		.2byte	0x379
 4336 0c68 C3000000 		.4byte	0xc3
 4337 0c6c 02       		.uleb128 0x2
 4338 0c6d 91       		.byte	0x91
 4339 0c6e 6E       		.sleb128 -18
 4340 0c6f 1D       		.uleb128 0x1d
 4341 0c70 1E000000 		.4byte	.LVL206
 4342 0c74 83080000 		.4byte	0x883
 4343 0c78 940C0000 		.4byte	0xc94
 4344 0c7c 1E       		.uleb128 0x1e
 4345 0c7d 01       		.uleb128 0x1
 4346 0c7e 50       		.byte	0x50
 4347 0c7f 02       		.uleb128 0x2
 4348 0c80 09       		.byte	0x9
 4349 0c81 F4       		.byte	0xf4
 4350 0c82 1E       		.uleb128 0x1e
 4351 0c83 01       		.uleb128 0x1
 4352 0c84 51       		.byte	0x51
 4353 0c85 02       		.uleb128 0x2
 4354 0c86 7D       		.byte	0x7d
 4355 0c87 06       		.sleb128 6
 4356 0c88 1E       		.uleb128 0x1e
 4357 0c89 01       		.uleb128 0x1
 4358 0c8a 52       		.byte	0x52
 4359 0c8b 01       		.uleb128 0x1
 4360 0c8c 31       		.byte	0x31
 4361 0c8d 1E       		.uleb128 0x1e
 4362 0c8e 01       		.uleb128 0x1
 4363 0c8f 53       		.byte	0x53
 4364 0c90 02       		.uleb128 0x2
 4365 0c91 74       		.byte	0x74
 4366 0c92 00       		.sleb128 0
 4367 0c93 00       		.byte	0
ARM GAS  C:\Users\simon\AppData\Local\Temp\cc07ySAM.s 			page 108


 4368 0c94 1D       		.uleb128 0x1d
 4369 0c95 30000000 		.4byte	.LVL208
 4370 0c99 24040000 		.4byte	0x424
 4371 0c9d AE0C0000 		.4byte	0xcae
 4372 0ca1 1E       		.uleb128 0x1e
 4373 0ca2 01       		.uleb128 0x1
 4374 0ca3 50       		.byte	0x50
 4375 0ca4 02       		.uleb128 0x2
 4376 0ca5 7D       		.byte	0x7d
 4377 0ca6 06       		.sleb128 6
 4378 0ca7 1E       		.uleb128 0x1e
 4379 0ca8 01       		.uleb128 0x1
 4380 0ca9 51       		.byte	0x51
 4381 0caa 02       		.uleb128 0x2
 4382 0cab 75       		.byte	0x75
 4383 0cac 00       		.sleb128 0
 4384 0cad 00       		.byte	0
 4385 0cae 1D       		.uleb128 0x1d
 4386 0caf 3E000000 		.4byte	.LVL209
 4387 0cb3 59040000 		.4byte	0x459
 4388 0cb7 C80C0000 		.4byte	0xcc8
 4389 0cbb 1E       		.uleb128 0x1e
 4390 0cbc 01       		.uleb128 0x1
 4391 0cbd 50       		.byte	0x50
 4392 0cbe 02       		.uleb128 0x2
 4393 0cbf 7D       		.byte	0x7d
 4394 0cc0 06       		.sleb128 6
 4395 0cc1 1E       		.uleb128 0x1e
 4396 0cc2 01       		.uleb128 0x1
 4397 0cc3 51       		.byte	0x51
 4398 0cc4 02       		.uleb128 0x2
 4399 0cc5 75       		.byte	0x75
 4400 0cc6 00       		.sleb128 0
 4401 0cc7 00       		.byte	0
 4402 0cc8 20       		.uleb128 0x20
 4403 0cc9 4E000000 		.4byte	.LVL210
 4404 0ccd 270A0000 		.4byte	0xa27
 4405 0cd1 1E       		.uleb128 0x1e
 4406 0cd2 01       		.uleb128 0x1
 4407 0cd3 50       		.byte	0x50
 4408 0cd4 02       		.uleb128 0x2
 4409 0cd5 7D       		.byte	0x7d
 4410 0cd6 07       		.sleb128 7
 4411 0cd7 1E       		.uleb128 0x1e
 4412 0cd8 01       		.uleb128 0x1
 4413 0cd9 51       		.byte	0x51
 4414 0cda 02       		.uleb128 0x2
 4415 0cdb 7D       		.byte	0x7d
 4416 0cdc 06       		.sleb128 6
 4417 0cdd 1E       		.uleb128 0x1e
 4418 0cde 01       		.uleb128 0x1
 4419 0cdf 52       		.byte	0x52
 4420 0ce0 01       		.uleb128 0x1
 4421 0ce1 31       		.byte	0x31
 4422 0ce2 1E       		.uleb128 0x1e
 4423 0ce3 01       		.uleb128 0x1
 4424 0ce4 53       		.byte	0x53
ARM GAS  C:\Users\simon\AppData\Local\Temp\cc07ySAM.s 			page 109


 4425 0ce5 02       		.uleb128 0x2
 4426 0ce6 74       		.byte	0x74
 4427 0ce7 00       		.sleb128 0
 4428 0ce8 00       		.byte	0
 4429 0ce9 00       		.byte	0
 4430 0cea 12       		.uleb128 0x12
 4431 0ceb 3B010000 		.4byte	.LASF114
 4432 0cef 01       		.byte	0x1
 4433 0cf0 3E03     		.2byte	0x33e
 4434 0cf2 B8000000 		.4byte	0xb8
 4435 0cf6 00000000 		.4byte	.LFB12
 4436 0cfa 28000000 		.4byte	.LFE12-.LFB12
 4437 0cfe 01       		.uleb128 0x1
 4438 0cff 9C       		.byte	0x9c
 4439 0d00 7B0D0000 		.4byte	0xd7b
 4440 0d04 10       		.uleb128 0x10
 4441 0d05 17030000 		.4byte	.LASF100
 4442 0d09 01       		.byte	0x1
 4443 0d0a 3E03     		.2byte	0x33e
 4444 0d0c C3000000 		.4byte	0xc3
 4445 0d10 BC170000 		.4byte	.LLST51
 4446 0d14 10       		.uleb128 0x10
 4447 0d15 1E050000 		.4byte	.LASF67
 4448 0d19 01       		.byte	0x1
 4449 0d1a 3F03     		.2byte	0x33f
 4450 0d1c E4030000 		.4byte	0x3e4
 4451 0d20 F6170000 		.4byte	.LLST52
 4452 0d24 1B       		.uleb128 0x1b
 4453 0d25 64657600 		.ascii	"dev\000"
 4454 0d29 01       		.byte	0x1
 4455 0d2a 4003     		.2byte	0x340
 4456 0d2c 78080000 		.4byte	0x878
 4457 0d30 38180000 		.4byte	.LLST53
 4458 0d34 13       		.uleb128 0x13
 4459 0d35 0D070000 		.4byte	.LASF103
 4460 0d39 01       		.byte	0x1
 4461 0d3a 4203     		.2byte	0x342
 4462 0d3c B8000000 		.4byte	0xb8
 4463 0d40 7A180000 		.4byte	.LLST54
 4464 0d44 1D       		.uleb128 0x1d
 4465 0d45 14000000 		.4byte	.LVL217
 4466 0d49 1A0B0000 		.4byte	0xb1a
 4467 0d4d 5E0D0000 		.4byte	0xd5e
 4468 0d51 1E       		.uleb128 0x1e
 4469 0d52 01       		.uleb128 0x1
 4470 0d53 50       		.byte	0x50
 4471 0d54 02       		.uleb128 0x2
 4472 0d55 74       		.byte	0x74
 4473 0d56 00       		.sleb128 0
 4474 0d57 1E       		.uleb128 0x1e
 4475 0d58 01       		.uleb128 0x1
 4476 0d59 51       		.byte	0x51
 4477 0d5a 02       		.uleb128 0x2
 4478 0d5b 75       		.byte	0x75
 4479 0d5c 00       		.sleb128 0
 4480 0d5d 00       		.byte	0
 4481 0d5e 20       		.uleb128 0x20
ARM GAS  C:\Users\simon\AppData\Local\Temp\cc07ySAM.s 			page 110


 4482 0d5f 26000000 		.4byte	.LVL221
 4483 0d63 F70B0000 		.4byte	0xbf7
 4484 0d67 1E       		.uleb128 0x1e
 4485 0d68 01       		.uleb128 0x1
 4486 0d69 50       		.byte	0x50
 4487 0d6a 02       		.uleb128 0x2
 4488 0d6b 76       		.byte	0x76
 4489 0d6c 00       		.sleb128 0
 4490 0d6d 1E       		.uleb128 0x1e
 4491 0d6e 01       		.uleb128 0x1
 4492 0d6f 51       		.byte	0x51
 4493 0d70 02       		.uleb128 0x2
 4494 0d71 74       		.byte	0x74
 4495 0d72 00       		.sleb128 0
 4496 0d73 1E       		.uleb128 0x1e
 4497 0d74 01       		.uleb128 0x1
 4498 0d75 52       		.byte	0x52
 4499 0d76 02       		.uleb128 0x2
 4500 0d77 75       		.byte	0x75
 4501 0d78 00       		.sleb128 0
 4502 0d79 00       		.byte	0
 4503 0d7a 00       		.byte	0
 4504 0d7b 12       		.uleb128 0x12
 4505 0d7c 15000000 		.4byte	.LASF115
 4506 0d80 01       		.byte	0x1
 4507 0d81 9203     		.2byte	0x392
 4508 0d83 B8000000 		.4byte	0xb8
 4509 0d87 00000000 		.4byte	.LFB15
 4510 0d8b 52000000 		.4byte	.LFE15-.LFB15
 4511 0d8f 01       		.uleb128 0x1
 4512 0d90 9C       		.byte	0x9c
 4513 0d91 6E0E0000 		.4byte	0xe6e
 4514 0d95 10       		.uleb128 0x10
 4515 0d96 17030000 		.4byte	.LASF100
 4516 0d9a 01       		.byte	0x1
 4517 0d9b 9203     		.2byte	0x392
 4518 0d9d C3000000 		.4byte	0xc3
 4519 0da1 BB180000 		.4byte	.LLST55
 4520 0da5 10       		.uleb128 0x10
 4521 0da6 1E050000 		.4byte	.LASF67
 4522 0daa 01       		.byte	0x1
 4523 0dab 9303     		.2byte	0x393
 4524 0dad E4030000 		.4byte	0x3e4
 4525 0db1 DC180000 		.4byte	.LLST56
 4526 0db5 1B       		.uleb128 0x1b
 4527 0db6 64657600 		.ascii	"dev\000"
 4528 0dba 01       		.byte	0x1
 4529 0dbb 9403     		.2byte	0x394
 4530 0dbd 78080000 		.4byte	0x878
 4531 0dc1 08190000 		.4byte	.LLST57
 4532 0dc5 13       		.uleb128 0x13
 4533 0dc6 0D070000 		.4byte	.LASF103
 4534 0dca 01       		.byte	0x1
 4535 0dcb 9603     		.2byte	0x396
 4536 0dcd B8000000 		.4byte	0xb8
 4537 0dd1 34190000 		.4byte	.LLST58
 4538 0dd5 19       		.uleb128 0x19
ARM GAS  C:\Users\simon\AppData\Local\Temp\cc07ySAM.s 			page 111


 4539 0dd6 14020000 		.4byte	.LASF89
 4540 0dda 01       		.byte	0x1
 4541 0ddb 9703     		.2byte	0x397
 4542 0ddd C3000000 		.4byte	0xc3
 4543 0de1 02       		.uleb128 0x2
 4544 0de2 91       		.byte	0x91
 4545 0de3 6F       		.sleb128 -17
 4546 0de4 19       		.uleb128 0x19
 4547 0de5 2D040000 		.4byte	.LASF68
 4548 0de9 01       		.byte	0x1
 4549 0dea 9803     		.2byte	0x398
 4550 0dec C3000000 		.4byte	0xc3
 4551 0df0 02       		.uleb128 0x2
 4552 0df1 91       		.byte	0x91
 4553 0df2 6E       		.sleb128 -18
 4554 0df3 1D       		.uleb128 0x1d
 4555 0df4 1E000000 		.4byte	.LVL228
 4556 0df8 83080000 		.4byte	0x883
 4557 0dfc 180E0000 		.4byte	0xe18
 4558 0e00 1E       		.uleb128 0x1e
 4559 0e01 01       		.uleb128 0x1
 4560 0e02 50       		.byte	0x50
 4561 0e03 02       		.uleb128 0x2
 4562 0e04 09       		.byte	0x9
 4563 0e05 F5       		.byte	0xf5
 4564 0e06 1E       		.uleb128 0x1e
 4565 0e07 01       		.uleb128 0x1
 4566 0e08 51       		.byte	0x51
 4567 0e09 02       		.uleb128 0x2
 4568 0e0a 7D       		.byte	0x7d
 4569 0e0b 06       		.sleb128 6
 4570 0e0c 1E       		.uleb128 0x1e
 4571 0e0d 01       		.uleb128 0x1
 4572 0e0e 52       		.byte	0x52
 4573 0e0f 01       		.uleb128 0x1
 4574 0e10 31       		.byte	0x31
 4575 0e11 1E       		.uleb128 0x1e
 4576 0e12 01       		.uleb128 0x1
 4577 0e13 53       		.byte	0x53
 4578 0e14 02       		.uleb128 0x2
 4579 0e15 74       		.byte	0x74
 4580 0e16 00       		.sleb128 0
 4581 0e17 00       		.byte	0
 4582 0e18 1D       		.uleb128 0x1d
 4583 0e19 30000000 		.4byte	.LVL230
 4584 0e1d AF030000 		.4byte	0x3af
 4585 0e21 320E0000 		.4byte	0xe32
 4586 0e25 1E       		.uleb128 0x1e
 4587 0e26 01       		.uleb128 0x1
 4588 0e27 50       		.byte	0x50
 4589 0e28 02       		.uleb128 0x2
 4590 0e29 7D       		.byte	0x7d
 4591 0e2a 06       		.sleb128 6
 4592 0e2b 1E       		.uleb128 0x1e
 4593 0e2c 01       		.uleb128 0x1
 4594 0e2d 51       		.byte	0x51
 4595 0e2e 02       		.uleb128 0x2
ARM GAS  C:\Users\simon\AppData\Local\Temp\cc07ySAM.s 			page 112


 4596 0e2f 75       		.byte	0x75
 4597 0e30 00       		.sleb128 0
 4598 0e31 00       		.byte	0
 4599 0e32 1D       		.uleb128 0x1d
 4600 0e33 3E000000 		.4byte	.LVL231
 4601 0e37 EF030000 		.4byte	0x3ef
 4602 0e3b 4C0E0000 		.4byte	0xe4c
 4603 0e3f 1E       		.uleb128 0x1e
 4604 0e40 01       		.uleb128 0x1
 4605 0e41 50       		.byte	0x50
 4606 0e42 02       		.uleb128 0x2
 4607 0e43 7D       		.byte	0x7d
 4608 0e44 06       		.sleb128 6
 4609 0e45 1E       		.uleb128 0x1e
 4610 0e46 01       		.uleb128 0x1
 4611 0e47 51       		.byte	0x51
 4612 0e48 02       		.uleb128 0x2
 4613 0e49 75       		.byte	0x75
 4614 0e4a 00       		.sleb128 0
 4615 0e4b 00       		.byte	0
 4616 0e4c 20       		.uleb128 0x20
 4617 0e4d 4E000000 		.4byte	.LVL232
 4618 0e51 270A0000 		.4byte	0xa27
 4619 0e55 1E       		.uleb128 0x1e
 4620 0e56 01       		.uleb128 0x1
 4621 0e57 50       		.byte	0x50
 4622 0e58 02       		.uleb128 0x2
 4623 0e59 7D       		.byte	0x7d
 4624 0e5a 07       		.sleb128 7
 4625 0e5b 1E       		.uleb128 0x1e
 4626 0e5c 01       		.uleb128 0x1
 4627 0e5d 51       		.byte	0x51
 4628 0e5e 02       		.uleb128 0x2
 4629 0e5f 7D       		.byte	0x7d
 4630 0e60 06       		.sleb128 6
 4631 0e61 1E       		.uleb128 0x1e
 4632 0e62 01       		.uleb128 0x1
 4633 0e63 52       		.byte	0x52
 4634 0e64 01       		.uleb128 0x1
 4635 0e65 31       		.byte	0x31
 4636 0e66 1E       		.uleb128 0x1e
 4637 0e67 01       		.uleb128 0x1
 4638 0e68 53       		.byte	0x53
 4639 0e69 02       		.uleb128 0x2
 4640 0e6a 74       		.byte	0x74
 4641 0e6b 00       		.sleb128 0
 4642 0e6c 00       		.byte	0
 4643 0e6d 00       		.byte	0
 4644 0e6e 12       		.uleb128 0x12
 4645 0e6f DD050000 		.4byte	.LASF116
 4646 0e73 01       		.byte	0x1
 4647 0e74 1404     		.2byte	0x414
 4648 0e76 B8000000 		.4byte	0xb8
 4649 0e7a 00000000 		.4byte	.LFB23
 4650 0e7e 20000000 		.4byte	.LFE23-.LFB23
 4651 0e82 01       		.uleb128 0x1
 4652 0e83 9C       		.byte	0x9c
ARM GAS  C:\Users\simon\AppData\Local\Temp\cc07ySAM.s 			page 113


 4653 0e84 EE0E0000 		.4byte	0xeee
 4654 0e88 10       		.uleb128 0x10
 4655 0e89 1E050000 		.4byte	.LASF67
 4656 0e8d 01       		.byte	0x1
 4657 0e8e 1404     		.2byte	0x414
 4658 0e90 E4030000 		.4byte	0x3e4
 4659 0e94 52190000 		.4byte	.LLST59
 4660 0e98 1B       		.uleb128 0x1b
 4661 0e99 64657600 		.ascii	"dev\000"
 4662 0e9d 01       		.byte	0x1
 4663 0e9e 1404     		.2byte	0x414
 4664 0ea0 78080000 		.4byte	0x878
 4665 0ea4 89190000 		.4byte	.LLST60
 4666 0ea8 13       		.uleb128 0x13
 4667 0ea9 0D070000 		.4byte	.LASF103
 4668 0ead 01       		.byte	0x1
 4669 0eae 1604     		.2byte	0x416
 4670 0eb0 B8000000 		.4byte	0xb8
 4671 0eb4 C0190000 		.4byte	.LLST61
 4672 0eb8 1D       		.uleb128 0x1d
 4673 0eb9 10000000 		.4byte	.LVL238
 4674 0ebd EA0C0000 		.4byte	0xcea
 4675 0ec1 D70E0000 		.4byte	0xed7
 4676 0ec5 1E       		.uleb128 0x1e
 4677 0ec6 01       		.uleb128 0x1
 4678 0ec7 50       		.byte	0x50
 4679 0ec8 01       		.uleb128 0x1
 4680 0ec9 4F       		.byte	0x4f
 4681 0eca 1E       		.uleb128 0x1e
 4682 0ecb 01       		.uleb128 0x1
 4683 0ecc 51       		.byte	0x51
 4684 0ecd 02       		.uleb128 0x2
 4685 0ece 74       		.byte	0x74
 4686 0ecf 00       		.sleb128 0
 4687 0ed0 1E       		.uleb128 0x1e
 4688 0ed1 01       		.uleb128 0x1
 4689 0ed2 52       		.byte	0x52
 4690 0ed3 02       		.uleb128 0x2
 4691 0ed4 75       		.byte	0x75
 4692 0ed5 00       		.sleb128 0
 4693 0ed6 00       		.byte	0
 4694 0ed7 20       		.uleb128 0x20
 4695 0ed8 1E000000 		.4byte	.LVL240
 4696 0edc 7B0D0000 		.4byte	0xd7b
 4697 0ee0 1E       		.uleb128 0x1e
 4698 0ee1 01       		.uleb128 0x1
 4699 0ee2 51       		.byte	0x51
 4700 0ee3 02       		.uleb128 0x2
 4701 0ee4 74       		.byte	0x74
 4702 0ee5 00       		.sleb128 0
 4703 0ee6 1E       		.uleb128 0x1e
 4704 0ee7 01       		.uleb128 0x1
 4705 0ee8 52       		.byte	0x52
 4706 0ee9 02       		.uleb128 0x2
 4707 0eea 75       		.byte	0x75
 4708 0eeb 00       		.sleb128 0
 4709 0eec 00       		.byte	0
ARM GAS  C:\Users\simon\AppData\Local\Temp\cc07ySAM.s 			page 114


 4710 0eed 00       		.byte	0
 4711 0eee 12       		.uleb128 0x12
 4712 0eef 45000000 		.4byte	.LASF117
 4713 0ef3 01       		.byte	0x1
 4714 0ef4 E203     		.2byte	0x3e2
 4715 0ef6 B8000000 		.4byte	0xb8
 4716 0efa 00000000 		.4byte	.LFB21
 4717 0efe 40000000 		.4byte	.LFE21-.LFB21
 4718 0f02 01       		.uleb128 0x1
 4719 0f03 9C       		.byte	0x9c
 4720 0f04 9D0F0000 		.4byte	0xf9d
 4721 0f08 10       		.uleb128 0x10
 4722 0f09 69070000 		.4byte	.LASF118
 4723 0f0d 01       		.byte	0x1
 4724 0f0e E203     		.2byte	0x3e2
 4725 0f10 C3000000 		.4byte	0xc3
 4726 0f14 EB190000 		.4byte	.LLST62
 4727 0f18 1B       		.uleb128 0x1b
 4728 0f19 64657600 		.ascii	"dev\000"
 4729 0f1d 01       		.byte	0x1
 4730 0f1e E203     		.2byte	0x3e2
 4731 0f20 78080000 		.4byte	0x878
 4732 0f24 0C1A0000 		.4byte	.LLST63
 4733 0f28 13       		.uleb128 0x13
 4734 0f29 0D070000 		.4byte	.LASF103
 4735 0f2d 01       		.byte	0x1
 4736 0f2e E403     		.2byte	0x3e4
 4737 0f30 B8000000 		.4byte	0xb8
 4738 0f34 431A0000 		.4byte	.LLST64
 4739 0f38 19       		.uleb128 0x19
 4740 0f39 14020000 		.4byte	.LASF89
 4741 0f3d 01       		.byte	0x1
 4742 0f3e E503     		.2byte	0x3e5
 4743 0f40 C3000000 		.4byte	0xc3
 4744 0f44 02       		.uleb128 0x2
 4745 0f45 91       		.byte	0x91
 4746 0f46 6F       		.sleb128 -17
 4747 0f47 19       		.uleb128 0x19
 4748 0f48 3F020000 		.4byte	.LASF119
 4749 0f4c 01       		.byte	0x1
 4750 0f4d E803     		.2byte	0x3e8
 4751 0f4f C3000000 		.4byte	0xc3
 4752 0f53 02       		.uleb128 0x2
 4753 0f54 91       		.byte	0x91
 4754 0f55 6E       		.sleb128 -18
 4755 0f56 1D       		.uleb128 0x1d
 4756 0f57 1C000000 		.4byte	.LVL246
 4757 0f5b 83080000 		.4byte	0x883
 4758 0f5f 7B0F0000 		.4byte	0xf7b
 4759 0f63 1E       		.uleb128 0x1e
 4760 0f64 01       		.uleb128 0x1
 4761 0f65 50       		.byte	0x50
 4762 0f66 02       		.uleb128 0x2
 4763 0f67 09       		.byte	0x9
 4764 0f68 F4       		.byte	0xf4
 4765 0f69 1E       		.uleb128 0x1e
 4766 0f6a 01       		.uleb128 0x1
ARM GAS  C:\Users\simon\AppData\Local\Temp\cc07ySAM.s 			page 115


 4767 0f6b 51       		.byte	0x51
 4768 0f6c 02       		.uleb128 0x2
 4769 0f6d 7D       		.byte	0x7d
 4770 0f6e 06       		.sleb128 6
 4771 0f6f 1E       		.uleb128 0x1e
 4772 0f70 01       		.uleb128 0x1
 4773 0f71 52       		.byte	0x52
 4774 0f72 01       		.uleb128 0x1
 4775 0f73 31       		.byte	0x31
 4776 0f74 1E       		.uleb128 0x1e
 4777 0f75 01       		.uleb128 0x1
 4778 0f76 53       		.byte	0x53
 4779 0f77 02       		.uleb128 0x2
 4780 0f78 75       		.byte	0x75
 4781 0f79 00       		.sleb128 0
 4782 0f7a 00       		.byte	0
 4783 0f7b 20       		.uleb128 0x20
 4784 0f7c 3C000000 		.4byte	.LVL248
 4785 0f80 270A0000 		.4byte	0xa27
 4786 0f84 1E       		.uleb128 0x1e
 4787 0f85 01       		.uleb128 0x1
 4788 0f86 50       		.byte	0x50
 4789 0f87 02       		.uleb128 0x2
 4790 0f88 7D       		.byte	0x7d
 4791 0f89 07       		.sleb128 7
 4792 0f8a 1E       		.uleb128 0x1e
 4793 0f8b 01       		.uleb128 0x1
 4794 0f8c 51       		.byte	0x51
 4795 0f8d 02       		.uleb128 0x2
 4796 0f8e 7D       		.byte	0x7d
 4797 0f8f 06       		.sleb128 6
 4798 0f90 1E       		.uleb128 0x1e
 4799 0f91 01       		.uleb128 0x1
 4800 0f92 52       		.byte	0x52
 4801 0f93 01       		.uleb128 0x1
 4802 0f94 31       		.byte	0x31
 4803 0f95 1E       		.uleb128 0x1e
 4804 0f96 01       		.uleb128 0x1
 4805 0f97 53       		.byte	0x53
 4806 0f98 02       		.uleb128 0x2
 4807 0f99 75       		.byte	0x75
 4808 0f9a 00       		.sleb128 0
 4809 0f9b 00       		.byte	0
 4810 0f9c 00       		.byte	0
 4811 0f9d 1C       		.uleb128 0x1c
 4812 0f9e A4030000 		.4byte	.LASF120
 4813 0fa2 01       		.byte	0x1
 4814 0fa3 2202     		.2byte	0x222
 4815 0fa5 B8000000 		.4byte	0xb8
 4816 0fa9 00000000 		.4byte	.LFB4
 4817 0fad 2E000000 		.4byte	.LFE4-.LFB4
 4818 0fb1 01       		.uleb128 0x1
 4819 0fb2 9C       		.byte	0x9c
 4820 0fb3 36100000 		.4byte	0x1036
 4821 0fb7 1B       		.uleb128 0x1b
 4822 0fb8 64657600 		.ascii	"dev\000"
 4823 0fbc 01       		.byte	0x1
ARM GAS  C:\Users\simon\AppData\Local\Temp\cc07ySAM.s 			page 116


 4824 0fbd 2202     		.2byte	0x222
 4825 0fbf 6D070000 		.4byte	0x76d
 4826 0fc3 611A0000 		.4byte	.LLST65
 4827 0fc7 13       		.uleb128 0x13
 4828 0fc8 0D070000 		.4byte	.LASF103
 4829 0fcc 01       		.byte	0x1
 4830 0fcd 2402     		.2byte	0x224
 4831 0fcf B8000000 		.4byte	0xb8
 4832 0fd3 8D1A0000 		.4byte	.LLST66
 4833 0fd7 19       		.uleb128 0x19
 4834 0fd8 2D040000 		.4byte	.LASF68
 4835 0fdc 01       		.byte	0x1
 4836 0fdd 2502     		.2byte	0x225
 4837 0fdf 36100000 		.4byte	0x1036
 4838 0fe3 02       		.uleb128 0x2
 4839 0fe4 91       		.byte	0x91
 4840 0fe5 6C       		.sleb128 -20
 4841 0fe6 1D       		.uleb128 0x1d
 4842 0fe7 0A000000 		.4byte	.LVL251
 4843 0feb 3F080000 		.4byte	0x83f
 4844 0fef FA0F0000 		.4byte	0xffa
 4845 0ff3 1E       		.uleb128 0x1e
 4846 0ff4 01       		.uleb128 0x1
 4847 0ff5 50       		.byte	0x50
 4848 0ff6 02       		.uleb128 0x2
 4849 0ff7 75       		.byte	0x75
 4850 0ff8 00       		.sleb128 0
 4851 0ff9 00       		.byte	0
 4852 0ffa 1D       		.uleb128 0x1d
 4853 0ffb 1A000000 		.4byte	.LVL254
 4854 0fff 83080000 		.4byte	0x883
 4855 1003 1F100000 		.4byte	0x101f
 4856 1007 1E       		.uleb128 0x1e
 4857 1008 01       		.uleb128 0x1
 4858 1009 50       		.byte	0x50
 4859 100a 02       		.uleb128 0x2
 4860 100b 09       		.byte	0x9
 4861 100c F2       		.byte	0xf2
 4862 100d 1E       		.uleb128 0x1e
 4863 100e 01       		.uleb128 0x1
 4864 100f 51       		.byte	0x51
 4865 1010 02       		.uleb128 0x2
 4866 1011 91       		.byte	0x91
 4867 1012 6C       		.sleb128 -20
 4868 1013 1E       		.uleb128 0x1e
 4869 1014 01       		.uleb128 0x1
 4870 1015 52       		.byte	0x52
 4871 1016 01       		.uleb128 0x1
 4872 1017 34       		.byte	0x34
 4873 1018 1E       		.uleb128 0x1e
 4874 1019 01       		.uleb128 0x1
 4875 101a 53       		.byte	0x53
 4876 101b 02       		.uleb128 0x2
 4877 101c 75       		.byte	0x75
 4878 101d 00       		.sleb128 0
 4879 101e 00       		.byte	0
 4880 101f 20       		.uleb128 0x20
ARM GAS  C:\Users\simon\AppData\Local\Temp\cc07ySAM.s 			page 117


 4881 1020 28000000 		.4byte	.LVL257
 4882 1024 8E040000 		.4byte	0x48e
 4883 1028 1E       		.uleb128 0x1e
 4884 1029 01       		.uleb128 0x1
 4885 102a 50       		.byte	0x50
 4886 102b 02       		.uleb128 0x2
 4887 102c 91       		.byte	0x91
 4888 102d 6C       		.sleb128 -20
 4889 102e 1E       		.uleb128 0x1e
 4890 102f 01       		.uleb128 0x1
 4891 1030 51       		.byte	0x51
 4892 1031 02       		.uleb128 0x2
 4893 1032 75       		.byte	0x75
 4894 1033 38       		.sleb128 56
 4895 1034 00       		.byte	0
 4896 1035 00       		.byte	0
 4897 1036 21       		.uleb128 0x21
 4898 1037 C3000000 		.4byte	0xc3
 4899 103b 46100000 		.4byte	0x1046
 4900 103f 22       		.uleb128 0x22
 4901 1040 200A0000 		.4byte	0xa20
 4902 1044 03       		.byte	0x3
 4903 1045 00       		.byte	0
 4904 1046 1C       		.uleb128 0x1c
 4905 1047 F3020000 		.4byte	.LASF121
 4906 104b 01       		.byte	0x1
 4907 104c 5A02     		.2byte	0x25a
 4908 104e B8000000 		.4byte	0xb8
 4909 1052 00000000 		.4byte	.LFB6
 4910 1056 26000000 		.4byte	.LFE6-.LFB6
 4911 105a 01       		.uleb128 0x1
 4912 105b 9C       		.byte	0x9c
 4913 105c C0100000 		.4byte	0x10c0
 4914 1060 10       		.uleb128 0x10
 4915 1061 69070000 		.4byte	.LASF118
 4916 1065 01       		.byte	0x1
 4917 1066 5A02     		.2byte	0x25a
 4918 1068 58010000 		.4byte	0x158
 4919 106c C11A0000 		.4byte	.LLST67
 4920 1070 1B       		.uleb128 0x1b
 4921 1071 64657600 		.ascii	"dev\000"
 4922 1075 01       		.byte	0x1
 4923 1076 5A02     		.2byte	0x25a
 4924 1078 78080000 		.4byte	0x878
 4925 107c ED1A0000 		.4byte	.LLST68
 4926 1080 13       		.uleb128 0x13
 4927 1081 0D070000 		.4byte	.LASF103
 4928 1085 01       		.byte	0x1
 4929 1086 5C02     		.2byte	0x25c
 4930 1088 B8000000 		.4byte	0xb8
 4931 108c 191B0000 		.4byte	.LLST69
 4932 1090 1D       		.uleb128 0x1d
 4933 1091 0C000000 		.4byte	.LVL262
 4934 1095 3F080000 		.4byte	0x83f
 4935 1099 A4100000 		.4byte	0x10a4
 4936 109d 1E       		.uleb128 0x1e
 4937 109e 01       		.uleb128 0x1
ARM GAS  C:\Users\simon\AppData\Local\Temp\cc07ySAM.s 			page 118


 4938 109f 50       		.byte	0x50
 4939 10a0 02       		.uleb128 0x2
 4940 10a1 75       		.byte	0x75
 4941 10a2 00       		.sleb128 0
 4942 10a3 00       		.byte	0
 4943 10a4 20       		.uleb128 0x20
 4944 10a5 1C000000 		.4byte	.LVL264
 4945 10a9 83080000 		.4byte	0x883
 4946 10ad 1E       		.uleb128 0x1e
 4947 10ae 01       		.uleb128 0x1
 4948 10af 51       		.byte	0x51
 4949 10b0 02       		.uleb128 0x2
 4950 10b1 74       		.byte	0x74
 4951 10b2 00       		.sleb128 0
 4952 10b3 1E       		.uleb128 0x1e
 4953 10b4 01       		.uleb128 0x1
 4954 10b5 52       		.byte	0x52
 4955 10b6 01       		.uleb128 0x1
 4956 10b7 31       		.byte	0x31
 4957 10b8 1E       		.uleb128 0x1e
 4958 10b9 01       		.uleb128 0x1
 4959 10ba 53       		.byte	0x53
 4960 10bb 02       		.uleb128 0x2
 4961 10bc 75       		.byte	0x75
 4962 10bd 00       		.sleb128 0
 4963 10be 00       		.byte	0
 4964 10bf 00       		.byte	0
 4965 10c0 1C       		.uleb128 0x1c
 4966 10c1 56000000 		.4byte	.LASF122
 4967 10c5 01       		.byte	0x1
 4968 10c6 6F02     		.2byte	0x26f
 4969 10c8 B8000000 		.4byte	0xb8
 4970 10cc 00000000 		.4byte	.LFB7
 4971 10d0 76000000 		.4byte	.LFE7-.LFB7
 4972 10d4 01       		.uleb128 0x1
 4973 10d5 9C       		.byte	0x9c
 4974 10d6 A1110000 		.4byte	0x11a1
 4975 10da 1B       		.uleb128 0x1b
 4976 10db 64657600 		.ascii	"dev\000"
 4977 10df 01       		.byte	0x1
 4978 10e0 6F02     		.2byte	0x26f
 4979 10e2 78080000 		.4byte	0x878
 4980 10e6 451B0000 		.4byte	.LLST70
 4981 10ea 13       		.uleb128 0x13
 4982 10eb 0D070000 		.4byte	.LASF103
 4983 10ef 01       		.byte	0x1
 4984 10f0 7102     		.2byte	0x271
 4985 10f2 B8000000 		.4byte	0xb8
 4986 10f6 711B0000 		.4byte	.LLST71
 4987 10fa 19       		.uleb128 0x19
 4988 10fb 14020000 		.4byte	.LASF89
 4989 10ff 01       		.byte	0x1
 4990 1100 7202     		.2byte	0x272
 4991 1102 C3000000 		.4byte	0xc3
 4992 1106 02       		.uleb128 0x2
 4993 1107 91       		.byte	0x91
 4994 1108 6F       		.sleb128 -17
ARM GAS  C:\Users\simon\AppData\Local\Temp\cc07ySAM.s 			page 119


 4995 1109 19       		.uleb128 0x19
 4996 110a F0040000 		.4byte	.LASF123
 4997 110e 01       		.byte	0x1
 4998 110f 7302     		.2byte	0x273
 4999 1111 C3000000 		.4byte	0xc3
 5000 1115 02       		.uleb128 0x2
 5001 1116 91       		.byte	0x91
 5002 1117 6E       		.sleb128 -18
 5003 1118 13       		.uleb128 0x13
 5004 1119 AA050000 		.4byte	.LASF124
 5005 111d 01       		.byte	0x1
 5006 111e 7402     		.2byte	0x274
 5007 1120 C3000000 		.4byte	0xc3
 5008 1124 A51B0000 		.4byte	.LLST72
 5009 1128 19       		.uleb128 0x19
 5010 1129 60040000 		.4byte	.LASF125
 5011 112d 01       		.byte	0x1
 5012 112e 7702     		.2byte	0x277
 5013 1130 C3000000 		.4byte	0xc3
 5014 1134 02       		.uleb128 0x2
 5015 1135 91       		.byte	0x91
 5016 1136 6D       		.sleb128 -19
 5017 1137 1D       		.uleb128 0x1d
 5018 1138 1C000000 		.4byte	.LVL270
 5019 113c 3F080000 		.4byte	0x83f
 5020 1140 4B110000 		.4byte	0x114b
 5021 1144 1E       		.uleb128 0x1e
 5022 1145 01       		.uleb128 0x1
 5023 1146 50       		.byte	0x50
 5024 1147 02       		.uleb128 0x2
 5025 1148 75       		.byte	0x75
 5026 1149 00       		.sleb128 0
 5027 114a 00       		.byte	0
 5028 114b 1D       		.uleb128 0x1d
 5029 114c 30000000 		.4byte	.LVL272
 5030 1150 270A0000 		.4byte	0xa27
 5031 1154 70110000 		.4byte	0x1170
 5032 1158 1E       		.uleb128 0x1e
 5033 1159 01       		.uleb128 0x1
 5034 115a 50       		.byte	0x50
 5035 115b 02       		.uleb128 0x2
 5036 115c 7D       		.byte	0x7d
 5037 115d 07       		.sleb128 7
 5038 115e 1E       		.uleb128 0x1e
 5039 115f 01       		.uleb128 0x1
 5040 1160 51       		.byte	0x51
 5041 1161 02       		.uleb128 0x2
 5042 1162 7D       		.byte	0x7d
 5043 1163 05       		.sleb128 5
 5044 1164 1E       		.uleb128 0x1e
 5045 1165 01       		.uleb128 0x1
 5046 1166 52       		.byte	0x52
 5047 1167 01       		.uleb128 0x1
 5048 1168 31       		.byte	0x31
 5049 1169 1E       		.uleb128 0x1e
 5050 116a 01       		.uleb128 0x1
 5051 116b 53       		.byte	0x53
ARM GAS  C:\Users\simon\AppData\Local\Temp\cc07ySAM.s 			page 120


 5052 116c 02       		.uleb128 0x2
 5053 116d 75       		.byte	0x75
 5054 116e 00       		.sleb128 0
 5055 116f 00       		.byte	0
 5056 1170 23       		.uleb128 0x23
 5057 1171 40000000 		.4byte	.LVL275
 5058 1175 7F110000 		.4byte	0x117f
 5059 1179 1E       		.uleb128 0x1e
 5060 117a 01       		.uleb128 0x1
 5061 117b 50       		.byte	0x50
 5062 117c 01       		.uleb128 0x1
 5063 117d 32       		.byte	0x32
 5064 117e 00       		.byte	0
 5065 117f 20       		.uleb128 0x20
 5066 1180 4E000000 		.4byte	.LVL276
 5067 1184 83080000 		.4byte	0x883
 5068 1188 1E       		.uleb128 0x1e
 5069 1189 01       		.uleb128 0x1
 5070 118a 50       		.byte	0x50
 5071 118b 02       		.uleb128 0x2
 5072 118c 09       		.byte	0x9
 5073 118d F3       		.byte	0xf3
 5074 118e 1E       		.uleb128 0x1e
 5075 118f 01       		.uleb128 0x1
 5076 1190 51       		.byte	0x51
 5077 1191 02       		.uleb128 0x2
 5078 1192 7D       		.byte	0x7d
 5079 1193 06       		.sleb128 6
 5080 1194 1E       		.uleb128 0x1e
 5081 1195 01       		.uleb128 0x1
 5082 1196 52       		.byte	0x52
 5083 1197 01       		.uleb128 0x1
 5084 1198 31       		.byte	0x31
 5085 1199 1E       		.uleb128 0x1e
 5086 119a 01       		.uleb128 0x1
 5087 119b 53       		.byte	0x53
 5088 119c 02       		.uleb128 0x2
 5089 119d 75       		.byte	0x75
 5090 119e 00       		.sleb128 0
 5091 119f 00       		.byte	0
 5092 11a0 00       		.byte	0
 5093 11a1 1C       		.uleb128 0x1c
 5094 11a2 FC030000 		.4byte	.LASF126
 5095 11a6 01       		.byte	0x1
 5096 11a7 5D01     		.2byte	0x15d
 5097 11a9 B8000000 		.4byte	0xb8
 5098 11ad 00000000 		.4byte	.LFB0
 5099 11b1 68000000 		.4byte	.LFE0-.LFB0
 5100 11b5 01       		.uleb128 0x1
 5101 11b6 9C       		.byte	0x9c
 5102 11b7 67120000 		.4byte	0x1267
 5103 11bb 1B       		.uleb128 0x1b
 5104 11bc 64657600 		.ascii	"dev\000"
 5105 11c0 01       		.byte	0x1
 5106 11c1 5D01     		.2byte	0x15d
 5107 11c3 6D070000 		.4byte	0x76d
 5108 11c7 DA1B0000 		.4byte	.LLST73
ARM GAS  C:\Users\simon\AppData\Local\Temp\cc07ySAM.s 			page 121


 5109 11cb 13       		.uleb128 0x13
 5110 11cc 0D070000 		.4byte	.LASF103
 5111 11d0 01       		.byte	0x1
 5112 11d1 5F01     		.2byte	0x15f
 5113 11d3 B8000000 		.4byte	0xb8
 5114 11d7 061C0000 		.4byte	.LLST74
 5115 11db 13       		.uleb128 0x13
 5116 11dc FB040000 		.4byte	.LASF127
 5117 11e0 01       		.byte	0x1
 5118 11e1 6201     		.2byte	0x162
 5119 11e3 C3000000 		.4byte	0xc3
 5120 11e7 871C0000 		.4byte	.LLST75
 5121 11eb 19       		.uleb128 0x19
 5122 11ec 68060000 		.4byte	.LASF60
 5123 11f0 01       		.byte	0x1
 5124 11f1 6301     		.2byte	0x163
 5125 11f3 C3000000 		.4byte	0xc3
 5126 11f7 02       		.uleb128 0x2
 5127 11f8 91       		.byte	0x91
 5128 11f9 6F       		.sleb128 -17
 5129 11fa 1D       		.uleb128 0x1d
 5130 11fb 10000000 		.4byte	.LVL284
 5131 11ff 3F080000 		.4byte	0x83f
 5132 1203 0E120000 		.4byte	0x120e
 5133 1207 1E       		.uleb128 0x1e
 5134 1208 01       		.uleb128 0x1
 5135 1209 50       		.byte	0x50
 5136 120a 02       		.uleb128 0x2
 5137 120b 76       		.byte	0x76
 5138 120c 00       		.sleb128 0
 5139 120d 00       		.byte	0
 5140 120e 1D       		.uleb128 0x1d
 5141 120f 24000000 		.4byte	.LVL287
 5142 1213 83080000 		.4byte	0x883
 5143 1217 33120000 		.4byte	0x1233
 5144 121b 1E       		.uleb128 0x1e
 5145 121c 01       		.uleb128 0x1
 5146 121d 50       		.byte	0x50
 5147 121e 02       		.uleb128 0x2
 5148 121f 09       		.byte	0x9
 5149 1220 D0       		.byte	0xd0
 5150 1221 1E       		.uleb128 0x1e
 5151 1222 01       		.uleb128 0x1
 5152 1223 51       		.byte	0x51
 5153 1224 02       		.uleb128 0x2
 5154 1225 7D       		.byte	0x7d
 5155 1226 07       		.sleb128 7
 5156 1227 1E       		.uleb128 0x1e
 5157 1228 01       		.uleb128 0x1
 5158 1229 52       		.byte	0x52
 5159 122a 01       		.uleb128 0x1
 5160 122b 31       		.byte	0x31
 5161 122c 1E       		.uleb128 0x1e
 5162 122d 01       		.uleb128 0x1
 5163 122e 53       		.byte	0x53
 5164 122f 02       		.uleb128 0x2
 5165 1230 76       		.byte	0x76
ARM GAS  C:\Users\simon\AppData\Local\Temp\cc07ySAM.s 			page 122


 5166 1231 00       		.sleb128 0
 5167 1232 00       		.byte	0
 5168 1233 1D       		.uleb128 0x1d
 5169 1234 3A000000 		.4byte	.LVL290
 5170 1238 C0100000 		.4byte	0x10c0
 5171 123c 47120000 		.4byte	0x1247
 5172 1240 1E       		.uleb128 0x1e
 5173 1241 01       		.uleb128 0x1
 5174 1242 50       		.byte	0x50
 5175 1243 02       		.uleb128 0x2
 5176 1244 76       		.byte	0x76
 5177 1245 00       		.sleb128 0
 5178 1246 00       		.byte	0
 5179 1247 1D       		.uleb128 0x1d
 5180 1248 44000000 		.4byte	.LVL293
 5181 124c 1E090000 		.4byte	0x91e
 5182 1250 5B120000 		.4byte	0x125b
 5183 1254 1E       		.uleb128 0x1e
 5184 1255 01       		.uleb128 0x1
 5185 1256 50       		.byte	0x50
 5186 1257 02       		.uleb128 0x2
 5187 1258 76       		.byte	0x76
 5188 1259 00       		.sleb128 0
 5189 125a 00       		.byte	0
 5190 125b 24       		.uleb128 0x24
 5191 125c 4E000000 		.4byte	.LVL296
 5192 1260 1E       		.uleb128 0x1e
 5193 1261 01       		.uleb128 0x1
 5194 1262 50       		.byte	0x50
 5195 1263 01       		.uleb128 0x1
 5196 1264 31       		.byte	0x31
 5197 1265 00       		.byte	0
 5198 1266 00       		.byte	0
 5199 1267 12       		.uleb128 0x12
 5200 1268 19040000 		.4byte	.LASF128
 5201 126c 01       		.byte	0x1
 5202 126d FC03     		.2byte	0x3fc
 5203 126f B8000000 		.4byte	0xb8
 5204 1273 00000000 		.4byte	.LFB22
 5205 1277 34000000 		.4byte	.LFE22-.LFB22
 5206 127b 01       		.uleb128 0x1
 5207 127c 9C       		.byte	0x9c
 5208 127d 29130000 		.4byte	0x1329
 5209 1281 1B       		.uleb128 0x1b
 5210 1282 64657600 		.ascii	"dev\000"
 5211 1286 01       		.byte	0x1
 5212 1287 FC03     		.2byte	0x3fc
 5213 1289 78080000 		.4byte	0x878
 5214 128d C81C0000 		.4byte	.LLST76
 5215 1291 13       		.uleb128 0x13
 5216 1292 0D070000 		.4byte	.LASF103
 5217 1296 01       		.byte	0x1
 5218 1297 FE03     		.2byte	0x3fe
 5219 1299 B8000000 		.4byte	0xb8
 5220 129d FF1C0000 		.4byte	.LLST77
 5221 12a1 19       		.uleb128 0x19
 5222 12a2 2D040000 		.4byte	.LASF68
ARM GAS  C:\Users\simon\AppData\Local\Temp\cc07ySAM.s 			page 123


 5223 12a6 01       		.byte	0x1
 5224 12a7 FF03     		.2byte	0x3ff
 5225 12a9 36100000 		.4byte	0x1036
 5226 12ad 02       		.uleb128 0x2
 5227 12ae 91       		.byte	0x91
 5228 12af 74       		.sleb128 -12
 5229 12b0 19       		.uleb128 0x19
 5230 12b1 1E050000 		.4byte	.LASF67
 5231 12b5 01       		.byte	0x1
 5232 12b6 0004     		.2byte	0x400
 5233 12b8 EA020000 		.4byte	0x2ea
 5234 12bc 02       		.uleb128 0x2
 5235 12bd 91       		.byte	0x91
 5236 12be 6C       		.sleb128 -20
 5237 12bf 1D       		.uleb128 0x1d
 5238 12c0 12000000 		.4byte	.LVL308
 5239 12c4 83080000 		.4byte	0x883
 5240 12c8 E4120000 		.4byte	0x12e4
 5241 12cc 1E       		.uleb128 0x1e
 5242 12cd 01       		.uleb128 0x1
 5243 12ce 50       		.byte	0x50
 5244 12cf 02       		.uleb128 0x2
 5245 12d0 09       		.byte	0x9
 5246 12d1 F2       		.byte	0xf2
 5247 12d2 1E       		.uleb128 0x1e
 5248 12d3 01       		.uleb128 0x1
 5249 12d4 51       		.byte	0x51
 5250 12d5 02       		.uleb128 0x2
 5251 12d6 91       		.byte	0x91
 5252 12d7 74       		.sleb128 -12
 5253 12d8 1E       		.uleb128 0x1e
 5254 12d9 01       		.uleb128 0x1
 5255 12da 52       		.byte	0x52
 5256 12db 01       		.uleb128 0x1
 5257 12dc 34       		.byte	0x34
 5258 12dd 1E       		.uleb128 0x1e
 5259 12de 01       		.uleb128 0x1
 5260 12df 53       		.byte	0x53
 5261 12e0 02       		.uleb128 0x2
 5262 12e1 74       		.byte	0x74
 5263 12e2 00       		.sleb128 0
 5264 12e3 00       		.byte	0
 5265 12e4 1D       		.uleb128 0x1d
 5266 12e5 1E000000 		.4byte	.LVL310
 5267 12e9 8E040000 		.4byte	0x48e
 5268 12ed FE120000 		.4byte	0x12fe
 5269 12f1 1E       		.uleb128 0x1e
 5270 12f2 01       		.uleb128 0x1
 5271 12f3 50       		.byte	0x50
 5272 12f4 02       		.uleb128 0x2
 5273 12f5 91       		.byte	0x91
 5274 12f6 74       		.sleb128 -12
 5275 12f7 1E       		.uleb128 0x1e
 5276 12f8 01       		.uleb128 0x1
 5277 12f9 51       		.byte	0x51
 5278 12fa 02       		.uleb128 0x2
 5279 12fb 91       		.byte	0x91
ARM GAS  C:\Users\simon\AppData\Local\Temp\cc07ySAM.s 			page 124


 5280 12fc 6C       		.sleb128 -20
 5281 12fd 00       		.byte	0
 5282 12fe 1D       		.uleb128 0x1d
 5283 12ff 24000000 		.4byte	.LVL311
 5284 1303 C0100000 		.4byte	0x10c0
 5285 1307 12130000 		.4byte	0x1312
 5286 130b 1E       		.uleb128 0x1e
 5287 130c 01       		.uleb128 0x1
 5288 130d 50       		.byte	0x50
 5289 130e 02       		.uleb128 0x2
 5290 130f 74       		.byte	0x74
 5291 1310 00       		.sleb128 0
 5292 1311 00       		.byte	0
 5293 1312 20       		.uleb128 0x20
 5294 1313 30000000 		.4byte	.LVL313
 5295 1317 6E0E0000 		.4byte	0xe6e
 5296 131b 1E       		.uleb128 0x1e
 5297 131c 01       		.uleb128 0x1
 5298 131d 50       		.byte	0x50
 5299 131e 02       		.uleb128 0x2
 5300 131f 91       		.byte	0x91
 5301 1320 6C       		.sleb128 -20
 5302 1321 1E       		.uleb128 0x1e
 5303 1322 01       		.uleb128 0x1
 5304 1323 51       		.byte	0x51
 5305 1324 02       		.uleb128 0x2
 5306 1325 74       		.byte	0x74
 5307 1326 00       		.sleb128 0
 5308 1327 00       		.byte	0
 5309 1328 00       		.byte	0
 5310 1329 1C       		.uleb128 0x1c
 5311 132a D8020000 		.4byte	.LASF129
 5312 132e 01       		.byte	0x1
 5313 132f F701     		.2byte	0x1f7
 5314 1331 B8000000 		.4byte	0xb8
 5315 1335 00000000 		.4byte	.LFB3
 5316 1339 74000000 		.4byte	.LFE3-.LFB3
 5317 133d 01       		.uleb128 0x1
 5318 133e 9C       		.byte	0x9c
 5319 133f 33140000 		.4byte	0x1433
 5320 1343 10       		.uleb128 0x10
 5321 1344 17030000 		.4byte	.LASF100
 5322 1348 01       		.byte	0x1
 5323 1349 F701     		.2byte	0x1f7
 5324 134b C3000000 		.4byte	0xc3
 5325 134f 281D0000 		.4byte	.LLST78
 5326 1353 1B       		.uleb128 0x1b
 5327 1354 64657600 		.ascii	"dev\000"
 5328 1358 01       		.byte	0x1
 5329 1359 F701     		.2byte	0x1f7
 5330 135b 78080000 		.4byte	0x878
 5331 135f 491D0000 		.4byte	.LLST79
 5332 1363 13       		.uleb128 0x13
 5333 1364 0D070000 		.4byte	.LASF103
 5334 1368 01       		.byte	0x1
 5335 1369 F901     		.2byte	0x1f9
 5336 136b B8000000 		.4byte	0xb8
ARM GAS  C:\Users\simon\AppData\Local\Temp\cc07ySAM.s 			page 125


 5337 136f 751D0000 		.4byte	.LLST80
 5338 1373 19       		.uleb128 0x19
 5339 1374 69070000 		.4byte	.LASF118
 5340 1378 01       		.byte	0x1
 5341 1379 FA01     		.2byte	0x1fa
 5342 137b C3000000 		.4byte	0xc3
 5343 137f 02       		.uleb128 0x2
 5344 1380 91       		.byte	0x91
 5345 1381 6F       		.sleb128 -17
 5346 1382 1D       		.uleb128 0x1d
 5347 1383 0E000000 		.4byte	.LVL317
 5348 1387 3F080000 		.4byte	0x83f
 5349 138b 96130000 		.4byte	0x1396
 5350 138f 1E       		.uleb128 0x1e
 5351 1390 01       		.uleb128 0x1
 5352 1391 50       		.byte	0x50
 5353 1392 02       		.uleb128 0x2
 5354 1393 75       		.byte	0x75
 5355 1394 00       		.sleb128 0
 5356 1395 00       		.byte	0
 5357 1396 1D       		.uleb128 0x1d
 5358 1397 1C000000 		.4byte	.LVL320
 5359 139b 46100000 		.4byte	0x1046
 5360 139f B0130000 		.4byte	0x13b0
 5361 13a3 1E       		.uleb128 0x1e
 5362 13a4 01       		.uleb128 0x1
 5363 13a5 50       		.byte	0x50
 5364 13a6 02       		.uleb128 0x2
 5365 13a7 7D       		.byte	0x7d
 5366 13a8 07       		.sleb128 7
 5367 13a9 1E       		.uleb128 0x1e
 5368 13aa 01       		.uleb128 0x1
 5369 13ab 51       		.byte	0x51
 5370 13ac 02       		.uleb128 0x2
 5371 13ad 75       		.byte	0x75
 5372 13ae 00       		.sleb128 0
 5373 13af 00       		.byte	0
 5374 13b0 1D       		.uleb128 0x1d
 5375 13b1 30000000 		.4byte	.LVL323
 5376 13b5 67120000 		.4byte	0x1267
 5377 13b9 C4130000 		.4byte	0x13c4
 5378 13bd 1E       		.uleb128 0x1e
 5379 13be 01       		.uleb128 0x1
 5380 13bf 50       		.byte	0x50
 5381 13c0 02       		.uleb128 0x2
 5382 13c1 75       		.byte	0x75
 5383 13c2 00       		.sleb128 0
 5384 13c3 00       		.byte	0
 5385 13c4 1D       		.uleb128 0x1d
 5386 13c5 3E000000 		.4byte	.LVL325
 5387 13c9 F6070000 		.4byte	0x7f6
 5388 13cd DD130000 		.4byte	0x13dd
 5389 13d1 1E       		.uleb128 0x1e
 5390 13d2 01       		.uleb128 0x1
 5391 13d3 50       		.byte	0x50
 5392 13d4 01       		.uleb128 0x1
 5393 13d5 37       		.byte	0x37
ARM GAS  C:\Users\simon\AppData\Local\Temp\cc07ySAM.s 			page 126


 5394 13d6 1E       		.uleb128 0x1e
 5395 13d7 01       		.uleb128 0x1
 5396 13d8 51       		.byte	0x51
 5397 13d9 02       		.uleb128 0x2
 5398 13da 76       		.byte	0x76
 5399 13db 00       		.sleb128 0
 5400 13dc 00       		.byte	0
 5401 13dd 1D       		.uleb128 0x1d
 5402 13de 4E000000 		.4byte	.LVL326
 5403 13e2 EA0C0000 		.4byte	0xcea
 5404 13e6 FD130000 		.4byte	0x13fd
 5405 13ea 1E       		.uleb128 0x1e
 5406 13eb 01       		.uleb128 0x1
 5407 13ec 50       		.byte	0x50
 5408 13ed 02       		.uleb128 0x2
 5409 13ee 76       		.byte	0x76
 5410 13ef 00       		.sleb128 0
 5411 13f0 1E       		.uleb128 0x1e
 5412 13f1 01       		.uleb128 0x1
 5413 13f2 51       		.byte	0x51
 5414 13f3 02       		.uleb128 0x2
 5415 13f4 75       		.byte	0x75
 5416 13f5 38       		.sleb128 56
 5417 13f6 1E       		.uleb128 0x1e
 5418 13f7 01       		.uleb128 0x1
 5419 13f8 52       		.byte	0x52
 5420 13f9 02       		.uleb128 0x2
 5421 13fa 75       		.byte	0x75
 5422 13fb 00       		.sleb128 0
 5423 13fc 00       		.byte	0
 5424 13fd 1D       		.uleb128 0x1d
 5425 13fe 5C000000 		.4byte	.LVL328
 5426 1402 F6070000 		.4byte	0x7f6
 5427 1406 16140000 		.4byte	0x1416
 5428 140a 1E       		.uleb128 0x1e
 5429 140b 01       		.uleb128 0x1
 5430 140c 50       		.byte	0x50
 5431 140d 01       		.uleb128 0x1
 5432 140e 48       		.byte	0x48
 5433 140f 1E       		.uleb128 0x1e
 5434 1410 01       		.uleb128 0x1
 5435 1411 51       		.byte	0x51
 5436 1412 02       		.uleb128 0x2
 5437 1413 76       		.byte	0x76
 5438 1414 00       		.sleb128 0
 5439 1415 00       		.byte	0
 5440 1416 20       		.uleb128 0x20
 5441 1417 6C000000 		.4byte	.LVL329
 5442 141b 7B0D0000 		.4byte	0xd7b
 5443 141f 1E       		.uleb128 0x1e
 5444 1420 01       		.uleb128 0x1
 5445 1421 50       		.byte	0x50
 5446 1422 02       		.uleb128 0x2
 5447 1423 76       		.byte	0x76
 5448 1424 00       		.sleb128 0
 5449 1425 1E       		.uleb128 0x1e
 5450 1426 01       		.uleb128 0x1
ARM GAS  C:\Users\simon\AppData\Local\Temp\cc07ySAM.s 			page 127


 5451 1427 51       		.byte	0x51
 5452 1428 02       		.uleb128 0x2
 5453 1429 75       		.byte	0x75
 5454 142a 38       		.sleb128 56
 5455 142b 1E       		.uleb128 0x1e
 5456 142c 01       		.uleb128 0x1
 5457 142d 52       		.byte	0x52
 5458 142e 02       		.uleb128 0x2
 5459 142f 75       		.byte	0x75
 5460 1430 00       		.sleb128 0
 5461 1431 00       		.byte	0
 5462 1432 00       		.byte	0
 5463 1433 1C       		.uleb128 0x1c
 5464 1434 6E050000 		.4byte	.LASF130
 5465 1438 01       		.byte	0x1
 5466 1439 3A02     		.2byte	0x23a
 5467 143b B8000000 		.4byte	0xb8
 5468 143f 00000000 		.4byte	.LFB5
 5469 1443 40000000 		.4byte	.LFE5-.LFB5
 5470 1447 01       		.uleb128 0x1
 5471 1448 9C       		.byte	0x9c
 5472 1449 E5140000 		.4byte	0x14e5
 5473 144d 10       		.uleb128 0x10
 5474 144e 69070000 		.4byte	.LASF118
 5475 1452 01       		.byte	0x1
 5476 1453 3A02     		.2byte	0x23a
 5477 1455 C3000000 		.4byte	0xc3
 5478 1459 A91D0000 		.4byte	.LLST81
 5479 145d 1B       		.uleb128 0x1b
 5480 145e 64657600 		.ascii	"dev\000"
 5481 1462 01       		.byte	0x1
 5482 1463 3A02     		.2byte	0x23a
 5483 1465 78080000 		.4byte	0x878
 5484 1469 CA1D0000 		.4byte	.LLST82
 5485 146d 13       		.uleb128 0x13
 5486 146e 0D070000 		.4byte	.LASF103
 5487 1472 01       		.byte	0x1
 5488 1473 3C02     		.2byte	0x23c
 5489 1475 B8000000 		.4byte	0xb8
 5490 1479 F61D0000 		.4byte	.LLST83
 5491 147d 19       		.uleb128 0x19
 5492 147e 72000000 		.4byte	.LASF131
 5493 1482 01       		.byte	0x1
 5494 1483 3D02     		.2byte	0x23d
 5495 1485 C3000000 		.4byte	0xc3
 5496 1489 02       		.uleb128 0x2
 5497 148a 91       		.byte	0x91
 5498 148b 6F       		.sleb128 -17
 5499 148c 1D       		.uleb128 0x1d
 5500 148d 0E000000 		.4byte	.LVL335
 5501 1491 3F080000 		.4byte	0x83f
 5502 1495 A0140000 		.4byte	0x14a0
 5503 1499 1E       		.uleb128 0x1e
 5504 149a 01       		.uleb128 0x1
 5505 149b 50       		.byte	0x50
 5506 149c 02       		.uleb128 0x2
 5507 149d 74       		.byte	0x74
ARM GAS  C:\Users\simon\AppData\Local\Temp\cc07ySAM.s 			page 128


 5508 149e 00       		.sleb128 0
 5509 149f 00       		.byte	0
 5510 14a0 1D       		.uleb128 0x1d
 5511 14a1 1C000000 		.4byte	.LVL337
 5512 14a5 46100000 		.4byte	0x1046
 5513 14a9 BA140000 		.4byte	0x14ba
 5514 14ad 1E       		.uleb128 0x1e
 5515 14ae 01       		.uleb128 0x1
 5516 14af 50       		.byte	0x50
 5517 14b0 02       		.uleb128 0x2
 5518 14b1 7D       		.byte	0x7d
 5519 14b2 07       		.sleb128 7
 5520 14b3 1E       		.uleb128 0x1e
 5521 14b4 01       		.uleb128 0x1
 5522 14b5 51       		.byte	0x51
 5523 14b6 02       		.uleb128 0x2
 5524 14b7 74       		.byte	0x74
 5525 14b8 00       		.sleb128 0
 5526 14b9 00       		.byte	0
 5527 14ba 1D       		.uleb128 0x1d
 5528 14bb 30000000 		.4byte	.LVL339
 5529 14bf 67120000 		.4byte	0x1267
 5530 14c3 CE140000 		.4byte	0x14ce
 5531 14c7 1E       		.uleb128 0x1e
 5532 14c8 01       		.uleb128 0x1
 5533 14c9 50       		.byte	0x50
 5534 14ca 02       		.uleb128 0x2
 5535 14cb 74       		.byte	0x74
 5536 14cc 00       		.sleb128 0
 5537 14cd 00       		.byte	0
 5538 14ce 20       		.uleb128 0x20
 5539 14cf 3C000000 		.4byte	.LVL341
 5540 14d3 EE0E0000 		.4byte	0xeee
 5541 14d7 1E       		.uleb128 0x1e
 5542 14d8 01       		.uleb128 0x1
 5543 14d9 50       		.byte	0x50
 5544 14da 02       		.uleb128 0x2
 5545 14db 75       		.byte	0x75
 5546 14dc 00       		.sleb128 0
 5547 14dd 1E       		.uleb128 0x1e
 5548 14de 01       		.uleb128 0x1
 5549 14df 51       		.byte	0x51
 5550 14e0 02       		.uleb128 0x2
 5551 14e1 74       		.byte	0x74
 5552 14e2 00       		.sleb128 0
 5553 14e3 00       		.byte	0
 5554 14e4 00       		.byte	0
 5555 14e5 25       		.uleb128 0x25
 5556 14e6 4C010000 		.4byte	.LASF151
 5557 14ea 01       		.byte	0x1
 5558 14eb C302     		.2byte	0x2c3
 5559 14ed 00000000 		.4byte	.LFB9
 5560 14f1 32000000 		.4byte	.LFE9-.LFB9
 5561 14f5 01       		.uleb128 0x1
 5562 14f6 9C       		.byte	0x9c
 5563 14f7 48150000 		.4byte	0x1548
 5564 14fb 0F       		.uleb128 0xf
ARM GAS  C:\Users\simon\AppData\Local\Temp\cc07ySAM.s 			page 129


 5565 14fc 2D040000 		.4byte	.LASF68
 5566 1500 01       		.byte	0x1
 5567 1501 C302     		.2byte	0x2c3
 5568 1503 C1040000 		.4byte	0x4c1
 5569 1507 01       		.uleb128 0x1
 5570 1508 50       		.byte	0x50
 5571 1509 0F       		.uleb128 0xf
 5572 150a 45040000 		.4byte	.LASF74
 5573 150e 01       		.byte	0x1
 5574 150f C302     		.2byte	0x2c3
 5575 1511 48150000 		.4byte	0x1548
 5576 1515 01       		.uleb128 0x1
 5577 1516 51       		.byte	0x51
 5578 1517 13       		.uleb128 0x13
 5579 1518 F2030000 		.4byte	.LASF132
 5580 151c 01       		.byte	0x1
 5581 151d C602     		.2byte	0x2c6
 5582 151f EF000000 		.4byte	0xef
 5583 1523 2A1E0000 		.4byte	.LLST84
 5584 1527 13       		.uleb128 0x13
 5585 1528 9C040000 		.4byte	.LASF133
 5586 152c 01       		.byte	0x1
 5587 152d C702     		.2byte	0x2c7
 5588 152f EF000000 		.4byte	0xef
 5589 1533 481E0000 		.4byte	.LLST85
 5590 1537 13       		.uleb128 0x13
 5591 1538 45030000 		.4byte	.LASF134
 5592 153c 01       		.byte	0x1
 5593 153d C802     		.2byte	0x2c8
 5594 153f EF000000 		.4byte	0xef
 5595 1543 661E0000 		.4byte	.LLST86
 5596 1547 00       		.byte	0
 5597 1548 07       		.uleb128 0x7
 5598 1549 04       		.byte	0x4
 5599 154a B5020000 		.4byte	0x2b5
 5600 154e 1C       		.uleb128 0x1c
 5601 154f 57050000 		.4byte	.LASF135
 5602 1553 01       		.byte	0x1
 5603 1554 E102     		.2byte	0x2e1
 5604 1556 B8000000 		.4byte	0xb8
 5605 155a 00000000 		.4byte	.LFB10
 5606 155e 62000000 		.4byte	.LFE10-.LFB10
 5607 1562 01       		.uleb128 0x1
 5608 1563 9C       		.byte	0x9c
 5609 1564 03160000 		.4byte	0x1603
 5610 1568 10       		.uleb128 0x10
 5611 1569 12070000 		.4byte	.LASF136
 5612 156d 01       		.byte	0x1
 5613 156e E102     		.2byte	0x2e1
 5614 1570 C3000000 		.4byte	0xc3
 5615 1574 CB1E0000 		.4byte	.LLST87
 5616 1578 10       		.uleb128 0x10
 5617 1579 45040000 		.4byte	.LASF74
 5618 157d 01       		.byte	0x1
 5619 157e E202     		.2byte	0x2e2
 5620 1580 57050000 		.4byte	0x557
 5621 1584 371F0000 		.4byte	.LLST88
ARM GAS  C:\Users\simon\AppData\Local\Temp\cc07ySAM.s 			page 130


 5622 1588 10       		.uleb128 0x10
 5623 1589 AD020000 		.4byte	.LASF137
 5624 158d 01       		.byte	0x1
 5625 158e E302     		.2byte	0x2e3
 5626 1590 03160000 		.4byte	0x1603
 5627 1594 791F0000 		.4byte	.LLST89
 5628 1598 10       		.uleb128 0x10
 5629 1599 3A000000 		.4byte	.LASF66
 5630 159d 01       		.byte	0x1
 5631 159e E402     		.2byte	0x2e4
 5632 15a0 62050000 		.4byte	0x562
 5633 15a4 BB1F0000 		.4byte	.LLST90
 5634 15a8 13       		.uleb128 0x13
 5635 15a9 0D070000 		.4byte	.LASF103
 5636 15ad 01       		.byte	0x1
 5637 15ae E602     		.2byte	0x2e6
 5638 15b0 B8000000 		.4byte	0xb8
 5639 15b4 FD1F0000 		.4byte	.LLST91
 5640 15b8 1D       		.uleb128 0x1d
 5641 15b9 2A000000 		.4byte	.LVL366
 5642 15bd D2040000 		.4byte	0x4d2
 5643 15c1 D2150000 		.4byte	0x15d2
 5644 15c5 1E       		.uleb128 0x1e
 5645 15c6 01       		.uleb128 0x1
 5646 15c7 50       		.byte	0x50
 5647 15c8 02       		.uleb128 0x2
 5648 15c9 76       		.byte	0x76
 5649 15ca 00       		.sleb128 0
 5650 15cb 1E       		.uleb128 0x1e
 5651 15cc 01       		.uleb128 0x1
 5652 15cd 51       		.byte	0x51
 5653 15ce 02       		.uleb128 0x2
 5654 15cf 77       		.byte	0x77
 5655 15d0 00       		.sleb128 0
 5656 15d1 00       		.byte	0
 5657 15d2 1D       		.uleb128 0x1d
 5658 15d3 38000000 		.4byte	.LVL367
 5659 15d7 68050000 		.4byte	0x568
 5660 15db EC150000 		.4byte	0x15ec
 5661 15df 1E       		.uleb128 0x1e
 5662 15e0 01       		.uleb128 0x1
 5663 15e1 50       		.byte	0x50
 5664 15e2 02       		.uleb128 0x2
 5665 15e3 76       		.byte	0x76
 5666 15e4 00       		.sleb128 0
 5667 15e5 1E       		.uleb128 0x1e
 5668 15e6 01       		.uleb128 0x1
 5669 15e7 51       		.byte	0x51
 5670 15e8 02       		.uleb128 0x2
 5671 15e9 77       		.byte	0x77
 5672 15ea 00       		.sleb128 0
 5673 15eb 00       		.byte	0
 5674 15ec 20       		.uleb128 0x20
 5675 15ed 46000000 		.4byte	.LVL368
 5676 15f1 22060000 		.4byte	0x622
 5677 15f5 1E       		.uleb128 0x1e
 5678 15f6 01       		.uleb128 0x1
ARM GAS  C:\Users\simon\AppData\Local\Temp\cc07ySAM.s 			page 131


 5679 15f7 50       		.byte	0x50
 5680 15f8 02       		.uleb128 0x2
 5681 15f9 76       		.byte	0x76
 5682 15fa 00       		.sleb128 0
 5683 15fb 1E       		.uleb128 0x1e
 5684 15fc 01       		.uleb128 0x1
 5685 15fd 51       		.byte	0x51
 5686 15fe 02       		.uleb128 0x2
 5687 15ff 77       		.byte	0x77
 5688 1600 00       		.sleb128 0
 5689 1601 00       		.byte	0
 5690 1602 00       		.byte	0
 5691 1603 07       		.uleb128 0x7
 5692 1604 04       		.byte	0x4
 5693 1605 80020000 		.4byte	0x280
 5694 1609 1C       		.uleb128 0x1c
 5695 160a 75060000 		.4byte	.LASF138
 5696 160e 01       		.byte	0x1
 5697 160f 9C02     		.2byte	0x29c
 5698 1611 B8000000 		.4byte	0xb8
 5699 1615 00000000 		.4byte	.LFB8
 5700 1619 60000000 		.4byte	.LFE8-.LFB8
 5701 161d 01       		.uleb128 0x1
 5702 161e 9C       		.byte	0x9c
 5703 161f 0F170000 		.4byte	0x170f
 5704 1623 10       		.uleb128 0x10
 5705 1624 12070000 		.4byte	.LASF136
 5706 1628 01       		.byte	0x1
 5707 1629 9C02     		.2byte	0x29c
 5708 162b C3000000 		.4byte	0xc3
 5709 162f 1C200000 		.4byte	.LLST92
 5710 1633 10       		.uleb128 0x10
 5711 1634 AD020000 		.4byte	.LASF137
 5712 1638 01       		.byte	0x1
 5713 1639 9C02     		.2byte	0x29c
 5714 163b 03160000 		.4byte	0x1603
 5715 163f 3D200000 		.4byte	.LLST93
 5716 1643 1B       		.uleb128 0x1b
 5717 1644 64657600 		.ascii	"dev\000"
 5718 1648 01       		.byte	0x1
 5719 1649 9C02     		.2byte	0x29c
 5720 164b 6D070000 		.4byte	0x76d
 5721 164f 69200000 		.4byte	.LLST94
 5722 1653 13       		.uleb128 0x13
 5723 1654 0D070000 		.4byte	.LASF103
 5724 1658 01       		.byte	0x1
 5725 1659 9E02     		.2byte	0x29e
 5726 165b B8000000 		.4byte	0xb8
 5727 165f 95200000 		.4byte	.LLST95
 5728 1663 19       		.uleb128 0x19
 5729 1664 2D040000 		.4byte	.LASF68
 5730 1668 01       		.byte	0x1
 5731 1669 A302     		.2byte	0x2a3
 5732 166b 0F170000 		.4byte	0x170f
 5733 166f 02       		.uleb128 0x2
 5734 1670 91       		.byte	0x91
 5735 1671 68       		.sleb128 -24
ARM GAS  C:\Users\simon\AppData\Local\Temp\cc07ySAM.s 			page 132


 5736 1672 19       		.uleb128 0x19
 5737 1673 45040000 		.4byte	.LASF74
 5738 1677 01       		.byte	0x1
 5739 1678 A402     		.2byte	0x2a4
 5740 167a B5020000 		.4byte	0x2b5
 5741 167e 02       		.uleb128 0x2
 5742 167f 91       		.byte	0x91
 5743 1680 5C       		.sleb128 -36
 5744 1681 1D       		.uleb128 0x1d
 5745 1682 14000000 		.4byte	.LVL384
 5746 1686 C5170000 		.4byte	0x17c5
 5747 168a 9F160000 		.4byte	0x169f
 5748 168e 1E       		.uleb128 0x1e
 5749 168f 01       		.uleb128 0x1
 5750 1690 50       		.byte	0x50
 5751 1691 02       		.uleb128 0x2
 5752 1692 91       		.byte	0x91
 5753 1693 68       		.sleb128 -24
 5754 1694 1E       		.uleb128 0x1e
 5755 1695 01       		.uleb128 0x1
 5756 1696 51       		.byte	0x51
 5757 1697 01       		.uleb128 0x1
 5758 1698 30       		.byte	0x30
 5759 1699 1E       		.uleb128 0x1e
 5760 169a 01       		.uleb128 0x1
 5761 169b 52       		.byte	0x52
 5762 169c 01       		.uleb128 0x1
 5763 169d 38       		.byte	0x38
 5764 169e 00       		.byte	0
 5765 169f 1D       		.uleb128 0x1d
 5766 16a0 22000000 		.4byte	.LVL385
 5767 16a4 3F080000 		.4byte	0x83f
 5768 16a8 B3160000 		.4byte	0x16b3
 5769 16ac 1E       		.uleb128 0x1e
 5770 16ad 01       		.uleb128 0x1
 5771 16ae 50       		.byte	0x50
 5772 16af 02       		.uleb128 0x2
 5773 16b0 74       		.byte	0x74
 5774 16b1 00       		.sleb128 0
 5775 16b2 00       		.byte	0
 5776 16b3 1D       		.uleb128 0x1d
 5777 16b4 36000000 		.4byte	.LVL387
 5778 16b8 83080000 		.4byte	0x883
 5779 16bc D2160000 		.4byte	0x16d2
 5780 16c0 1E       		.uleb128 0x1e
 5781 16c1 01       		.uleb128 0x1
 5782 16c2 51       		.byte	0x51
 5783 16c3 02       		.uleb128 0x2
 5784 16c4 91       		.byte	0x91
 5785 16c5 68       		.sleb128 -24
 5786 16c6 1E       		.uleb128 0x1e
 5787 16c7 01       		.uleb128 0x1
 5788 16c8 52       		.byte	0x52
 5789 16c9 01       		.uleb128 0x1
 5790 16ca 38       		.byte	0x38
 5791 16cb 1E       		.uleb128 0x1e
 5792 16cc 01       		.uleb128 0x1
ARM GAS  C:\Users\simon\AppData\Local\Temp\cc07ySAM.s 			page 133


 5793 16cd 53       		.byte	0x53
 5794 16ce 02       		.uleb128 0x2
 5795 16cf 74       		.byte	0x74
 5796 16d0 00       		.sleb128 0
 5797 16d1 00       		.byte	0
 5798 16d2 1D       		.uleb128 0x1d
 5799 16d3 42000000 		.4byte	.LVL389
 5800 16d7 E5140000 		.4byte	0x14e5
 5801 16db EC160000 		.4byte	0x16ec
 5802 16df 1E       		.uleb128 0x1e
 5803 16e0 01       		.uleb128 0x1
 5804 16e1 50       		.byte	0x50
 5805 16e2 02       		.uleb128 0x2
 5806 16e3 91       		.byte	0x91
 5807 16e4 68       		.sleb128 -24
 5808 16e5 1E       		.uleb128 0x1e
 5809 16e6 01       		.uleb128 0x1
 5810 16e7 51       		.byte	0x51
 5811 16e8 02       		.uleb128 0x2
 5812 16e9 91       		.byte	0x91
 5813 16ea 5C       		.sleb128 -36
 5814 16eb 00       		.byte	0
 5815 16ec 20       		.uleb128 0x20
 5816 16ed 50000000 		.4byte	.LVL390
 5817 16f1 4E150000 		.4byte	0x154e
 5818 16f5 1E       		.uleb128 0x1e
 5819 16f6 01       		.uleb128 0x1
 5820 16f7 50       		.byte	0x50
 5821 16f8 02       		.uleb128 0x2
 5822 16f9 76       		.byte	0x76
 5823 16fa 00       		.sleb128 0
 5824 16fb 1E       		.uleb128 0x1e
 5825 16fc 01       		.uleb128 0x1
 5826 16fd 51       		.byte	0x51
 5827 16fe 02       		.uleb128 0x2
 5828 16ff 91       		.byte	0x91
 5829 1700 5C       		.sleb128 -36
 5830 1701 1E       		.uleb128 0x1e
 5831 1702 01       		.uleb128 0x1
 5832 1703 52       		.byte	0x52
 5833 1704 02       		.uleb128 0x2
 5834 1705 75       		.byte	0x75
 5835 1706 00       		.sleb128 0
 5836 1707 1E       		.uleb128 0x1e
 5837 1708 01       		.uleb128 0x1
 5838 1709 53       		.byte	0x53
 5839 170a 02       		.uleb128 0x2
 5840 170b 74       		.byte	0x74
 5841 170c 10       		.sleb128 16
 5842 170d 00       		.byte	0
 5843 170e 00       		.byte	0
 5844 170f 21       		.uleb128 0x21
 5845 1710 C3000000 		.4byte	0xc3
 5846 1714 1F170000 		.4byte	0x171f
 5847 1718 22       		.uleb128 0x22
 5848 1719 200A0000 		.4byte	0xa20
 5849 171d 07       		.byte	0x7
ARM GAS  C:\Users\simon\AppData\Local\Temp\cc07ySAM.s 			page 134


 5850 171e 00       		.byte	0
 5851 171f 26       		.uleb128 0x26
 5852 1720 9C010000 		.4byte	.LASF139
 5853 1724 01       		.byte	0x1
 5854 1725 0C03     		.2byte	0x30c
 5855 1727 EF000000 		.4byte	0xef
 5856 172b 00000000 		.4byte	.LFB11
 5857 172f 70000000 		.4byte	.LFE11-.LFB11
 5858 1733 01       		.uleb128 0x1
 5859 1734 9C       		.byte	0x9c
 5860 1735 B5170000 		.4byte	0x17b5
 5861 1739 10       		.uleb128 0x10
 5862 173a 1E050000 		.4byte	.LASF67
 5863 173e 01       		.byte	0x1
 5864 173f 0C03     		.2byte	0x30c
 5865 1741 E4030000 		.4byte	0x3e4
 5866 1745 D4200000 		.4byte	.LLST96
 5867 1749 19       		.uleb128 0x19
 5868 174a 00000000 		.4byte	.LASF140
 5869 174e 01       		.byte	0x1
 5870 174f 0E03     		.2byte	0x30e
 5871 1751 EF000000 		.4byte	0xef
 5872 1755 01       		.uleb128 0x1
 5873 1756 50       		.byte	0x50
 5874 1757 13       		.uleb128 0x13
 5875 1758 85050000 		.4byte	.LASF141
 5876 175c 01       		.byte	0x1
 5877 175d 0F03     		.2byte	0x30f
 5878 175f C3000000 		.4byte	0xc3
 5879 1763 19210000 		.4byte	.LLST97
 5880 1767 13       		.uleb128 0x13
 5881 1768 31000000 		.4byte	.LASF142
 5882 176c 01       		.byte	0x1
 5883 176d 1003     		.2byte	0x310
 5884 176f C3000000 		.4byte	0xc3
 5885 1773 37210000 		.4byte	.LLST98
 5886 1777 13       		.uleb128 0x13
 5887 1778 E0070000 		.4byte	.LASF143
 5888 177c 01       		.byte	0x1
 5889 177d 1103     		.2byte	0x311
 5890 177f C3000000 		.4byte	0xc3
 5891 1783 55210000 		.4byte	.LLST99
 5892 1787 19       		.uleb128 0x19
 5893 1788 21060000 		.4byte	.LASF144
 5894 178c 01       		.byte	0x1
 5895 178d 1403     		.2byte	0x314
 5896 178f B5170000 		.4byte	0x17b5
 5897 1793 02       		.uleb128 0x2
 5898 1794 91       		.byte	0x91
 5899 1795 70       		.sleb128 -16
 5900 1796 20       		.uleb128 0x20
 5901 1797 10000000 		.4byte	.LVL399
 5902 179b CE170000 		.4byte	0x17ce
 5903 179f 1E       		.uleb128 0x1e
 5904 17a0 01       		.uleb128 0x1
 5905 17a1 50       		.byte	0x50
 5906 17a2 02       		.uleb128 0x2
ARM GAS  C:\Users\simon\AppData\Local\Temp\cc07ySAM.s 			page 135


 5907 17a3 7D       		.byte	0x7d
 5908 17a4 00       		.sleb128 0
 5909 17a5 1E       		.uleb128 0x1e
 5910 17a6 01       		.uleb128 0x1
 5911 17a7 51       		.byte	0x51
 5912 17a8 05       		.uleb128 0x5
 5913 17a9 03       		.byte	0x3
 5914 17aa 00000000 		.4byte	.LANCHOR0
 5915 17ae 1E       		.uleb128 0x1e
 5916 17af 01       		.uleb128 0x1
 5917 17b0 52       		.byte	0x52
 5918 17b1 01       		.uleb128 0x1
 5919 17b2 36       		.byte	0x36
 5920 17b3 00       		.byte	0
 5921 17b4 00       		.byte	0
 5922 17b5 21       		.uleb128 0x21
 5923 17b6 C3000000 		.4byte	0xc3
 5924 17ba C5170000 		.4byte	0x17c5
 5925 17be 22       		.uleb128 0x22
 5926 17bf 200A0000 		.4byte	0xa20
 5927 17c3 05       		.byte	0x5
 5928 17c4 00       		.byte	0
 5929 17c5 27       		.uleb128 0x27
 5930 17c6 06070000 		.4byte	.LASF145
 5931 17ca 06070000 		.4byte	.LASF145
 5932 17ce 27       		.uleb128 0x27
 5933 17cf 53020000 		.4byte	.LASF146
 5934 17d3 53020000 		.4byte	.LASF146
 5935 17d7 00       		.byte	0
 5936              		.section	.debug_abbrev,"",%progbits
 5937              	.Ldebug_abbrev0:
 5938 0000 01       		.uleb128 0x1
 5939 0001 11       		.uleb128 0x11
 5940 0002 01       		.byte	0x1
 5941 0003 25       		.uleb128 0x25
 5942 0004 0E       		.uleb128 0xe
 5943 0005 13       		.uleb128 0x13
 5944 0006 0B       		.uleb128 0xb
 5945 0007 03       		.uleb128 0x3
 5946 0008 0E       		.uleb128 0xe
 5947 0009 1B       		.uleb128 0x1b
 5948 000a 0E       		.uleb128 0xe
 5949 000b 55       		.uleb128 0x55
 5950 000c 17       		.uleb128 0x17
 5951 000d 11       		.uleb128 0x11
 5952 000e 01       		.uleb128 0x1
 5953 000f 10       		.uleb128 0x10
 5954 0010 17       		.uleb128 0x17
 5955 0011 00       		.byte	0
 5956 0012 00       		.byte	0
 5957 0013 02       		.uleb128 0x2
 5958 0014 16       		.uleb128 0x16
 5959 0015 00       		.byte	0
 5960 0016 03       		.uleb128 0x3
 5961 0017 0E       		.uleb128 0xe
 5962 0018 3A       		.uleb128 0x3a
 5963 0019 0B       		.uleb128 0xb
ARM GAS  C:\Users\simon\AppData\Local\Temp\cc07ySAM.s 			page 136


 5964 001a 3B       		.uleb128 0x3b
 5965 001b 0B       		.uleb128 0xb
 5966 001c 49       		.uleb128 0x49
 5967 001d 13       		.uleb128 0x13
 5968 001e 00       		.byte	0
 5969 001f 00       		.byte	0
 5970 0020 03       		.uleb128 0x3
 5971 0021 24       		.uleb128 0x24
 5972 0022 00       		.byte	0
 5973 0023 0B       		.uleb128 0xb
 5974 0024 0B       		.uleb128 0xb
 5975 0025 3E       		.uleb128 0x3e
 5976 0026 0B       		.uleb128 0xb
 5977 0027 03       		.uleb128 0x3
 5978 0028 0E       		.uleb128 0xe
 5979 0029 00       		.byte	0
 5980 002a 00       		.byte	0
 5981 002b 04       		.uleb128 0x4
 5982 002c 24       		.uleb128 0x24
 5983 002d 00       		.byte	0
 5984 002e 0B       		.uleb128 0xb
 5985 002f 0B       		.uleb128 0xb
 5986 0030 3E       		.uleb128 0x3e
 5987 0031 0B       		.uleb128 0xb
 5988 0032 03       		.uleb128 0x3
 5989 0033 08       		.uleb128 0x8
 5990 0034 00       		.byte	0
 5991 0035 00       		.byte	0
 5992 0036 05       		.uleb128 0x5
 5993 0037 04       		.uleb128 0x4
 5994 0038 01       		.byte	0x1
 5995 0039 03       		.uleb128 0x3
 5996 003a 0E       		.uleb128 0xe
 5997 003b 0B       		.uleb128 0xb
 5998 003c 0B       		.uleb128 0xb
 5999 003d 49       		.uleb128 0x49
 6000 003e 13       		.uleb128 0x13
 6001 003f 3A       		.uleb128 0x3a
 6002 0040 0B       		.uleb128 0xb
 6003 0041 3B       		.uleb128 0x3b
 6004 0042 0B       		.uleb128 0xb
 6005 0043 01       		.uleb128 0x1
 6006 0044 13       		.uleb128 0x13
 6007 0045 00       		.byte	0
 6008 0046 00       		.byte	0
 6009 0047 06       		.uleb128 0x6
 6010 0048 28       		.uleb128 0x28
 6011 0049 00       		.byte	0
 6012 004a 03       		.uleb128 0x3
 6013 004b 0E       		.uleb128 0xe
 6014 004c 1C       		.uleb128 0x1c
 6015 004d 0B       		.uleb128 0xb
 6016 004e 00       		.byte	0
 6017 004f 00       		.byte	0
 6018 0050 07       		.uleb128 0x7
 6019 0051 0F       		.uleb128 0xf
 6020 0052 00       		.byte	0
ARM GAS  C:\Users\simon\AppData\Local\Temp\cc07ySAM.s 			page 137


 6021 0053 0B       		.uleb128 0xb
 6022 0054 0B       		.uleb128 0xb
 6023 0055 49       		.uleb128 0x49
 6024 0056 13       		.uleb128 0x13
 6025 0057 00       		.byte	0
 6026 0058 00       		.byte	0
 6027 0059 08       		.uleb128 0x8
 6028 005a 15       		.uleb128 0x15
 6029 005b 01       		.byte	0x1
 6030 005c 27       		.uleb128 0x27
 6031 005d 19       		.uleb128 0x19
 6032 005e 49       		.uleb128 0x49
 6033 005f 13       		.uleb128 0x13
 6034 0060 01       		.uleb128 0x1
 6035 0061 13       		.uleb128 0x13
 6036 0062 00       		.byte	0
 6037 0063 00       		.byte	0
 6038 0064 09       		.uleb128 0x9
 6039 0065 05       		.uleb128 0x5
 6040 0066 00       		.byte	0
 6041 0067 49       		.uleb128 0x49
 6042 0068 13       		.uleb128 0x13
 6043 0069 00       		.byte	0
 6044 006a 00       		.byte	0
 6045 006b 0A       		.uleb128 0xa
 6046 006c 16       		.uleb128 0x16
 6047 006d 00       		.byte	0
 6048 006e 03       		.uleb128 0x3
 6049 006f 0E       		.uleb128 0xe
 6050 0070 3A       		.uleb128 0x3a
 6051 0071 0B       		.uleb128 0xb
 6052 0072 3B       		.uleb128 0x3b
 6053 0073 05       		.uleb128 0x5
 6054 0074 49       		.uleb128 0x49
 6055 0075 13       		.uleb128 0x13
 6056 0076 00       		.byte	0
 6057 0077 00       		.byte	0
 6058 0078 0B       		.uleb128 0xb
 6059 0079 15       		.uleb128 0x15
 6060 007a 01       		.byte	0x1
 6061 007b 27       		.uleb128 0x27
 6062 007c 19       		.uleb128 0x19
 6063 007d 01       		.uleb128 0x1
 6064 007e 13       		.uleb128 0x13
 6065 007f 00       		.byte	0
 6066 0080 00       		.byte	0
 6067 0081 0C       		.uleb128 0xc
 6068 0082 13       		.uleb128 0x13
 6069 0083 01       		.byte	0x1
 6070 0084 03       		.uleb128 0x3
 6071 0085 0E       		.uleb128 0xe
 6072 0086 0B       		.uleb128 0xb
 6073 0087 0B       		.uleb128 0xb
 6074 0088 3A       		.uleb128 0x3a
 6075 0089 0B       		.uleb128 0xb
 6076 008a 3B       		.uleb128 0x3b
 6077 008b 05       		.uleb128 0x5
ARM GAS  C:\Users\simon\AppData\Local\Temp\cc07ySAM.s 			page 138


 6078 008c 01       		.uleb128 0x1
 6079 008d 13       		.uleb128 0x13
 6080 008e 00       		.byte	0
 6081 008f 00       		.byte	0
 6082 0090 0D       		.uleb128 0xd
 6083 0091 0D       		.uleb128 0xd
 6084 0092 00       		.byte	0
 6085 0093 03       		.uleb128 0x3
 6086 0094 0E       		.uleb128 0xe
 6087 0095 3A       		.uleb128 0x3a
 6088 0096 0B       		.uleb128 0xb
 6089 0097 3B       		.uleb128 0x3b
 6090 0098 05       		.uleb128 0x5
 6091 0099 49       		.uleb128 0x49
 6092 009a 13       		.uleb128 0x13
 6093 009b 38       		.uleb128 0x38
 6094 009c 0B       		.uleb128 0xb
 6095 009d 00       		.byte	0
 6096 009e 00       		.byte	0
 6097 009f 0E       		.uleb128 0xe
 6098 00a0 2E       		.uleb128 0x2e
 6099 00a1 01       		.byte	0x1
 6100 00a2 03       		.uleb128 0x3
 6101 00a3 0E       		.uleb128 0xe
 6102 00a4 3A       		.uleb128 0x3a
 6103 00a5 0B       		.uleb128 0xb
 6104 00a6 3B       		.uleb128 0x3b
 6105 00a7 05       		.uleb128 0x5
 6106 00a8 27       		.uleb128 0x27
 6107 00a9 19       		.uleb128 0x19
 6108 00aa 11       		.uleb128 0x11
 6109 00ab 01       		.uleb128 0x1
 6110 00ac 12       		.uleb128 0x12
 6111 00ad 06       		.uleb128 0x6
 6112 00ae 40       		.uleb128 0x40
 6113 00af 18       		.uleb128 0x18
 6114 00b0 9742     		.uleb128 0x2117
 6115 00b2 19       		.uleb128 0x19
 6116 00b3 01       		.uleb128 0x1
 6117 00b4 13       		.uleb128 0x13
 6118 00b5 00       		.byte	0
 6119 00b6 00       		.byte	0
 6120 00b7 0F       		.uleb128 0xf
 6121 00b8 05       		.uleb128 0x5
 6122 00b9 00       		.byte	0
 6123 00ba 03       		.uleb128 0x3
 6124 00bb 0E       		.uleb128 0xe
 6125 00bc 3A       		.uleb128 0x3a
 6126 00bd 0B       		.uleb128 0xb
 6127 00be 3B       		.uleb128 0x3b
 6128 00bf 05       		.uleb128 0x5
 6129 00c0 49       		.uleb128 0x49
 6130 00c1 13       		.uleb128 0x13
 6131 00c2 02       		.uleb128 0x2
 6132 00c3 18       		.uleb128 0x18
 6133 00c4 00       		.byte	0
 6134 00c5 00       		.byte	0
ARM GAS  C:\Users\simon\AppData\Local\Temp\cc07ySAM.s 			page 139


 6135 00c6 10       		.uleb128 0x10
 6136 00c7 05       		.uleb128 0x5
 6137 00c8 00       		.byte	0
 6138 00c9 03       		.uleb128 0x3
 6139 00ca 0E       		.uleb128 0xe
 6140 00cb 3A       		.uleb128 0x3a
 6141 00cc 0B       		.uleb128 0xb
 6142 00cd 3B       		.uleb128 0x3b
 6143 00ce 05       		.uleb128 0x5
 6144 00cf 49       		.uleb128 0x49
 6145 00d0 13       		.uleb128 0x13
 6146 00d1 02       		.uleb128 0x2
 6147 00d2 17       		.uleb128 0x17
 6148 00d3 00       		.byte	0
 6149 00d4 00       		.byte	0
 6150 00d5 11       		.uleb128 0x11
 6151 00d6 26       		.uleb128 0x26
 6152 00d7 00       		.byte	0
 6153 00d8 49       		.uleb128 0x49
 6154 00d9 13       		.uleb128 0x13
 6155 00da 00       		.byte	0
 6156 00db 00       		.byte	0
 6157 00dc 12       		.uleb128 0x12
 6158 00dd 2E       		.uleb128 0x2e
 6159 00de 01       		.byte	0x1
 6160 00df 03       		.uleb128 0x3
 6161 00e0 0E       		.uleb128 0xe
 6162 00e1 3A       		.uleb128 0x3a
 6163 00e2 0B       		.uleb128 0xb
 6164 00e3 3B       		.uleb128 0x3b
 6165 00e4 05       		.uleb128 0x5
 6166 00e5 27       		.uleb128 0x27
 6167 00e6 19       		.uleb128 0x19
 6168 00e7 49       		.uleb128 0x49
 6169 00e8 13       		.uleb128 0x13
 6170 00e9 11       		.uleb128 0x11
 6171 00ea 01       		.uleb128 0x1
 6172 00eb 12       		.uleb128 0x12
 6173 00ec 06       		.uleb128 0x6
 6174 00ed 40       		.uleb128 0x40
 6175 00ee 18       		.uleb128 0x18
 6176 00ef 9742     		.uleb128 0x2117
 6177 00f1 19       		.uleb128 0x19
 6178 00f2 01       		.uleb128 0x1
 6179 00f3 13       		.uleb128 0x13
 6180 00f4 00       		.byte	0
 6181 00f5 00       		.byte	0
 6182 00f6 13       		.uleb128 0x13
 6183 00f7 34       		.uleb128 0x34
 6184 00f8 00       		.byte	0
 6185 00f9 03       		.uleb128 0x3
 6186 00fa 0E       		.uleb128 0xe
 6187 00fb 3A       		.uleb128 0x3a
 6188 00fc 0B       		.uleb128 0xb
 6189 00fd 3B       		.uleb128 0x3b
 6190 00fe 05       		.uleb128 0x5
 6191 00ff 49       		.uleb128 0x49
ARM GAS  C:\Users\simon\AppData\Local\Temp\cc07ySAM.s 			page 140


 6192 0100 13       		.uleb128 0x13
 6193 0101 02       		.uleb128 0x2
 6194 0102 17       		.uleb128 0x17
 6195 0103 00       		.byte	0
 6196 0104 00       		.byte	0
 6197 0105 14       		.uleb128 0x14
 6198 0106 34       		.uleb128 0x34
 6199 0107 00       		.byte	0
 6200 0108 03       		.uleb128 0x3
 6201 0109 0E       		.uleb128 0xe
 6202 010a 3A       		.uleb128 0x3a
 6203 010b 0B       		.uleb128 0xb
 6204 010c 3B       		.uleb128 0x3b
 6205 010d 05       		.uleb128 0x5
 6206 010e 49       		.uleb128 0x49
 6207 010f 13       		.uleb128 0x13
 6208 0110 1C       		.uleb128 0x1c
 6209 0111 0D       		.uleb128 0xd
 6210 0112 00       		.byte	0
 6211 0113 00       		.byte	0
 6212 0114 15       		.uleb128 0x15
 6213 0115 34       		.uleb128 0x34
 6214 0116 00       		.byte	0
 6215 0117 03       		.uleb128 0x3
 6216 0118 0E       		.uleb128 0xe
 6217 0119 3A       		.uleb128 0x3a
 6218 011a 0B       		.uleb128 0xb
 6219 011b 3B       		.uleb128 0x3b
 6220 011c 05       		.uleb128 0x5
 6221 011d 49       		.uleb128 0x49
 6222 011e 13       		.uleb128 0x13
 6223 011f 1C       		.uleb128 0x1c
 6224 0120 05       		.uleb128 0x5
 6225 0121 00       		.byte	0
 6226 0122 00       		.byte	0
 6227 0123 16       		.uleb128 0x16
 6228 0124 2E       		.uleb128 0x2e
 6229 0125 01       		.byte	0x1
 6230 0126 03       		.uleb128 0x3
 6231 0127 0E       		.uleb128 0xe
 6232 0128 3A       		.uleb128 0x3a
 6233 0129 0B       		.uleb128 0xb
 6234 012a 3B       		.uleb128 0x3b
 6235 012b 05       		.uleb128 0x5
 6236 012c 27       		.uleb128 0x27
 6237 012d 19       		.uleb128 0x19
 6238 012e 49       		.uleb128 0x49
 6239 012f 13       		.uleb128 0x13
 6240 0130 11       		.uleb128 0x11
 6241 0131 01       		.uleb128 0x1
 6242 0132 12       		.uleb128 0x12
 6243 0133 06       		.uleb128 0x6
 6244 0134 40       		.uleb128 0x40
 6245 0135 18       		.uleb128 0x18
 6246 0136 9642     		.uleb128 0x2116
 6247 0138 19       		.uleb128 0x19
 6248 0139 01       		.uleb128 0x1
ARM GAS  C:\Users\simon\AppData\Local\Temp\cc07ySAM.s 			page 141


 6249 013a 13       		.uleb128 0x13
 6250 013b 00       		.byte	0
 6251 013c 00       		.byte	0
 6252 013d 17       		.uleb128 0x17
 6253 013e 34       		.uleb128 0x34
 6254 013f 00       		.byte	0
 6255 0140 03       		.uleb128 0x3
 6256 0141 0E       		.uleb128 0xe
 6257 0142 3A       		.uleb128 0x3a
 6258 0143 0B       		.uleb128 0xb
 6259 0144 3B       		.uleb128 0x3b
 6260 0145 05       		.uleb128 0x5
 6261 0146 49       		.uleb128 0x49
 6262 0147 13       		.uleb128 0x13
 6263 0148 1C       		.uleb128 0x1c
 6264 0149 07       		.uleb128 0x7
 6265 014a 00       		.byte	0
 6266 014b 00       		.byte	0
 6267 014c 18       		.uleb128 0x18
 6268 014d 34       		.uleb128 0x34
 6269 014e 00       		.byte	0
 6270 014f 03       		.uleb128 0x3
 6271 0150 0E       		.uleb128 0xe
 6272 0151 3A       		.uleb128 0x3a
 6273 0152 0B       		.uleb128 0xb
 6274 0153 3B       		.uleb128 0x3b
 6275 0154 05       		.uleb128 0x5
 6276 0155 49       		.uleb128 0x49
 6277 0156 13       		.uleb128 0x13
 6278 0157 1C       		.uleb128 0x1c
 6279 0158 06       		.uleb128 0x6
 6280 0159 00       		.byte	0
 6281 015a 00       		.byte	0
 6282 015b 19       		.uleb128 0x19
 6283 015c 34       		.uleb128 0x34
 6284 015d 00       		.byte	0
 6285 015e 03       		.uleb128 0x3
 6286 015f 0E       		.uleb128 0xe
 6287 0160 3A       		.uleb128 0x3a
 6288 0161 0B       		.uleb128 0xb
 6289 0162 3B       		.uleb128 0x3b
 6290 0163 05       		.uleb128 0x5
 6291 0164 49       		.uleb128 0x49
 6292 0165 13       		.uleb128 0x13
 6293 0166 02       		.uleb128 0x2
 6294 0167 18       		.uleb128 0x18
 6295 0168 00       		.byte	0
 6296 0169 00       		.byte	0
 6297 016a 1A       		.uleb128 0x1a
 6298 016b 05       		.uleb128 0x5
 6299 016c 00       		.byte	0
 6300 016d 03       		.uleb128 0x3
 6301 016e 08       		.uleb128 0x8
 6302 016f 3A       		.uleb128 0x3a
 6303 0170 0B       		.uleb128 0xb
 6304 0171 3B       		.uleb128 0x3b
 6305 0172 05       		.uleb128 0x5
ARM GAS  C:\Users\simon\AppData\Local\Temp\cc07ySAM.s 			page 142


 6306 0173 49       		.uleb128 0x49
 6307 0174 13       		.uleb128 0x13
 6308 0175 02       		.uleb128 0x2
 6309 0176 18       		.uleb128 0x18
 6310 0177 00       		.byte	0
 6311 0178 00       		.byte	0
 6312 0179 1B       		.uleb128 0x1b
 6313 017a 05       		.uleb128 0x5
 6314 017b 00       		.byte	0
 6315 017c 03       		.uleb128 0x3
 6316 017d 08       		.uleb128 0x8
 6317 017e 3A       		.uleb128 0x3a
 6318 017f 0B       		.uleb128 0xb
 6319 0180 3B       		.uleb128 0x3b
 6320 0181 05       		.uleb128 0x5
 6321 0182 49       		.uleb128 0x49
 6322 0183 13       		.uleb128 0x13
 6323 0184 02       		.uleb128 0x2
 6324 0185 17       		.uleb128 0x17
 6325 0186 00       		.byte	0
 6326 0187 00       		.byte	0
 6327 0188 1C       		.uleb128 0x1c
 6328 0189 2E       		.uleb128 0x2e
 6329 018a 01       		.byte	0x1
 6330 018b 3F       		.uleb128 0x3f
 6331 018c 19       		.uleb128 0x19
 6332 018d 03       		.uleb128 0x3
 6333 018e 0E       		.uleb128 0xe
 6334 018f 3A       		.uleb128 0x3a
 6335 0190 0B       		.uleb128 0xb
 6336 0191 3B       		.uleb128 0x3b
 6337 0192 05       		.uleb128 0x5
 6338 0193 27       		.uleb128 0x27
 6339 0194 19       		.uleb128 0x19
 6340 0195 49       		.uleb128 0x49
 6341 0196 13       		.uleb128 0x13
 6342 0197 11       		.uleb128 0x11
 6343 0198 01       		.uleb128 0x1
 6344 0199 12       		.uleb128 0x12
 6345 019a 06       		.uleb128 0x6
 6346 019b 40       		.uleb128 0x40
 6347 019c 18       		.uleb128 0x18
 6348 019d 9742     		.uleb128 0x2117
 6349 019f 19       		.uleb128 0x19
 6350 01a0 01       		.uleb128 0x1
 6351 01a1 13       		.uleb128 0x13
 6352 01a2 00       		.byte	0
 6353 01a3 00       		.byte	0
 6354 01a4 1D       		.uleb128 0x1d
 6355 01a5 898201   		.uleb128 0x4109
 6356 01a8 01       		.byte	0x1
 6357 01a9 11       		.uleb128 0x11
 6358 01aa 01       		.uleb128 0x1
 6359 01ab 31       		.uleb128 0x31
 6360 01ac 13       		.uleb128 0x13
 6361 01ad 01       		.uleb128 0x1
 6362 01ae 13       		.uleb128 0x13
ARM GAS  C:\Users\simon\AppData\Local\Temp\cc07ySAM.s 			page 143


 6363 01af 00       		.byte	0
 6364 01b0 00       		.byte	0
 6365 01b1 1E       		.uleb128 0x1e
 6366 01b2 8A8201   		.uleb128 0x410a
 6367 01b5 00       		.byte	0
 6368 01b6 02       		.uleb128 0x2
 6369 01b7 18       		.uleb128 0x18
 6370 01b8 9142     		.uleb128 0x2111
 6371 01ba 18       		.uleb128 0x18
 6372 01bb 00       		.byte	0
 6373 01bc 00       		.byte	0
 6374 01bd 1F       		.uleb128 0x1f
 6375 01be 898201   		.uleb128 0x4109
 6376 01c1 01       		.byte	0x1
 6377 01c2 11       		.uleb128 0x11
 6378 01c3 01       		.uleb128 0x1
 6379 01c4 9342     		.uleb128 0x2113
 6380 01c6 18       		.uleb128 0x18
 6381 01c7 00       		.byte	0
 6382 01c8 00       		.byte	0
 6383 01c9 20       		.uleb128 0x20
 6384 01ca 898201   		.uleb128 0x4109
 6385 01cd 01       		.byte	0x1
 6386 01ce 11       		.uleb128 0x11
 6387 01cf 01       		.uleb128 0x1
 6388 01d0 31       		.uleb128 0x31
 6389 01d1 13       		.uleb128 0x13
 6390 01d2 00       		.byte	0
 6391 01d3 00       		.byte	0
 6392 01d4 21       		.uleb128 0x21
 6393 01d5 01       		.uleb128 0x1
 6394 01d6 01       		.byte	0x1
 6395 01d7 49       		.uleb128 0x49
 6396 01d8 13       		.uleb128 0x13
 6397 01d9 01       		.uleb128 0x1
 6398 01da 13       		.uleb128 0x13
 6399 01db 00       		.byte	0
 6400 01dc 00       		.byte	0
 6401 01dd 22       		.uleb128 0x22
 6402 01de 21       		.uleb128 0x21
 6403 01df 00       		.byte	0
 6404 01e0 49       		.uleb128 0x49
 6405 01e1 13       		.uleb128 0x13
 6406 01e2 2F       		.uleb128 0x2f
 6407 01e3 0B       		.uleb128 0xb
 6408 01e4 00       		.byte	0
 6409 01e5 00       		.byte	0
 6410 01e6 23       		.uleb128 0x23
 6411 01e7 898201   		.uleb128 0x4109
 6412 01ea 01       		.byte	0x1
 6413 01eb 11       		.uleb128 0x11
 6414 01ec 01       		.uleb128 0x1
 6415 01ed 01       		.uleb128 0x1
 6416 01ee 13       		.uleb128 0x13
 6417 01ef 00       		.byte	0
 6418 01f0 00       		.byte	0
 6419 01f1 24       		.uleb128 0x24
ARM GAS  C:\Users\simon\AppData\Local\Temp\cc07ySAM.s 			page 144


 6420 01f2 898201   		.uleb128 0x4109
 6421 01f5 01       		.byte	0x1
 6422 01f6 11       		.uleb128 0x11
 6423 01f7 01       		.uleb128 0x1
 6424 01f8 00       		.byte	0
 6425 01f9 00       		.byte	0
 6426 01fa 25       		.uleb128 0x25
 6427 01fb 2E       		.uleb128 0x2e
 6428 01fc 01       		.byte	0x1
 6429 01fd 3F       		.uleb128 0x3f
 6430 01fe 19       		.uleb128 0x19
 6431 01ff 03       		.uleb128 0x3
 6432 0200 0E       		.uleb128 0xe
 6433 0201 3A       		.uleb128 0x3a
 6434 0202 0B       		.uleb128 0xb
 6435 0203 3B       		.uleb128 0x3b
 6436 0204 05       		.uleb128 0x5
 6437 0205 27       		.uleb128 0x27
 6438 0206 19       		.uleb128 0x19
 6439 0207 11       		.uleb128 0x11
 6440 0208 01       		.uleb128 0x1
 6441 0209 12       		.uleb128 0x12
 6442 020a 06       		.uleb128 0x6
 6443 020b 40       		.uleb128 0x40
 6444 020c 18       		.uleb128 0x18
 6445 020d 9742     		.uleb128 0x2117
 6446 020f 19       		.uleb128 0x19
 6447 0210 01       		.uleb128 0x1
 6448 0211 13       		.uleb128 0x13
 6449 0212 00       		.byte	0
 6450 0213 00       		.byte	0
 6451 0214 26       		.uleb128 0x26
 6452 0215 2E       		.uleb128 0x2e
 6453 0216 01       		.byte	0x1
 6454 0217 3F       		.uleb128 0x3f
 6455 0218 19       		.uleb128 0x19
 6456 0219 03       		.uleb128 0x3
 6457 021a 0E       		.uleb128 0xe
 6458 021b 3A       		.uleb128 0x3a
 6459 021c 0B       		.uleb128 0xb
 6460 021d 3B       		.uleb128 0x3b
 6461 021e 05       		.uleb128 0x5
 6462 021f 27       		.uleb128 0x27
 6463 0220 19       		.uleb128 0x19
 6464 0221 49       		.uleb128 0x49
 6465 0222 13       		.uleb128 0x13
 6466 0223 11       		.uleb128 0x11
 6467 0224 01       		.uleb128 0x1
 6468 0225 12       		.uleb128 0x12
 6469 0226 06       		.uleb128 0x6
 6470 0227 40       		.uleb128 0x40
 6471 0228 18       		.uleb128 0x18
 6472 0229 9642     		.uleb128 0x2116
 6473 022b 19       		.uleb128 0x19
 6474 022c 01       		.uleb128 0x1
 6475 022d 13       		.uleb128 0x13
 6476 022e 00       		.byte	0
ARM GAS  C:\Users\simon\AppData\Local\Temp\cc07ySAM.s 			page 145


 6477 022f 00       		.byte	0
 6478 0230 27       		.uleb128 0x27
 6479 0231 2E       		.uleb128 0x2e
 6480 0232 00       		.byte	0
 6481 0233 3F       		.uleb128 0x3f
 6482 0234 19       		.uleb128 0x19
 6483 0235 3C       		.uleb128 0x3c
 6484 0236 19       		.uleb128 0x19
 6485 0237 6E       		.uleb128 0x6e
 6486 0238 0E       		.uleb128 0xe
 6487 0239 03       		.uleb128 0x3
 6488 023a 0E       		.uleb128 0xe
 6489 023b 00       		.byte	0
 6490 023c 00       		.byte	0
 6491 023d 00       		.byte	0
 6492              		.section	.debug_loc,"",%progbits
 6493              	.Ldebug_loc0:
 6494              	.LLST0:
 6495 0000 00000000 		.4byte	.LVL0
 6496 0004 0C000000 		.4byte	.LVL1
 6497 0008 0100     		.2byte	0x1
 6498 000a 51       		.byte	0x51
 6499 000b 0C000000 		.4byte	.LVL1
 6500 000f 16000000 		.4byte	.LFE16
 6501 0013 0400     		.2byte	0x4
 6502 0015 F3       		.byte	0xf3
 6503 0016 01       		.uleb128 0x1
 6504 0017 51       		.byte	0x51
 6505 0018 9F       		.byte	0x9f
 6506 0019 00000000 		.4byte	0
 6507 001d 00000000 		.4byte	0
 6508              	.LLST1:
 6509 0021 00000000 		.4byte	.LVL2
 6510 0025 08000000 		.4byte	.LVL3
 6511 0029 0100     		.2byte	0x1
 6512 002b 51       		.byte	0x51
 6513 002c 08000000 		.4byte	.LVL3
 6514 0030 10000000 		.4byte	.LFE17
 6515 0034 0400     		.2byte	0x4
 6516 0036 F3       		.byte	0xf3
 6517 0037 01       		.uleb128 0x1
 6518 0038 51       		.byte	0x51
 6519 0039 9F       		.byte	0x9f
 6520 003a 00000000 		.4byte	0
 6521 003e 00000000 		.4byte	0
 6522              	.LLST2:
 6523 0042 00000000 		.4byte	.LVL4
 6524 0046 0C000000 		.4byte	.LVL5
 6525 004a 0100     		.2byte	0x1
 6526 004c 51       		.byte	0x51
 6527 004d 0C000000 		.4byte	.LVL5
 6528 0051 16000000 		.4byte	.LFE18
 6529 0055 0400     		.2byte	0x4
 6530 0057 F3       		.byte	0xf3
 6531 0058 01       		.uleb128 0x1
 6532 0059 51       		.byte	0x51
 6533 005a 9F       		.byte	0x9f
ARM GAS  C:\Users\simon\AppData\Local\Temp\cc07ySAM.s 			page 146


 6534 005b 00000000 		.4byte	0
 6535 005f 00000000 		.4byte	0
 6536              	.LLST3:
 6537 0063 00000000 		.4byte	.LVL6
 6538 0067 08000000 		.4byte	.LVL7
 6539 006b 0100     		.2byte	0x1
 6540 006d 51       		.byte	0x51
 6541 006e 08000000 		.4byte	.LVL7
 6542 0072 10000000 		.4byte	.LFE19
 6543 0076 0400     		.2byte	0x4
 6544 0078 F3       		.byte	0xf3
 6545 0079 01       		.uleb128 0x1
 6546 007a 51       		.byte	0x51
 6547 007b 9F       		.byte	0x9f
 6548 007c 00000000 		.4byte	0
 6549 0080 00000000 		.4byte	0
 6550              	.LLST4:
 6551 0084 00000000 		.4byte	.LVL9
 6552 0088 06000000 		.4byte	.LVL11
 6553 008c 0100     		.2byte	0x1
 6554 008e 50       		.byte	0x50
 6555 008f 06000000 		.4byte	.LVL11
 6556 0093 70000000 		.4byte	.LFE24
 6557 0097 0400     		.2byte	0x4
 6558 0099 F3       		.byte	0xf3
 6559 009a 01       		.uleb128 0x1
 6560 009b 50       		.byte	0x50
 6561 009c 9F       		.byte	0x9f
 6562 009d 00000000 		.4byte	0
 6563 00a1 00000000 		.4byte	0
 6564              	.LLST5:
 6565 00a5 0C000000 		.4byte	.LVL12
 6566 00a9 12000000 		.4byte	.LVL13
 6567 00ad 0100     		.2byte	0x1
 6568 00af 54       		.byte	0x54
 6569 00b0 12000000 		.4byte	.LVL13
 6570 00b4 1C000000 		.4byte	.LVL14
 6571 00b8 0A00     		.2byte	0xa
 6572 00ba 72       		.byte	0x72
 6573 00bb 00       		.sleb128 0
 6574 00bc 33       		.byte	0x33
 6575 00bd 25       		.byte	0x25
 6576 00be 73       		.byte	0x73
 6577 00bf 00       		.sleb128 0
 6578 00c0 31       		.byte	0x31
 6579 00c1 24       		.byte	0x24
 6580 00c2 1C       		.byte	0x1c
 6581 00c3 9F       		.byte	0x9f
 6582 00c4 1C000000 		.4byte	.LVL14
 6583 00c8 3E000000 		.4byte	.LVL19
 6584 00cc 0100     		.2byte	0x1
 6585 00ce 50       		.byte	0x50
 6586 00cf 3E000000 		.4byte	.LVL19
 6587 00d3 40000000 		.4byte	.LVL20
 6588 00d7 4200     		.2byte	0x42
 6589 00d9 F3       		.byte	0xf3
 6590 00da 01       		.uleb128 0x1
ARM GAS  C:\Users\simon\AppData\Local\Temp\cc07ySAM.s 			page 147


 6591 00db 50       		.byte	0x50
 6592 00dc 23       		.byte	0x23
 6593 00dd 04       		.uleb128 0x4
 6594 00de 06       		.byte	0x6
 6595 00df 33       		.byte	0x33
 6596 00e0 25       		.byte	0x25
 6597 00e1 71       		.byte	0x71
 6598 00e2 00       		.sleb128 0
 6599 00e3 94       		.byte	0x94
 6600 00e4 02       		.byte	0x2
 6601 00e5 0A       		.byte	0xa
 6602 00e6 FFFF     		.2byte	0xffff
 6603 00e8 1A       		.byte	0x1a
 6604 00e9 31       		.byte	0x31
 6605 00ea 24       		.byte	0x24
 6606 00eb 1C       		.byte	0x1c
 6607 00ec 71       		.byte	0x71
 6608 00ed 02       		.sleb128 2
 6609 00ee 94       		.byte	0x94
 6610 00ef 02       		.byte	0x2
 6611 00f0 40       		.byte	0x40
 6612 00f1 24       		.byte	0x24
 6613 00f2 40       		.byte	0x40
 6614 00f3 26       		.byte	0x26
 6615 00f4 1E       		.byte	0x1e
 6616 00f5 F3       		.byte	0xf3
 6617 00f6 01       		.uleb128 0x1
 6618 00f7 50       		.byte	0x50
 6619 00f8 23       		.byte	0x23
 6620 00f9 04       		.uleb128 0x4
 6621 00fa 06       		.byte	0x6
 6622 00fb 33       		.byte	0x33
 6623 00fc 25       		.byte	0x25
 6624 00fd 71       		.byte	0x71
 6625 00fe 00       		.sleb128 0
 6626 00ff 94       		.byte	0x94
 6627 0100 02       		.byte	0x2
 6628 0101 0A       		.byte	0xa
 6629 0102 FFFF     		.2byte	0xffff
 6630 0104 1A       		.byte	0x1a
 6631 0105 31       		.byte	0x31
 6632 0106 24       		.byte	0x24
 6633 0107 1C       		.byte	0x1c
 6634 0108 71       		.byte	0x71
 6635 0109 02       		.sleb128 2
 6636 010a 94       		.byte	0x94
 6637 010b 02       		.byte	0x2
 6638 010c 40       		.byte	0x40
 6639 010d 24       		.byte	0x24
 6640 010e 40       		.byte	0x40
 6641 010f 26       		.byte	0x26
 6642 0110 1E       		.byte	0x1e
 6643 0111 4F       		.byte	0x4f
 6644 0112 26       		.byte	0x26
 6645 0113 45       		.byte	0x45
 6646 0114 24       		.byte	0x24
 6647 0115 45       		.byte	0x45
ARM GAS  C:\Users\simon\AppData\Local\Temp\cc07ySAM.s 			page 148


 6648 0116 25       		.byte	0x25
 6649 0117 22       		.byte	0x22
 6650 0118 3B       		.byte	0x3b
 6651 0119 26       		.byte	0x26
 6652 011a 9F       		.byte	0x9f
 6653 011b 00000000 		.4byte	0
 6654 011f 00000000 		.4byte	0
 6655              	.LLST6:
 6656 0123 20000000 		.4byte	.LVL15
 6657 0127 22000000 		.4byte	.LVL16
 6658 012b 0100     		.2byte	0x1
 6659 012d 52       		.byte	0x52
 6660 012e 22000000 		.4byte	.LVL16
 6661 0132 24000000 		.4byte	.LVL17
 6662 0136 0C00     		.2byte	0xc
 6663 0138 F3       		.byte	0xf3
 6664 0139 01       		.uleb128 0x1
 6665 013a 50       		.byte	0x50
 6666 013b 23       		.byte	0x23
 6667 013c 04       		.uleb128 0x4
 6668 013d 06       		.byte	0x6
 6669 013e 34       		.byte	0x34
 6670 013f 25       		.byte	0x25
 6671 0140 73       		.byte	0x73
 6672 0141 00       		.sleb128 0
 6673 0142 1C       		.byte	0x1c
 6674 0143 9F       		.byte	0x9f
 6675 0144 24000000 		.4byte	.LVL17
 6676 0148 3C000000 		.4byte	.LVL18
 6677 014c 1200     		.2byte	0x12
 6678 014e F3       		.byte	0xf3
 6679 014f 01       		.uleb128 0x1
 6680 0150 50       		.byte	0x50
 6681 0151 23       		.byte	0x23
 6682 0152 04       		.uleb128 0x4
 6683 0153 06       		.byte	0x6
 6684 0154 34       		.byte	0x34
 6685 0155 25       		.byte	0x25
 6686 0156 71       		.byte	0x71
 6687 0157 00       		.sleb128 0
 6688 0158 94       		.byte	0x94
 6689 0159 02       		.byte	0x2
 6690 015a 0A       		.byte	0xa
 6691 015b FFFF     		.2byte	0xffff
 6692 015d 1A       		.byte	0x1a
 6693 015e 1C       		.byte	0x1c
 6694 015f 9F       		.byte	0x9f
 6695 0160 3C000000 		.4byte	.LVL18
 6696 0164 42000000 		.4byte	.LVL21
 6697 0168 0100     		.2byte	0x1
 6698 016a 53       		.byte	0x53
 6699 016b 00000000 		.4byte	0
 6700 016f 00000000 		.4byte	0
 6701              	.LLST7:
 6702 0173 52000000 		.4byte	.LVL22
 6703 0177 62000000 		.4byte	.LVL23
 6704 017b 0100     		.2byte	0x1
ARM GAS  C:\Users\simon\AppData\Local\Temp\cc07ySAM.s 			page 149


 6705 017d 50       		.byte	0x50
 6706 017e 62000000 		.4byte	.LVL23
 6707 0182 64000000 		.4byte	.LVL24
 6708 0186 1500     		.2byte	0x15
 6709 0188 72       		.byte	0x72
 6710 0189 00       		.sleb128 0
 6711 018a 08       		.byte	0x8
 6712 018b FF       		.byte	0xff
 6713 018c 1A       		.byte	0x1a
 6714 018d 71       		.byte	0x71
 6715 018e 24       		.sleb128 36
 6716 018f 06       		.byte	0x6
 6717 0190 32       		.byte	0x32
 6718 0191 24       		.byte	0x24
 6719 0192 22       		.byte	0x22
 6720 0193 71       		.byte	0x71
 6721 0194 24       		.sleb128 36
 6722 0195 06       		.byte	0x6
 6723 0196 22       		.byte	0x22
 6724 0197 23       		.byte	0x23
 6725 0198 8001     		.uleb128 0x80
 6726 019a 38       		.byte	0x38
 6727 019b 26       		.byte	0x26
 6728 019c 9F       		.byte	0x9f
 6729 019d 64000000 		.4byte	.LVL24
 6730 01a1 70000000 		.4byte	.LFE24
 6731 01a5 0100     		.2byte	0x1
 6732 01a7 50       		.byte	0x50
 6733 01a8 00000000 		.4byte	0
 6734 01ac 00000000 		.4byte	0
 6735              	.LLST8:
 6736 01b0 00000000 		.4byte	.LVL26
 6737 01b4 24000000 		.4byte	.LVL29
 6738 01b8 0100     		.2byte	0x1
 6739 01ba 50       		.byte	0x50
 6740 01bb 24000000 		.4byte	.LVL29
 6741 01bf 0C020000 		.4byte	.LVL70
 6742 01c3 0100     		.2byte	0x1
 6743 01c5 59       		.byte	0x59
 6744 01c6 0C020000 		.4byte	.LVL70
 6745 01ca 2C020000 		.4byte	.LFE25
 6746 01ce 0400     		.2byte	0x4
 6747 01d0 F3       		.byte	0xf3
 6748 01d1 01       		.uleb128 0x1
 6749 01d2 50       		.byte	0x50
 6750 01d3 9F       		.byte	0x9f
 6751 01d4 00000000 		.4byte	0
 6752 01d8 00000000 		.4byte	0
 6753              	.LLST9:
 6754 01dc 00000000 		.4byte	.LVL26
 6755 01e0 26000000 		.4byte	.LVL30
 6756 01e4 0100     		.2byte	0x1
 6757 01e6 51       		.byte	0x51
 6758 01e7 26000000 		.4byte	.LVL30
 6759 01eb 0C020000 		.4byte	.LVL69
 6760 01ef 0100     		.2byte	0x1
 6761 01f1 58       		.byte	0x58
ARM GAS  C:\Users\simon\AppData\Local\Temp\cc07ySAM.s 			page 150


 6762 01f2 0C020000 		.4byte	.LVL69
 6763 01f6 2C020000 		.4byte	.LFE25
 6764 01fa 0400     		.2byte	0x4
 6765 01fc F3       		.byte	0xf3
 6766 01fd 01       		.uleb128 0x1
 6767 01fe 51       		.byte	0x51
 6768 01ff 9F       		.byte	0x9f
 6769 0200 00000000 		.4byte	0
 6770 0204 00000000 		.4byte	0
 6771              	.LLST10:
 6772 0208 1E000000 		.4byte	.LVL28
 6773 020c AA000000 		.4byte	.LVL41
 6774 0210 0600     		.2byte	0x6
 6775 0212 56       		.byte	0x56
 6776 0213 93       		.byte	0x93
 6777 0214 04       		.uleb128 0x4
 6778 0215 57       		.byte	0x57
 6779 0216 93       		.byte	0x93
 6780 0217 04       		.uleb128 0x4
 6781 0218 B4000000 		.4byte	.LVL42
 6782 021c CA000000 		.4byte	.LVL44
 6783 0220 0600     		.2byte	0x6
 6784 0222 54       		.byte	0x54
 6785 0223 93       		.byte	0x93
 6786 0224 04       		.uleb128 0x4
 6787 0225 55       		.byte	0x55
 6788 0226 93       		.byte	0x93
 6789 0227 04       		.uleb128 0x4
 6790 0228 DA000000 		.4byte	.LVL45
 6791 022c 0A010000 		.4byte	.LVL50
 6792 0230 0600     		.2byte	0x6
 6793 0232 55       		.byte	0x55
 6794 0233 93       		.byte	0x93
 6795 0234 04       		.uleb128 0x4
 6796 0235 54       		.byte	0x54
 6797 0236 93       		.byte	0x93
 6798 0237 04       		.uleb128 0x4
 6799 0238 52010000 		.4byte	.LVL54
 6800 023c BA010000 		.4byte	.LVL59
 6801 0240 0600     		.2byte	0x6
 6802 0242 56       		.byte	0x56
 6803 0243 93       		.byte	0x93
 6804 0244 04       		.uleb128 0x4
 6805 0245 57       		.byte	0x57
 6806 0246 93       		.byte	0x93
 6807 0247 04       		.uleb128 0x4
 6808 0248 00020000 		.4byte	.LVL64
 6809 024c 04020000 		.4byte	.LVL65
 6810 0250 0600     		.2byte	0x6
 6811 0252 55       		.byte	0x55
 6812 0253 93       		.byte	0x93
 6813 0254 04       		.uleb128 0x4
 6814 0255 54       		.byte	0x54
 6815 0256 93       		.byte	0x93
 6816 0257 04       		.uleb128 0x4
 6817 0258 00000000 		.4byte	0
 6818 025c 00000000 		.4byte	0
ARM GAS  C:\Users\simon\AppData\Local\Temp\cc07ySAM.s 			page 151


 6819              	.LLST11:
 6820 0260 3E000000 		.4byte	.LVL33
 6821 0264 6C000000 		.4byte	.LVL36
 6822 0268 0600     		.2byte	0x6
 6823 026a 54       		.byte	0x54
 6824 026b 93       		.byte	0x93
 6825 026c 04       		.uleb128 0x4
 6826 026d 55       		.byte	0x55
 6827 026e 93       		.byte	0x93
 6828 026f 04       		.uleb128 0x4
 6829 0270 70000000 		.4byte	.LVL37
 6830 0274 84000000 		.4byte	.LVL39
 6831 0278 0600     		.2byte	0x6
 6832 027a 54       		.byte	0x54
 6833 027b 93       		.byte	0x93
 6834 027c 04       		.uleb128 0x4
 6835 027d 55       		.byte	0x55
 6836 027e 93       		.byte	0x93
 6837 027f 04       		.uleb128 0x4
 6838 0280 84000000 		.4byte	.LVL39
 6839 0284 92010000 		.4byte	.LVL56
 6840 0288 0200     		.2byte	0x2
 6841 028a 91       		.byte	0x91
 6842 028b 58       		.sleb128 -40
 6843 028c 92010000 		.4byte	.LVL56
 6844 0290 9A010000 		.4byte	.LVL58
 6845 0294 0600     		.2byte	0x6
 6846 0296 52       		.byte	0x52
 6847 0297 93       		.byte	0x93
 6848 0298 04       		.uleb128 0x4
 6849 0299 53       		.byte	0x53
 6850 029a 93       		.byte	0x93
 6851 029b 04       		.uleb128 0x4
 6852 029c 00020000 		.4byte	.LVL64
 6853 02a0 04020000 		.4byte	.LVL65
 6854 02a4 0200     		.2byte	0x2
 6855 02a6 91       		.byte	0x91
 6856 02a7 58       		.sleb128 -40
 6857 02a8 00000000 		.4byte	0
 6858 02ac 00000000 		.4byte	0
 6859              	.LLST12:
 6860 02b0 0C010000 		.4byte	.LVL51
 6861 02b4 96010000 		.4byte	.LVL57
 6862 02b8 0600     		.2byte	0x6
 6863 02ba 54       		.byte	0x54
 6864 02bb 93       		.byte	0x93
 6865 02bc 04       		.uleb128 0x4
 6866 02bd 55       		.byte	0x55
 6867 02be 93       		.byte	0x93
 6868 02bf 04       		.uleb128 0x4
 6869 02c0 C6010000 		.4byte	.LVL60
 6870 02c4 CE010000 		.4byte	.LVL61
 6871 02c8 0600     		.2byte	0x6
 6872 02ca 52       		.byte	0x52
 6873 02cb 93       		.byte	0x93
 6874 02cc 04       		.uleb128 0x4
 6875 02cd 53       		.byte	0x53
ARM GAS  C:\Users\simon\AppData\Local\Temp\cc07ySAM.s 			page 152


 6876 02ce 93       		.byte	0x93
 6877 02cf 04       		.uleb128 0x4
 6878 02d0 00000000 		.4byte	0
 6879 02d4 00000000 		.4byte	0
 6880              	.LLST13:
 6881 02d8 F2010000 		.4byte	.LVL63
 6882 02dc 00020000 		.4byte	.LVL64
 6883 02e0 0100     		.2byte	0x1
 6884 02e2 50       		.byte	0x50
 6885 02e3 04020000 		.4byte	.LVL65
 6886 02e7 06020000 		.4byte	.LVL66
 6887 02eb 0100     		.2byte	0x1
 6888 02ed 50       		.byte	0x50
 6889 02ee 08020000 		.4byte	.LVL67
 6890 02f2 2C020000 		.4byte	.LFE25
 6891 02f6 0100     		.2byte	0x1
 6892 02f8 50       		.byte	0x50
 6893 02f9 00000000 		.4byte	0
 6894 02fd 00000000 		.4byte	0
 6895              	.LLST14:
 6896 0301 00000000 		.4byte	.LVL71
 6897 0305 1A000000 		.4byte	.LVL77
 6898 0309 0100     		.2byte	0x1
 6899 030b 50       		.byte	0x50
 6900 030c 1A000000 		.4byte	.LVL77
 6901 0310 D4000000 		.4byte	.LFE26
 6902 0314 0400     		.2byte	0x4
 6903 0316 F3       		.byte	0xf3
 6904 0317 01       		.uleb128 0x1
 6905 0318 50       		.byte	0x50
 6906 0319 9F       		.byte	0x9f
 6907 031a 00000000 		.4byte	0
 6908 031e 00000000 		.4byte	0
 6909              	.LLST15:
 6910 0322 00000000 		.4byte	.LVL71
 6911 0326 9E000000 		.4byte	.LVL96
 6912 032a 0100     		.2byte	0x1
 6913 032c 51       		.byte	0x51
 6914 032d 9E000000 		.4byte	.LVL96
 6915 0331 D4000000 		.4byte	.LFE26
 6916 0335 0400     		.2byte	0x4
 6917 0337 F3       		.byte	0xf3
 6918 0338 01       		.uleb128 0x1
 6919 0339 51       		.byte	0x51
 6920 033a 9F       		.byte	0x9f
 6921 033b 00000000 		.4byte	0
 6922 033f 00000000 		.4byte	0
 6923              	.LLST16:
 6924 0343 0C000000 		.4byte	.LVL73
 6925 0347 14000000 		.4byte	.LVL75
 6926 034b 0100     		.2byte	0x1
 6927 034d 53       		.byte	0x53
 6928 034e 14000000 		.4byte	.LVL75
 6929 0352 CE000000 		.4byte	.LVL106
 6930 0356 0100     		.2byte	0x1
 6931 0358 56       		.byte	0x56
 6932 0359 CE000000 		.4byte	.LVL106
ARM GAS  C:\Users\simon\AppData\Local\Temp\cc07ySAM.s 			page 153


 6933 035d D4000000 		.4byte	.LFE26
 6934 0361 0C00     		.2byte	0xc
 6935 0363 F3       		.byte	0xf3
 6936 0364 01       		.uleb128 0x1
 6937 0365 51       		.byte	0x51
 6938 0366 23       		.byte	0x23
 6939 0367 24       		.uleb128 0x24
 6940 0368 06       		.byte	0x6
 6941 0369 08       		.byte	0x8
 6942 036a 96       		.byte	0x96
 6943 036b 39       		.byte	0x39
 6944 036c 24       		.byte	0x24
 6945 036d 1C       		.byte	0x1c
 6946 036e 9F       		.byte	0x9f
 6947 036f 00000000 		.4byte	0
 6948 0373 00000000 		.4byte	0
 6949              	.LLST17:
 6950 0377 10000000 		.4byte	.LVL74
 6951 037b 42000000 		.4byte	.LVL82
 6952 037f 0100     		.2byte	0x1
 6953 0381 55       		.byte	0x55
 6954 0382 42000000 		.4byte	.LVL82
 6955 0386 5A000000 		.4byte	.LVL85
 6956 038a 0100     		.2byte	0x1
 6957 038c 53       		.byte	0x53
 6958 038d 5A000000 		.4byte	.LVL85
 6959 0391 82000000 		.4byte	.LVL91
 6960 0395 2000     		.2byte	0x20
 6961 0397 71       		.byte	0x71
 6962 0398 22       		.sleb128 34
 6963 0399 94       		.byte	0x94
 6964 039a 01       		.byte	0x1
 6965 039b 48       		.byte	0x48
 6966 039c 24       		.byte	0x24
 6967 039d 48       		.byte	0x48
 6968 039e 26       		.byte	0x26
 6969 039f 76       		.byte	0x76
 6970 03a0 00       		.sleb128 0
 6971 03a1 1E       		.byte	0x1e
 6972 03a2 71       		.byte	0x71
 6973 03a3 22       		.sleb128 34
 6974 03a4 94       		.byte	0x94
 6975 03a5 01       		.byte	0x1
 6976 03a6 48       		.byte	0x48
 6977 03a7 24       		.byte	0x24
 6978 03a8 48       		.byte	0x48
 6979 03a9 26       		.byte	0x26
 6980 03aa 76       		.byte	0x76
 6981 03ab 00       		.sleb128 0
 6982 03ac 1E       		.byte	0x1e
 6983 03ad 4F       		.byte	0x4f
 6984 03ae 26       		.byte	0x26
 6985 03af 46       		.byte	0x46
 6986 03b0 24       		.byte	0x24
 6987 03b1 46       		.byte	0x46
 6988 03b2 25       		.byte	0x25
 6989 03b3 22       		.byte	0x22
ARM GAS  C:\Users\simon\AppData\Local\Temp\cc07ySAM.s 			page 154


 6990 03b4 3A       		.byte	0x3a
 6991 03b5 26       		.byte	0x26
 6992 03b6 9F       		.byte	0x9f
 6993 03b7 82000000 		.4byte	.LVL91
 6994 03bb 96000000 		.4byte	.LVL94
 6995 03bf 0100     		.2byte	0x1
 6996 03c1 54       		.byte	0x54
 6997 03c2 96000000 		.4byte	.LVL94
 6998 03c6 9E000000 		.4byte	.LVL96
 6999 03ca 3E01     		.2byte	0x13e
 7000 03cc 71       		.byte	0x71
 7001 03cd 1C       		.sleb128 28
 7002 03ce 94       		.byte	0x94
 7003 03cf 01       		.byte	0x1
 7004 03d0 08       		.byte	0x8
 7005 03d1 FF       		.byte	0xff
 7006 03d2 1A       		.byte	0x1a
 7007 03d3 76       		.byte	0x76
 7008 03d4 00       		.sleb128 0
 7009 03d5 1E       		.byte	0x1e
 7010 03d6 71       		.byte	0x71
 7011 03d7 1C       		.sleb128 28
 7012 03d8 94       		.byte	0x94
 7013 03d9 01       		.byte	0x1
 7014 03da 08       		.byte	0x8
 7015 03db FF       		.byte	0xff
 7016 03dc 1A       		.byte	0x1a
 7017 03dd 76       		.byte	0x76
 7018 03de 00       		.sleb128 0
 7019 03df 1E       		.byte	0x1e
 7020 03e0 4F       		.byte	0x4f
 7021 03e1 26       		.byte	0x26
 7022 03e2 45       		.byte	0x45
 7023 03e3 24       		.byte	0x24
 7024 03e4 45       		.byte	0x45
 7025 03e5 25       		.byte	0x25
 7026 03e6 22       		.byte	0x22
 7027 03e7 3B       		.byte	0x3b
 7028 03e8 26       		.byte	0x26
 7029 03e9 23       		.byte	0x23
 7030 03ea 808002   		.uleb128 0x8000
 7031 03ed 71       		.byte	0x71
 7032 03ee 22       		.sleb128 34
 7033 03ef 94       		.byte	0x94
 7034 03f0 01       		.byte	0x1
 7035 03f1 48       		.byte	0x48
 7036 03f2 24       		.byte	0x24
 7037 03f3 48       		.byte	0x48
 7038 03f4 26       		.byte	0x26
 7039 03f5 76       		.byte	0x76
 7040 03f6 00       		.sleb128 0
 7041 03f7 1E       		.byte	0x1e
 7042 03f8 71       		.byte	0x71
 7043 03f9 22       		.sleb128 34
 7044 03fa 94       		.byte	0x94
 7045 03fb 01       		.byte	0x1
 7046 03fc 48       		.byte	0x48
ARM GAS  C:\Users\simon\AppData\Local\Temp\cc07ySAM.s 			page 155


 7047 03fd 24       		.byte	0x24
 7048 03fe 48       		.byte	0x48
 7049 03ff 26       		.byte	0x26
 7050 0400 76       		.byte	0x76
 7051 0401 00       		.sleb128 0
 7052 0402 1E       		.byte	0x1e
 7053 0403 4F       		.byte	0x4f
 7054 0404 26       		.byte	0x26
 7055 0405 46       		.byte	0x46
 7056 0406 24       		.byte	0x24
 7057 0407 46       		.byte	0x46
 7058 0408 25       		.byte	0x25
 7059 0409 22       		.byte	0x22
 7060 040a 3A       		.byte	0x3a
 7061 040b 26       		.byte	0x26
 7062 040c 1E       		.byte	0x1e
 7063 040d 71       		.byte	0x71
 7064 040e 1C       		.sleb128 28
 7065 040f 94       		.byte	0x94
 7066 0410 01       		.byte	0x1
 7067 0411 08       		.byte	0x8
 7068 0412 FF       		.byte	0xff
 7069 0413 1A       		.byte	0x1a
 7070 0414 76       		.byte	0x76
 7071 0415 00       		.sleb128 0
 7072 0416 1E       		.byte	0x1e
 7073 0417 71       		.byte	0x71
 7074 0418 1C       		.sleb128 28
 7075 0419 94       		.byte	0x94
 7076 041a 01       		.byte	0x1
 7077 041b 08       		.byte	0x8
 7078 041c FF       		.byte	0xff
 7079 041d 1A       		.byte	0x1a
 7080 041e 76       		.byte	0x76
 7081 041f 00       		.sleb128 0
 7082 0420 1E       		.byte	0x1e
 7083 0421 4F       		.byte	0x4f
 7084 0422 26       		.byte	0x26
 7085 0423 45       		.byte	0x45
 7086 0424 24       		.byte	0x24
 7087 0425 45       		.byte	0x45
 7088 0426 25       		.byte	0x25
 7089 0427 22       		.byte	0x22
 7090 0428 3B       		.byte	0x3b
 7091 0429 26       		.byte	0x26
 7092 042a 23       		.byte	0x23
 7093 042b 808002   		.uleb128 0x8000
 7094 042e 71       		.byte	0x71
 7095 042f 22       		.sleb128 34
 7096 0430 94       		.byte	0x94
 7097 0431 01       		.byte	0x1
 7098 0432 48       		.byte	0x48
 7099 0433 24       		.byte	0x24
 7100 0434 48       		.byte	0x48
 7101 0435 26       		.byte	0x26
 7102 0436 76       		.byte	0x76
 7103 0437 00       		.sleb128 0
ARM GAS  C:\Users\simon\AppData\Local\Temp\cc07ySAM.s 			page 156


 7104 0438 1E       		.byte	0x1e
 7105 0439 71       		.byte	0x71
 7106 043a 22       		.sleb128 34
 7107 043b 94       		.byte	0x94
 7108 043c 01       		.byte	0x1
 7109 043d 48       		.byte	0x48
 7110 043e 24       		.byte	0x24
 7111 043f 48       		.byte	0x48
 7112 0440 26       		.byte	0x26
 7113 0441 76       		.byte	0x76
 7114 0442 00       		.sleb128 0
 7115 0443 1E       		.byte	0x1e
 7116 0444 4F       		.byte	0x4f
 7117 0445 26       		.byte	0x26
 7118 0446 46       		.byte	0x46
 7119 0447 24       		.byte	0x24
 7120 0448 46       		.byte	0x46
 7121 0449 25       		.byte	0x25
 7122 044a 22       		.byte	0x22
 7123 044b 3A       		.byte	0x3a
 7124 044c 26       		.byte	0x26
 7125 044d 1E       		.byte	0x1e
 7126 044e 4F       		.byte	0x4f
 7127 044f 26       		.byte	0x26
 7128 0450 46       		.byte	0x46
 7129 0451 24       		.byte	0x24
 7130 0452 46       		.byte	0x46
 7131 0453 25       		.byte	0x25
 7132 0454 22       		.byte	0x22
 7133 0455 3A       		.byte	0x3a
 7134 0456 26       		.byte	0x26
 7135 0457 7C       		.byte	0x7c
 7136 0458 00       		.sleb128 0
 7137 0459 22       		.byte	0x22
 7138 045a 71       		.byte	0x71
 7139 045b 1A       		.sleb128 26
 7140 045c 94       		.byte	0x94
 7141 045d 02       		.byte	0x2
 7142 045e 40       		.byte	0x40
 7143 045f 24       		.byte	0x24
 7144 0460 40       		.byte	0x40
 7145 0461 26       		.byte	0x26
 7146 0462 1E       		.byte	0x1e
 7147 0463 71       		.byte	0x71
 7148 0464 1C       		.sleb128 28
 7149 0465 94       		.byte	0x94
 7150 0466 01       		.byte	0x1
 7151 0467 08       		.byte	0x8
 7152 0468 FF       		.byte	0xff
 7153 0469 1A       		.byte	0x1a
 7154 046a 76       		.byte	0x76
 7155 046b 00       		.sleb128 0
 7156 046c 1E       		.byte	0x1e
 7157 046d 71       		.byte	0x71
 7158 046e 1C       		.sleb128 28
 7159 046f 94       		.byte	0x94
 7160 0470 01       		.byte	0x1
ARM GAS  C:\Users\simon\AppData\Local\Temp\cc07ySAM.s 			page 157


 7161 0471 08       		.byte	0x8
 7162 0472 FF       		.byte	0xff
 7163 0473 1A       		.byte	0x1a
 7164 0474 76       		.byte	0x76
 7165 0475 00       		.sleb128 0
 7166 0476 1E       		.byte	0x1e
 7167 0477 4F       		.byte	0x4f
 7168 0478 26       		.byte	0x26
 7169 0479 45       		.byte	0x45
 7170 047a 24       		.byte	0x24
 7171 047b 45       		.byte	0x45
 7172 047c 25       		.byte	0x25
 7173 047d 22       		.byte	0x22
 7174 047e 3B       		.byte	0x3b
 7175 047f 26       		.byte	0x26
 7176 0480 23       		.byte	0x23
 7177 0481 808002   		.uleb128 0x8000
 7178 0484 71       		.byte	0x71
 7179 0485 22       		.sleb128 34
 7180 0486 94       		.byte	0x94
 7181 0487 01       		.byte	0x1
 7182 0488 48       		.byte	0x48
 7183 0489 24       		.byte	0x24
 7184 048a 48       		.byte	0x48
 7185 048b 26       		.byte	0x26
 7186 048c 76       		.byte	0x76
 7187 048d 00       		.sleb128 0
 7188 048e 1E       		.byte	0x1e
 7189 048f 71       		.byte	0x71
 7190 0490 22       		.sleb128 34
 7191 0491 94       		.byte	0x94
 7192 0492 01       		.byte	0x1
 7193 0493 48       		.byte	0x48
 7194 0494 24       		.byte	0x24
 7195 0495 48       		.byte	0x48
 7196 0496 26       		.byte	0x26
 7197 0497 76       		.byte	0x76
 7198 0498 00       		.sleb128 0
 7199 0499 1E       		.byte	0x1e
 7200 049a 4F       		.byte	0x4f
 7201 049b 26       		.byte	0x26
 7202 049c 46       		.byte	0x46
 7203 049d 24       		.byte	0x24
 7204 049e 46       		.byte	0x46
 7205 049f 25       		.byte	0x25
 7206 04a0 22       		.byte	0x22
 7207 04a1 3A       		.byte	0x3a
 7208 04a2 26       		.byte	0x26
 7209 04a3 1E       		.byte	0x1e
 7210 04a4 71       		.byte	0x71
 7211 04a5 1C       		.sleb128 28
 7212 04a6 94       		.byte	0x94
 7213 04a7 01       		.byte	0x1
 7214 04a8 08       		.byte	0x8
 7215 04a9 FF       		.byte	0xff
 7216 04aa 1A       		.byte	0x1a
 7217 04ab 76       		.byte	0x76
ARM GAS  C:\Users\simon\AppData\Local\Temp\cc07ySAM.s 			page 158


 7218 04ac 00       		.sleb128 0
 7219 04ad 1E       		.byte	0x1e
 7220 04ae 71       		.byte	0x71
 7221 04af 1C       		.sleb128 28
 7222 04b0 94       		.byte	0x94
 7223 04b1 01       		.byte	0x1
 7224 04b2 08       		.byte	0x8
 7225 04b3 FF       		.byte	0xff
 7226 04b4 1A       		.byte	0x1a
 7227 04b5 76       		.byte	0x76
 7228 04b6 00       		.sleb128 0
 7229 04b7 1E       		.byte	0x1e
 7230 04b8 4F       		.byte	0x4f
 7231 04b9 26       		.byte	0x26
 7232 04ba 45       		.byte	0x45
 7233 04bb 24       		.byte	0x24
 7234 04bc 45       		.byte	0x45
 7235 04bd 25       		.byte	0x25
 7236 04be 22       		.byte	0x22
 7237 04bf 3B       		.byte	0x3b
 7238 04c0 26       		.byte	0x26
 7239 04c1 23       		.byte	0x23
 7240 04c2 808002   		.uleb128 0x8000
 7241 04c5 71       		.byte	0x71
 7242 04c6 22       		.sleb128 34
 7243 04c7 94       		.byte	0x94
 7244 04c8 01       		.byte	0x1
 7245 04c9 48       		.byte	0x48
 7246 04ca 24       		.byte	0x24
 7247 04cb 48       		.byte	0x48
 7248 04cc 26       		.byte	0x26
 7249 04cd 76       		.byte	0x76
 7250 04ce 00       		.sleb128 0
 7251 04cf 1E       		.byte	0x1e
 7252 04d0 71       		.byte	0x71
 7253 04d1 22       		.sleb128 34
 7254 04d2 94       		.byte	0x94
 7255 04d3 01       		.byte	0x1
 7256 04d4 48       		.byte	0x48
 7257 04d5 24       		.byte	0x24
 7258 04d6 48       		.byte	0x48
 7259 04d7 26       		.byte	0x26
 7260 04d8 76       		.byte	0x76
 7261 04d9 00       		.sleb128 0
 7262 04da 1E       		.byte	0x1e
 7263 04db 4F       		.byte	0x4f
 7264 04dc 26       		.byte	0x26
 7265 04dd 46       		.byte	0x46
 7266 04de 24       		.byte	0x24
 7267 04df 46       		.byte	0x46
 7268 04e0 25       		.byte	0x25
 7269 04e1 22       		.byte	0x22
 7270 04e2 3A       		.byte	0x3a
 7271 04e3 26       		.byte	0x26
 7272 04e4 1E       		.byte	0x1e
 7273 04e5 4F       		.byte	0x4f
 7274 04e6 26       		.byte	0x26
ARM GAS  C:\Users\simon\AppData\Local\Temp\cc07ySAM.s 			page 159


 7275 04e7 46       		.byte	0x46
 7276 04e8 24       		.byte	0x24
 7277 04e9 46       		.byte	0x46
 7278 04ea 25       		.byte	0x25
 7279 04eb 22       		.byte	0x22
 7280 04ec 3A       		.byte	0x3a
 7281 04ed 26       		.byte	0x26
 7282 04ee 7C       		.byte	0x7c
 7283 04ef 00       		.sleb128 0
 7284 04f0 22       		.byte	0x22
 7285 04f1 71       		.byte	0x71
 7286 04f2 1A       		.sleb128 26
 7287 04f3 94       		.byte	0x94
 7288 04f4 02       		.byte	0x2
 7289 04f5 40       		.byte	0x40
 7290 04f6 24       		.byte	0x24
 7291 04f7 40       		.byte	0x40
 7292 04f8 26       		.byte	0x26
 7293 04f9 1E       		.byte	0x1e
 7294 04fa 23       		.byte	0x23
 7295 04fb 8040     		.uleb128 0x2000
 7296 04fd 4F       		.byte	0x4f
 7297 04fe 26       		.byte	0x26
 7298 04ff 42       		.byte	0x42
 7299 0500 24       		.byte	0x24
 7300 0501 42       		.byte	0x42
 7301 0502 25       		.byte	0x25
 7302 0503 22       		.byte	0x22
 7303 0504 23       		.byte	0x23
 7304 0505 8040     		.uleb128 0x2000
 7305 0507 3E       		.byte	0x3e
 7306 0508 26       		.byte	0x26
 7307 0509 9F       		.byte	0x9f
 7308 050a 9E000000 		.4byte	.LVL96
 7309 050e CE000000 		.4byte	.LVL106
 7310 0512 7401     		.2byte	0x174
 7311 0514 F3       		.byte	0xf3
 7312 0515 01       		.uleb128 0x1
 7313 0516 51       		.byte	0x51
 7314 0517 23       		.byte	0x23
 7315 0518 1C       		.uleb128 0x1c
 7316 0519 94       		.byte	0x94
 7317 051a 01       		.byte	0x1
 7318 051b 08       		.byte	0x8
 7319 051c FF       		.byte	0xff
 7320 051d 1A       		.byte	0x1a
 7321 051e 76       		.byte	0x76
 7322 051f 00       		.sleb128 0
 7323 0520 1E       		.byte	0x1e
 7324 0521 F3       		.byte	0xf3
 7325 0522 01       		.uleb128 0x1
 7326 0523 51       		.byte	0x51
 7327 0524 23       		.byte	0x23
 7328 0525 1C       		.uleb128 0x1c
 7329 0526 94       		.byte	0x94
 7330 0527 01       		.byte	0x1
 7331 0528 08       		.byte	0x8
ARM GAS  C:\Users\simon\AppData\Local\Temp\cc07ySAM.s 			page 160


 7332 0529 FF       		.byte	0xff
 7333 052a 1A       		.byte	0x1a
 7334 052b 76       		.byte	0x76
 7335 052c 00       		.sleb128 0
 7336 052d 1E       		.byte	0x1e
 7337 052e 4F       		.byte	0x4f
 7338 052f 26       		.byte	0x26
 7339 0530 45       		.byte	0x45
 7340 0531 24       		.byte	0x24
 7341 0532 45       		.byte	0x45
 7342 0533 25       		.byte	0x25
 7343 0534 22       		.byte	0x22
 7344 0535 3B       		.byte	0x3b
 7345 0536 26       		.byte	0x26
 7346 0537 23       		.byte	0x23
 7347 0538 808002   		.uleb128 0x8000
 7348 053b F3       		.byte	0xf3
 7349 053c 01       		.uleb128 0x1
 7350 053d 51       		.byte	0x51
 7351 053e 23       		.byte	0x23
 7352 053f 22       		.uleb128 0x22
 7353 0540 94       		.byte	0x94
 7354 0541 01       		.byte	0x1
 7355 0542 48       		.byte	0x48
 7356 0543 24       		.byte	0x24
 7357 0544 48       		.byte	0x48
 7358 0545 26       		.byte	0x26
 7359 0546 76       		.byte	0x76
 7360 0547 00       		.sleb128 0
 7361 0548 1E       		.byte	0x1e
 7362 0549 F3       		.byte	0xf3
 7363 054a 01       		.uleb128 0x1
 7364 054b 51       		.byte	0x51
 7365 054c 23       		.byte	0x23
 7366 054d 22       		.uleb128 0x22
 7367 054e 94       		.byte	0x94
 7368 054f 01       		.byte	0x1
 7369 0550 48       		.byte	0x48
 7370 0551 24       		.byte	0x24
 7371 0552 48       		.byte	0x48
 7372 0553 26       		.byte	0x26
 7373 0554 76       		.byte	0x76
 7374 0555 00       		.sleb128 0
 7375 0556 1E       		.byte	0x1e
 7376 0557 4F       		.byte	0x4f
 7377 0558 26       		.byte	0x26
 7378 0559 46       		.byte	0x46
 7379 055a 24       		.byte	0x24
 7380 055b 46       		.byte	0x46
 7381 055c 25       		.byte	0x25
 7382 055d 22       		.byte	0x22
 7383 055e 3A       		.byte	0x3a
 7384 055f 26       		.byte	0x26
 7385 0560 1E       		.byte	0x1e
 7386 0561 F3       		.byte	0xf3
 7387 0562 01       		.uleb128 0x1
 7388 0563 51       		.byte	0x51
ARM GAS  C:\Users\simon\AppData\Local\Temp\cc07ySAM.s 			page 161


 7389 0564 23       		.byte	0x23
 7390 0565 1C       		.uleb128 0x1c
 7391 0566 94       		.byte	0x94
 7392 0567 01       		.byte	0x1
 7393 0568 08       		.byte	0x8
 7394 0569 FF       		.byte	0xff
 7395 056a 1A       		.byte	0x1a
 7396 056b 76       		.byte	0x76
 7397 056c 00       		.sleb128 0
 7398 056d 1E       		.byte	0x1e
 7399 056e F3       		.byte	0xf3
 7400 056f 01       		.uleb128 0x1
 7401 0570 51       		.byte	0x51
 7402 0571 23       		.byte	0x23
 7403 0572 1C       		.uleb128 0x1c
 7404 0573 94       		.byte	0x94
 7405 0574 01       		.byte	0x1
 7406 0575 08       		.byte	0x8
 7407 0576 FF       		.byte	0xff
 7408 0577 1A       		.byte	0x1a
 7409 0578 76       		.byte	0x76
 7410 0579 00       		.sleb128 0
 7411 057a 1E       		.byte	0x1e
 7412 057b 4F       		.byte	0x4f
 7413 057c 26       		.byte	0x26
 7414 057d 45       		.byte	0x45
 7415 057e 24       		.byte	0x24
 7416 057f 45       		.byte	0x45
 7417 0580 25       		.byte	0x25
 7418 0581 22       		.byte	0x22
 7419 0582 3B       		.byte	0x3b
 7420 0583 26       		.byte	0x26
 7421 0584 23       		.byte	0x23
 7422 0585 808002   		.uleb128 0x8000
 7423 0588 F3       		.byte	0xf3
 7424 0589 01       		.uleb128 0x1
 7425 058a 51       		.byte	0x51
 7426 058b 23       		.byte	0x23
 7427 058c 22       		.uleb128 0x22
 7428 058d 94       		.byte	0x94
 7429 058e 01       		.byte	0x1
 7430 058f 48       		.byte	0x48
 7431 0590 24       		.byte	0x24
 7432 0591 48       		.byte	0x48
 7433 0592 26       		.byte	0x26
 7434 0593 76       		.byte	0x76
 7435 0594 00       		.sleb128 0
 7436 0595 1E       		.byte	0x1e
 7437 0596 F3       		.byte	0xf3
 7438 0597 01       		.uleb128 0x1
 7439 0598 51       		.byte	0x51
 7440 0599 23       		.byte	0x23
 7441 059a 22       		.uleb128 0x22
 7442 059b 94       		.byte	0x94
 7443 059c 01       		.byte	0x1
 7444 059d 48       		.byte	0x48
 7445 059e 24       		.byte	0x24
ARM GAS  C:\Users\simon\AppData\Local\Temp\cc07ySAM.s 			page 162


 7446 059f 48       		.byte	0x48
 7447 05a0 26       		.byte	0x26
 7448 05a1 76       		.byte	0x76
 7449 05a2 00       		.sleb128 0
 7450 05a3 1E       		.byte	0x1e
 7451 05a4 4F       		.byte	0x4f
 7452 05a5 26       		.byte	0x26
 7453 05a6 46       		.byte	0x46
 7454 05a7 24       		.byte	0x24
 7455 05a8 46       		.byte	0x46
 7456 05a9 25       		.byte	0x25
 7457 05aa 22       		.byte	0x22
 7458 05ab 3A       		.byte	0x3a
 7459 05ac 26       		.byte	0x26
 7460 05ad 1E       		.byte	0x1e
 7461 05ae 4F       		.byte	0x4f
 7462 05af 26       		.byte	0x26
 7463 05b0 46       		.byte	0x46
 7464 05b1 24       		.byte	0x24
 7465 05b2 46       		.byte	0x46
 7466 05b3 25       		.byte	0x25
 7467 05b4 22       		.byte	0x22
 7468 05b5 3A       		.byte	0x3a
 7469 05b6 26       		.byte	0x26
 7470 05b7 7C       		.byte	0x7c
 7471 05b8 00       		.sleb128 0
 7472 05b9 22       		.byte	0x22
 7473 05ba F3       		.byte	0xf3
 7474 05bb 01       		.uleb128 0x1
 7475 05bc 51       		.byte	0x51
 7476 05bd 23       		.byte	0x23
 7477 05be 1A       		.uleb128 0x1a
 7478 05bf 94       		.byte	0x94
 7479 05c0 02       		.byte	0x2
 7480 05c1 40       		.byte	0x40
 7481 05c2 24       		.byte	0x24
 7482 05c3 40       		.byte	0x40
 7483 05c4 26       		.byte	0x26
 7484 05c5 1E       		.byte	0x1e
 7485 05c6 F3       		.byte	0xf3
 7486 05c7 01       		.uleb128 0x1
 7487 05c8 51       		.byte	0x51
 7488 05c9 23       		.byte	0x23
 7489 05ca 1C       		.uleb128 0x1c
 7490 05cb 94       		.byte	0x94
 7491 05cc 01       		.byte	0x1
 7492 05cd 08       		.byte	0x8
 7493 05ce FF       		.byte	0xff
 7494 05cf 1A       		.byte	0x1a
 7495 05d0 76       		.byte	0x76
 7496 05d1 00       		.sleb128 0
 7497 05d2 1E       		.byte	0x1e
 7498 05d3 F3       		.byte	0xf3
 7499 05d4 01       		.uleb128 0x1
 7500 05d5 51       		.byte	0x51
 7501 05d6 23       		.byte	0x23
 7502 05d7 1C       		.uleb128 0x1c
ARM GAS  C:\Users\simon\AppData\Local\Temp\cc07ySAM.s 			page 163


 7503 05d8 94       		.byte	0x94
 7504 05d9 01       		.byte	0x1
 7505 05da 08       		.byte	0x8
 7506 05db FF       		.byte	0xff
 7507 05dc 1A       		.byte	0x1a
 7508 05dd 76       		.byte	0x76
 7509 05de 00       		.sleb128 0
 7510 05df 1E       		.byte	0x1e
 7511 05e0 4F       		.byte	0x4f
 7512 05e1 26       		.byte	0x26
 7513 05e2 45       		.byte	0x45
 7514 05e3 24       		.byte	0x24
 7515 05e4 45       		.byte	0x45
 7516 05e5 25       		.byte	0x25
 7517 05e6 22       		.byte	0x22
 7518 05e7 3B       		.byte	0x3b
 7519 05e8 26       		.byte	0x26
 7520 05e9 23       		.byte	0x23
 7521 05ea 808002   		.uleb128 0x8000
 7522 05ed F3       		.byte	0xf3
 7523 05ee 01       		.uleb128 0x1
 7524 05ef 51       		.byte	0x51
 7525 05f0 23       		.byte	0x23
 7526 05f1 22       		.uleb128 0x22
 7527 05f2 94       		.byte	0x94
 7528 05f3 01       		.byte	0x1
 7529 05f4 48       		.byte	0x48
 7530 05f5 24       		.byte	0x24
 7531 05f6 48       		.byte	0x48
 7532 05f7 26       		.byte	0x26
 7533 05f8 76       		.byte	0x76
 7534 05f9 00       		.sleb128 0
 7535 05fa 1E       		.byte	0x1e
 7536 05fb F3       		.byte	0xf3
 7537 05fc 01       		.uleb128 0x1
 7538 05fd 51       		.byte	0x51
 7539 05fe 23       		.byte	0x23
 7540 05ff 22       		.uleb128 0x22
 7541 0600 94       		.byte	0x94
 7542 0601 01       		.byte	0x1
 7543 0602 48       		.byte	0x48
 7544 0603 24       		.byte	0x24
 7545 0604 48       		.byte	0x48
 7546 0605 26       		.byte	0x26
 7547 0606 76       		.byte	0x76
 7548 0607 00       		.sleb128 0
 7549 0608 1E       		.byte	0x1e
 7550 0609 4F       		.byte	0x4f
 7551 060a 26       		.byte	0x26
 7552 060b 46       		.byte	0x46
 7553 060c 24       		.byte	0x24
 7554 060d 46       		.byte	0x46
 7555 060e 25       		.byte	0x25
 7556 060f 22       		.byte	0x22
 7557 0610 3A       		.byte	0x3a
 7558 0611 26       		.byte	0x26
 7559 0612 1E       		.byte	0x1e
ARM GAS  C:\Users\simon\AppData\Local\Temp\cc07ySAM.s 			page 164


 7560 0613 F3       		.byte	0xf3
 7561 0614 01       		.uleb128 0x1
 7562 0615 51       		.byte	0x51
 7563 0616 23       		.byte	0x23
 7564 0617 1C       		.uleb128 0x1c
 7565 0618 94       		.byte	0x94
 7566 0619 01       		.byte	0x1
 7567 061a 08       		.byte	0x8
 7568 061b FF       		.byte	0xff
 7569 061c 1A       		.byte	0x1a
 7570 061d 76       		.byte	0x76
 7571 061e 00       		.sleb128 0
 7572 061f 1E       		.byte	0x1e
 7573 0620 F3       		.byte	0xf3
 7574 0621 01       		.uleb128 0x1
 7575 0622 51       		.byte	0x51
 7576 0623 23       		.byte	0x23
 7577 0624 1C       		.uleb128 0x1c
 7578 0625 94       		.byte	0x94
 7579 0626 01       		.byte	0x1
 7580 0627 08       		.byte	0x8
 7581 0628 FF       		.byte	0xff
 7582 0629 1A       		.byte	0x1a
 7583 062a 76       		.byte	0x76
 7584 062b 00       		.sleb128 0
 7585 062c 1E       		.byte	0x1e
 7586 062d 4F       		.byte	0x4f
 7587 062e 26       		.byte	0x26
 7588 062f 45       		.byte	0x45
 7589 0630 24       		.byte	0x24
 7590 0631 45       		.byte	0x45
 7591 0632 25       		.byte	0x25
 7592 0633 22       		.byte	0x22
 7593 0634 3B       		.byte	0x3b
 7594 0635 26       		.byte	0x26
 7595 0636 23       		.byte	0x23
 7596 0637 808002   		.uleb128 0x8000
 7597 063a F3       		.byte	0xf3
 7598 063b 01       		.uleb128 0x1
 7599 063c 51       		.byte	0x51
 7600 063d 23       		.byte	0x23
 7601 063e 22       		.uleb128 0x22
 7602 063f 94       		.byte	0x94
 7603 0640 01       		.byte	0x1
 7604 0641 48       		.byte	0x48
 7605 0642 24       		.byte	0x24
 7606 0643 48       		.byte	0x48
 7607 0644 26       		.byte	0x26
 7608 0645 76       		.byte	0x76
 7609 0646 00       		.sleb128 0
 7610 0647 1E       		.byte	0x1e
 7611 0648 F3       		.byte	0xf3
 7612 0649 01       		.uleb128 0x1
 7613 064a 51       		.byte	0x51
 7614 064b 23       		.byte	0x23
 7615 064c 22       		.uleb128 0x22
 7616 064d 94       		.byte	0x94
ARM GAS  C:\Users\simon\AppData\Local\Temp\cc07ySAM.s 			page 165


 7617 064e 01       		.byte	0x1
 7618 064f 48       		.byte	0x48
 7619 0650 24       		.byte	0x24
 7620 0651 48       		.byte	0x48
 7621 0652 26       		.byte	0x26
 7622 0653 76       		.byte	0x76
 7623 0654 00       		.sleb128 0
 7624 0655 1E       		.byte	0x1e
 7625 0656 4F       		.byte	0x4f
 7626 0657 26       		.byte	0x26
 7627 0658 46       		.byte	0x46
 7628 0659 24       		.byte	0x24
 7629 065a 46       		.byte	0x46
 7630 065b 25       		.byte	0x25
 7631 065c 22       		.byte	0x22
 7632 065d 3A       		.byte	0x3a
 7633 065e 26       		.byte	0x26
 7634 065f 1E       		.byte	0x1e
 7635 0660 4F       		.byte	0x4f
 7636 0661 26       		.byte	0x26
 7637 0662 46       		.byte	0x46
 7638 0663 24       		.byte	0x24
 7639 0664 46       		.byte	0x46
 7640 0665 25       		.byte	0x25
 7641 0666 22       		.byte	0x22
 7642 0667 3A       		.byte	0x3a
 7643 0668 26       		.byte	0x26
 7644 0669 7C       		.byte	0x7c
 7645 066a 00       		.sleb128 0
 7646 066b 22       		.byte	0x22
 7647 066c F3       		.byte	0xf3
 7648 066d 01       		.uleb128 0x1
 7649 066e 51       		.byte	0x51
 7650 066f 23       		.byte	0x23
 7651 0670 1A       		.uleb128 0x1a
 7652 0671 94       		.byte	0x94
 7653 0672 02       		.byte	0x2
 7654 0673 40       		.byte	0x40
 7655 0674 24       		.byte	0x24
 7656 0675 40       		.byte	0x40
 7657 0676 26       		.byte	0x26
 7658 0677 1E       		.byte	0x1e
 7659 0678 23       		.byte	0x23
 7660 0679 8040     		.uleb128 0x2000
 7661 067b 4F       		.byte	0x4f
 7662 067c 26       		.byte	0x26
 7663 067d 42       		.byte	0x42
 7664 067e 24       		.byte	0x24
 7665 067f 42       		.byte	0x42
 7666 0680 25       		.byte	0x25
 7667 0681 22       		.byte	0x22
 7668 0682 23       		.byte	0x23
 7669 0683 8040     		.uleb128 0x2000
 7670 0685 3E       		.byte	0x3e
 7671 0686 26       		.byte	0x26
 7672 0687 9F       		.byte	0x9f
 7673 0688 CE000000 		.4byte	.LVL106
ARM GAS  C:\Users\simon\AppData\Local\Temp\cc07ySAM.s 			page 166


 7674 068c D4000000 		.4byte	.LFE26
 7675 0690 0402     		.2byte	0x204
 7676 0692 F3       		.byte	0xf3
 7677 0693 01       		.uleb128 0x1
 7678 0694 51       		.byte	0x51
 7679 0695 23       		.byte	0x23
 7680 0696 24       		.uleb128 0x24
 7681 0697 06       		.byte	0x6
 7682 0698 08       		.byte	0x8
 7683 0699 96       		.byte	0x96
 7684 069a 39       		.byte	0x39
 7685 069b 24       		.byte	0x24
 7686 069c 1C       		.byte	0x1c
 7687 069d F3       		.byte	0xf3
 7688 069e 01       		.uleb128 0x1
 7689 069f 51       		.byte	0x51
 7690 06a0 23       		.byte	0x23
 7691 06a1 1C       		.uleb128 0x1c
 7692 06a2 94       		.byte	0x94
 7693 06a3 01       		.byte	0x1
 7694 06a4 08       		.byte	0x8
 7695 06a5 FF       		.byte	0xff
 7696 06a6 1A       		.byte	0x1a
 7697 06a7 1E       		.byte	0x1e
 7698 06a8 F3       		.byte	0xf3
 7699 06a9 01       		.uleb128 0x1
 7700 06aa 51       		.byte	0x51
 7701 06ab 23       		.byte	0x23
 7702 06ac 24       		.uleb128 0x24
 7703 06ad 06       		.byte	0x6
 7704 06ae 08       		.byte	0x8
 7705 06af 96       		.byte	0x96
 7706 06b0 39       		.byte	0x39
 7707 06b1 24       		.byte	0x24
 7708 06b2 1C       		.byte	0x1c
 7709 06b3 F3       		.byte	0xf3
 7710 06b4 01       		.uleb128 0x1
 7711 06b5 51       		.byte	0x51
 7712 06b6 23       		.byte	0x23
 7713 06b7 1C       		.uleb128 0x1c
 7714 06b8 94       		.byte	0x94
 7715 06b9 01       		.byte	0x1
 7716 06ba 08       		.byte	0x8
 7717 06bb FF       		.byte	0xff
 7718 06bc 1A       		.byte	0x1a
 7719 06bd 1E       		.byte	0x1e
 7720 06be 4F       		.byte	0x4f
 7721 06bf 26       		.byte	0x26
 7722 06c0 45       		.byte	0x45
 7723 06c1 24       		.byte	0x24
 7724 06c2 45       		.byte	0x45
 7725 06c3 25       		.byte	0x25
 7726 06c4 22       		.byte	0x22
 7727 06c5 3B       		.byte	0x3b
 7728 06c6 26       		.byte	0x26
 7729 06c7 23       		.byte	0x23
 7730 06c8 808002   		.uleb128 0x8000
ARM GAS  C:\Users\simon\AppData\Local\Temp\cc07ySAM.s 			page 167


 7731 06cb F3       		.byte	0xf3
 7732 06cc 01       		.uleb128 0x1
 7733 06cd 51       		.byte	0x51
 7734 06ce 23       		.byte	0x23
 7735 06cf 24       		.uleb128 0x24
 7736 06d0 06       		.byte	0x6
 7737 06d1 08       		.byte	0x8
 7738 06d2 96       		.byte	0x96
 7739 06d3 39       		.byte	0x39
 7740 06d4 24       		.byte	0x24
 7741 06d5 1C       		.byte	0x1c
 7742 06d6 F3       		.byte	0xf3
 7743 06d7 01       		.uleb128 0x1
 7744 06d8 51       		.byte	0x51
 7745 06d9 23       		.byte	0x23
 7746 06da 22       		.uleb128 0x22
 7747 06db 94       		.byte	0x94
 7748 06dc 01       		.byte	0x1
 7749 06dd 48       		.byte	0x48
 7750 06de 24       		.byte	0x24
 7751 06df 48       		.byte	0x48
 7752 06e0 26       		.byte	0x26
 7753 06e1 1E       		.byte	0x1e
 7754 06e2 F3       		.byte	0xf3
 7755 06e3 01       		.uleb128 0x1
 7756 06e4 51       		.byte	0x51
 7757 06e5 23       		.byte	0x23
 7758 06e6 24       		.uleb128 0x24
 7759 06e7 06       		.byte	0x6
 7760 06e8 08       		.byte	0x8
 7761 06e9 96       		.byte	0x96
 7762 06ea 39       		.byte	0x39
 7763 06eb 24       		.byte	0x24
 7764 06ec 1C       		.byte	0x1c
 7765 06ed F3       		.byte	0xf3
 7766 06ee 01       		.uleb128 0x1
 7767 06ef 51       		.byte	0x51
 7768 06f0 23       		.byte	0x23
 7769 06f1 22       		.uleb128 0x22
 7770 06f2 94       		.byte	0x94
 7771 06f3 01       		.byte	0x1
 7772 06f4 48       		.byte	0x48
 7773 06f5 24       		.byte	0x24
 7774 06f6 48       		.byte	0x48
 7775 06f7 26       		.byte	0x26
 7776 06f8 1E       		.byte	0x1e
 7777 06f9 4F       		.byte	0x4f
 7778 06fa 26       		.byte	0x26
 7779 06fb 46       		.byte	0x46
 7780 06fc 24       		.byte	0x24
 7781 06fd 46       		.byte	0x46
 7782 06fe 25       		.byte	0x25
 7783 06ff 22       		.byte	0x22
 7784 0700 3A       		.byte	0x3a
 7785 0701 26       		.byte	0x26
 7786 0702 1E       		.byte	0x1e
 7787 0703 F3       		.byte	0xf3
ARM GAS  C:\Users\simon\AppData\Local\Temp\cc07ySAM.s 			page 168


 7788 0704 01       		.uleb128 0x1
 7789 0705 51       		.byte	0x51
 7790 0706 23       		.byte	0x23
 7791 0707 24       		.uleb128 0x24
 7792 0708 06       		.byte	0x6
 7793 0709 08       		.byte	0x8
 7794 070a 96       		.byte	0x96
 7795 070b 39       		.byte	0x39
 7796 070c 24       		.byte	0x24
 7797 070d 1C       		.byte	0x1c
 7798 070e F3       		.byte	0xf3
 7799 070f 01       		.uleb128 0x1
 7800 0710 51       		.byte	0x51
 7801 0711 23       		.byte	0x23
 7802 0712 1C       		.uleb128 0x1c
 7803 0713 94       		.byte	0x94
 7804 0714 01       		.byte	0x1
 7805 0715 08       		.byte	0x8
 7806 0716 FF       		.byte	0xff
 7807 0717 1A       		.byte	0x1a
 7808 0718 1E       		.byte	0x1e
 7809 0719 F3       		.byte	0xf3
 7810 071a 01       		.uleb128 0x1
 7811 071b 51       		.byte	0x51
 7812 071c 23       		.byte	0x23
 7813 071d 24       		.uleb128 0x24
 7814 071e 06       		.byte	0x6
 7815 071f 08       		.byte	0x8
 7816 0720 96       		.byte	0x96
 7817 0721 39       		.byte	0x39
 7818 0722 24       		.byte	0x24
 7819 0723 1C       		.byte	0x1c
 7820 0724 F3       		.byte	0xf3
 7821 0725 01       		.uleb128 0x1
 7822 0726 51       		.byte	0x51
 7823 0727 23       		.byte	0x23
 7824 0728 1C       		.uleb128 0x1c
 7825 0729 94       		.byte	0x94
 7826 072a 01       		.byte	0x1
 7827 072b 08       		.byte	0x8
 7828 072c FF       		.byte	0xff
 7829 072d 1A       		.byte	0x1a
 7830 072e 1E       		.byte	0x1e
 7831 072f 4F       		.byte	0x4f
 7832 0730 26       		.byte	0x26
 7833 0731 45       		.byte	0x45
 7834 0732 24       		.byte	0x24
 7835 0733 45       		.byte	0x45
 7836 0734 25       		.byte	0x25
 7837 0735 22       		.byte	0x22
 7838 0736 3B       		.byte	0x3b
 7839 0737 26       		.byte	0x26
 7840 0738 23       		.byte	0x23
 7841 0739 808002   		.uleb128 0x8000
 7842 073c F3       		.byte	0xf3
 7843 073d 01       		.uleb128 0x1
 7844 073e 51       		.byte	0x51
ARM GAS  C:\Users\simon\AppData\Local\Temp\cc07ySAM.s 			page 169


 7845 073f 23       		.byte	0x23
 7846 0740 24       		.uleb128 0x24
 7847 0741 06       		.byte	0x6
 7848 0742 08       		.byte	0x8
 7849 0743 96       		.byte	0x96
 7850 0744 39       		.byte	0x39
 7851 0745 24       		.byte	0x24
 7852 0746 1C       		.byte	0x1c
 7853 0747 F3       		.byte	0xf3
 7854 0748 01       		.uleb128 0x1
 7855 0749 51       		.byte	0x51
 7856 074a 23       		.byte	0x23
 7857 074b 22       		.uleb128 0x22
 7858 074c 94       		.byte	0x94
 7859 074d 01       		.byte	0x1
 7860 074e 48       		.byte	0x48
 7861 074f 24       		.byte	0x24
 7862 0750 48       		.byte	0x48
 7863 0751 26       		.byte	0x26
 7864 0752 1E       		.byte	0x1e
 7865 0753 F3       		.byte	0xf3
 7866 0754 01       		.uleb128 0x1
 7867 0755 51       		.byte	0x51
 7868 0756 23       		.byte	0x23
 7869 0757 24       		.uleb128 0x24
 7870 0758 06       		.byte	0x6
 7871 0759 08       		.byte	0x8
 7872 075a 96       		.byte	0x96
 7873 075b 39       		.byte	0x39
 7874 075c 24       		.byte	0x24
 7875 075d 1C       		.byte	0x1c
 7876 075e F3       		.byte	0xf3
 7877 075f 01       		.uleb128 0x1
 7878 0760 51       		.byte	0x51
 7879 0761 23       		.byte	0x23
 7880 0762 22       		.uleb128 0x22
 7881 0763 94       		.byte	0x94
 7882 0764 01       		.byte	0x1
 7883 0765 48       		.byte	0x48
 7884 0766 24       		.byte	0x24
 7885 0767 48       		.byte	0x48
 7886 0768 26       		.byte	0x26
 7887 0769 1E       		.byte	0x1e
 7888 076a 4F       		.byte	0x4f
 7889 076b 26       		.byte	0x26
 7890 076c 46       		.byte	0x46
 7891 076d 24       		.byte	0x24
 7892 076e 46       		.byte	0x46
 7893 076f 25       		.byte	0x25
 7894 0770 22       		.byte	0x22
 7895 0771 3A       		.byte	0x3a
 7896 0772 26       		.byte	0x26
 7897 0773 1E       		.byte	0x1e
 7898 0774 4F       		.byte	0x4f
 7899 0775 26       		.byte	0x26
 7900 0776 46       		.byte	0x46
 7901 0777 24       		.byte	0x24
ARM GAS  C:\Users\simon\AppData\Local\Temp\cc07ySAM.s 			page 170


 7902 0778 46       		.byte	0x46
 7903 0779 25       		.byte	0x25
 7904 077a 22       		.byte	0x22
 7905 077b 3A       		.byte	0x3a
 7906 077c 26       		.byte	0x26
 7907 077d 7C       		.byte	0x7c
 7908 077e 00       		.sleb128 0
 7909 077f 22       		.byte	0x22
 7910 0780 F3       		.byte	0xf3
 7911 0781 01       		.uleb128 0x1
 7912 0782 51       		.byte	0x51
 7913 0783 23       		.byte	0x23
 7914 0784 1A       		.uleb128 0x1a
 7915 0785 94       		.byte	0x94
 7916 0786 02       		.byte	0x2
 7917 0787 40       		.byte	0x40
 7918 0788 24       		.byte	0x24
 7919 0789 40       		.byte	0x40
 7920 078a 26       		.byte	0x26
 7921 078b 1E       		.byte	0x1e
 7922 078c F3       		.byte	0xf3
 7923 078d 01       		.uleb128 0x1
 7924 078e 51       		.byte	0x51
 7925 078f 23       		.byte	0x23
 7926 0790 24       		.uleb128 0x24
 7927 0791 06       		.byte	0x6
 7928 0792 08       		.byte	0x8
 7929 0793 96       		.byte	0x96
 7930 0794 39       		.byte	0x39
 7931 0795 24       		.byte	0x24
 7932 0796 1C       		.byte	0x1c
 7933 0797 F3       		.byte	0xf3
 7934 0798 01       		.uleb128 0x1
 7935 0799 51       		.byte	0x51
 7936 079a 23       		.byte	0x23
 7937 079b 1C       		.uleb128 0x1c
 7938 079c 94       		.byte	0x94
 7939 079d 01       		.byte	0x1
 7940 079e 08       		.byte	0x8
 7941 079f FF       		.byte	0xff
 7942 07a0 1A       		.byte	0x1a
 7943 07a1 1E       		.byte	0x1e
 7944 07a2 F3       		.byte	0xf3
 7945 07a3 01       		.uleb128 0x1
 7946 07a4 51       		.byte	0x51
 7947 07a5 23       		.byte	0x23
 7948 07a6 24       		.uleb128 0x24
 7949 07a7 06       		.byte	0x6
 7950 07a8 08       		.byte	0x8
 7951 07a9 96       		.byte	0x96
 7952 07aa 39       		.byte	0x39
 7953 07ab 24       		.byte	0x24
 7954 07ac 1C       		.byte	0x1c
 7955 07ad F3       		.byte	0xf3
 7956 07ae 01       		.uleb128 0x1
 7957 07af 51       		.byte	0x51
 7958 07b0 23       		.byte	0x23
ARM GAS  C:\Users\simon\AppData\Local\Temp\cc07ySAM.s 			page 171


 7959 07b1 1C       		.uleb128 0x1c
 7960 07b2 94       		.byte	0x94
 7961 07b3 01       		.byte	0x1
 7962 07b4 08       		.byte	0x8
 7963 07b5 FF       		.byte	0xff
 7964 07b6 1A       		.byte	0x1a
 7965 07b7 1E       		.byte	0x1e
 7966 07b8 4F       		.byte	0x4f
 7967 07b9 26       		.byte	0x26
 7968 07ba 45       		.byte	0x45
 7969 07bb 24       		.byte	0x24
 7970 07bc 45       		.byte	0x45
 7971 07bd 25       		.byte	0x25
 7972 07be 22       		.byte	0x22
 7973 07bf 3B       		.byte	0x3b
 7974 07c0 26       		.byte	0x26
 7975 07c1 23       		.byte	0x23
 7976 07c2 808002   		.uleb128 0x8000
 7977 07c5 F3       		.byte	0xf3
 7978 07c6 01       		.uleb128 0x1
 7979 07c7 51       		.byte	0x51
 7980 07c8 23       		.byte	0x23
 7981 07c9 24       		.uleb128 0x24
 7982 07ca 06       		.byte	0x6
 7983 07cb 08       		.byte	0x8
 7984 07cc 96       		.byte	0x96
 7985 07cd 39       		.byte	0x39
 7986 07ce 24       		.byte	0x24
 7987 07cf 1C       		.byte	0x1c
 7988 07d0 F3       		.byte	0xf3
 7989 07d1 01       		.uleb128 0x1
 7990 07d2 51       		.byte	0x51
 7991 07d3 23       		.byte	0x23
 7992 07d4 22       		.uleb128 0x22
 7993 07d5 94       		.byte	0x94
 7994 07d6 01       		.byte	0x1
 7995 07d7 48       		.byte	0x48
 7996 07d8 24       		.byte	0x24
 7997 07d9 48       		.byte	0x48
 7998 07da 26       		.byte	0x26
 7999 07db 1E       		.byte	0x1e
 8000 07dc F3       		.byte	0xf3
 8001 07dd 01       		.uleb128 0x1
 8002 07de 51       		.byte	0x51
 8003 07df 23       		.byte	0x23
 8004 07e0 24       		.uleb128 0x24
 8005 07e1 06       		.byte	0x6
 8006 07e2 08       		.byte	0x8
 8007 07e3 96       		.byte	0x96
 8008 07e4 39       		.byte	0x39
 8009 07e5 24       		.byte	0x24
 8010 07e6 1C       		.byte	0x1c
 8011 07e7 F3       		.byte	0xf3
 8012 07e8 01       		.uleb128 0x1
 8013 07e9 51       		.byte	0x51
 8014 07ea 23       		.byte	0x23
 8015 07eb 22       		.uleb128 0x22
ARM GAS  C:\Users\simon\AppData\Local\Temp\cc07ySAM.s 			page 172


 8016 07ec 94       		.byte	0x94
 8017 07ed 01       		.byte	0x1
 8018 07ee 48       		.byte	0x48
 8019 07ef 24       		.byte	0x24
 8020 07f0 48       		.byte	0x48
 8021 07f1 26       		.byte	0x26
 8022 07f2 1E       		.byte	0x1e
 8023 07f3 4F       		.byte	0x4f
 8024 07f4 26       		.byte	0x26
 8025 07f5 46       		.byte	0x46
 8026 07f6 24       		.byte	0x24
 8027 07f7 46       		.byte	0x46
 8028 07f8 25       		.byte	0x25
 8029 07f9 22       		.byte	0x22
 8030 07fa 3A       		.byte	0x3a
 8031 07fb 26       		.byte	0x26
 8032 07fc 1E       		.byte	0x1e
 8033 07fd F3       		.byte	0xf3
 8034 07fe 01       		.uleb128 0x1
 8035 07ff 51       		.byte	0x51
 8036 0800 23       		.byte	0x23
 8037 0801 24       		.uleb128 0x24
 8038 0802 06       		.byte	0x6
 8039 0803 08       		.byte	0x8
 8040 0804 96       		.byte	0x96
 8041 0805 39       		.byte	0x39
 8042 0806 24       		.byte	0x24
 8043 0807 1C       		.byte	0x1c
 8044 0808 F3       		.byte	0xf3
 8045 0809 01       		.uleb128 0x1
 8046 080a 51       		.byte	0x51
 8047 080b 23       		.byte	0x23
 8048 080c 1C       		.uleb128 0x1c
 8049 080d 94       		.byte	0x94
 8050 080e 01       		.byte	0x1
 8051 080f 08       		.byte	0x8
 8052 0810 FF       		.byte	0xff
 8053 0811 1A       		.byte	0x1a
 8054 0812 1E       		.byte	0x1e
 8055 0813 F3       		.byte	0xf3
 8056 0814 01       		.uleb128 0x1
 8057 0815 51       		.byte	0x51
 8058 0816 23       		.byte	0x23
 8059 0817 24       		.uleb128 0x24
 8060 0818 06       		.byte	0x6
 8061 0819 08       		.byte	0x8
 8062 081a 96       		.byte	0x96
 8063 081b 39       		.byte	0x39
 8064 081c 24       		.byte	0x24
 8065 081d 1C       		.byte	0x1c
 8066 081e F3       		.byte	0xf3
 8067 081f 01       		.uleb128 0x1
 8068 0820 51       		.byte	0x51
 8069 0821 23       		.byte	0x23
 8070 0822 1C       		.uleb128 0x1c
 8071 0823 94       		.byte	0x94
 8072 0824 01       		.byte	0x1
ARM GAS  C:\Users\simon\AppData\Local\Temp\cc07ySAM.s 			page 173


 8073 0825 08       		.byte	0x8
 8074 0826 FF       		.byte	0xff
 8075 0827 1A       		.byte	0x1a
 8076 0828 1E       		.byte	0x1e
 8077 0829 4F       		.byte	0x4f
 8078 082a 26       		.byte	0x26
 8079 082b 45       		.byte	0x45
 8080 082c 24       		.byte	0x24
 8081 082d 45       		.byte	0x45
 8082 082e 25       		.byte	0x25
 8083 082f 22       		.byte	0x22
 8084 0830 3B       		.byte	0x3b
 8085 0831 26       		.byte	0x26
 8086 0832 23       		.byte	0x23
 8087 0833 808002   		.uleb128 0x8000
 8088 0836 F3       		.byte	0xf3
 8089 0837 01       		.uleb128 0x1
 8090 0838 51       		.byte	0x51
 8091 0839 23       		.byte	0x23
 8092 083a 24       		.uleb128 0x24
 8093 083b 06       		.byte	0x6
 8094 083c 08       		.byte	0x8
 8095 083d 96       		.byte	0x96
 8096 083e 39       		.byte	0x39
 8097 083f 24       		.byte	0x24
 8098 0840 1C       		.byte	0x1c
 8099 0841 F3       		.byte	0xf3
 8100 0842 01       		.uleb128 0x1
 8101 0843 51       		.byte	0x51
 8102 0844 23       		.byte	0x23
 8103 0845 22       		.uleb128 0x22
 8104 0846 94       		.byte	0x94
 8105 0847 01       		.byte	0x1
 8106 0848 48       		.byte	0x48
 8107 0849 24       		.byte	0x24
 8108 084a 48       		.byte	0x48
 8109 084b 26       		.byte	0x26
 8110 084c 1E       		.byte	0x1e
 8111 084d F3       		.byte	0xf3
 8112 084e 01       		.uleb128 0x1
 8113 084f 51       		.byte	0x51
 8114 0850 23       		.byte	0x23
 8115 0851 24       		.uleb128 0x24
 8116 0852 06       		.byte	0x6
 8117 0853 08       		.byte	0x8
 8118 0854 96       		.byte	0x96
 8119 0855 39       		.byte	0x39
 8120 0856 24       		.byte	0x24
 8121 0857 1C       		.byte	0x1c
 8122 0858 F3       		.byte	0xf3
 8123 0859 01       		.uleb128 0x1
 8124 085a 51       		.byte	0x51
 8125 085b 23       		.byte	0x23
 8126 085c 22       		.uleb128 0x22
 8127 085d 94       		.byte	0x94
 8128 085e 01       		.byte	0x1
 8129 085f 48       		.byte	0x48
ARM GAS  C:\Users\simon\AppData\Local\Temp\cc07ySAM.s 			page 174


 8130 0860 24       		.byte	0x24
 8131 0861 48       		.byte	0x48
 8132 0862 26       		.byte	0x26
 8133 0863 1E       		.byte	0x1e
 8134 0864 4F       		.byte	0x4f
 8135 0865 26       		.byte	0x26
 8136 0866 46       		.byte	0x46
 8137 0867 24       		.byte	0x24
 8138 0868 46       		.byte	0x46
 8139 0869 25       		.byte	0x25
 8140 086a 22       		.byte	0x22
 8141 086b 3A       		.byte	0x3a
 8142 086c 26       		.byte	0x26
 8143 086d 1E       		.byte	0x1e
 8144 086e 4F       		.byte	0x4f
 8145 086f 26       		.byte	0x26
 8146 0870 46       		.byte	0x46
 8147 0871 24       		.byte	0x24
 8148 0872 46       		.byte	0x46
 8149 0873 25       		.byte	0x25
 8150 0874 22       		.byte	0x22
 8151 0875 3A       		.byte	0x3a
 8152 0876 26       		.byte	0x26
 8153 0877 7C       		.byte	0x7c
 8154 0878 00       		.sleb128 0
 8155 0879 22       		.byte	0x22
 8156 087a F3       		.byte	0xf3
 8157 087b 01       		.uleb128 0x1
 8158 087c 51       		.byte	0x51
 8159 087d 23       		.byte	0x23
 8160 087e 1A       		.uleb128 0x1a
 8161 087f 94       		.byte	0x94
 8162 0880 02       		.byte	0x2
 8163 0881 40       		.byte	0x40
 8164 0882 24       		.byte	0x24
 8165 0883 40       		.byte	0x40
 8166 0884 26       		.byte	0x26
 8167 0885 1E       		.byte	0x1e
 8168 0886 23       		.byte	0x23
 8169 0887 8040     		.uleb128 0x2000
 8170 0889 4F       		.byte	0x4f
 8171 088a 26       		.byte	0x26
 8172 088b 42       		.byte	0x42
 8173 088c 24       		.byte	0x24
 8174 088d 42       		.byte	0x42
 8175 088e 25       		.byte	0x25
 8176 088f 22       		.byte	0x22
 8177 0890 23       		.byte	0x23
 8178 0891 8040     		.uleb128 0x2000
 8179 0893 3E       		.byte	0x3e
 8180 0894 26       		.byte	0x26
 8181 0895 9F       		.byte	0x9f
 8182 0896 00000000 		.4byte	0
 8183 089a 00000000 		.4byte	0
 8184              	.LLST18:
 8185 089e 16000000 		.4byte	.LVL76
 8186 08a2 1E000000 		.4byte	.LVL79
ARM GAS  C:\Users\simon\AppData\Local\Temp\cc07ySAM.s 			page 175


 8187 08a6 0100     		.2byte	0x1
 8188 08a8 54       		.byte	0x54
 8189 08a9 1E000000 		.4byte	.LVL79
 8190 08ad 50000000 		.4byte	.LVL83
 8191 08b1 0B00     		.2byte	0xb
 8192 08b3 71       		.byte	0x71
 8193 08b4 1E       		.sleb128 30
 8194 08b5 94       		.byte	0x94
 8195 08b6 02       		.byte	0x2
 8196 08b7 40       		.byte	0x40
 8197 08b8 24       		.byte	0x24
 8198 08b9 40       		.byte	0x40
 8199 08ba 26       		.byte	0x26
 8200 08bb 44       		.byte	0x44
 8201 08bc 24       		.byte	0x24
 8202 08bd 9F       		.byte	0x9f
 8203 08be 50000000 		.4byte	.LVL83
 8204 08c2 58000000 		.4byte	.LVL84
 8205 08c6 0100     		.2byte	0x1
 8206 08c8 52       		.byte	0x52
 8207 08c9 58000000 		.4byte	.LVL84
 8208 08cd 5C000000 		.4byte	.LVL86
 8209 08d1 0500     		.2byte	0x5
 8210 08d3 72       		.byte	0x72
 8211 08d4 80807E   		.sleb128 -32768
 8212 08d7 9F       		.byte	0x9f
 8213 08d8 5C000000 		.4byte	.LVL86
 8214 08dc 86000000 		.4byte	.LVL92
 8215 08e0 1E00     		.2byte	0x1e
 8216 08e2 71       		.byte	0x71
 8217 08e3 1C       		.sleb128 28
 8218 08e4 94       		.byte	0x94
 8219 08e5 01       		.byte	0x1
 8220 08e6 08       		.byte	0x8
 8221 08e7 FF       		.byte	0xff
 8222 08e8 1A       		.byte	0x1a
 8223 08e9 76       		.byte	0x76
 8224 08ea 00       		.sleb128 0
 8225 08eb 1E       		.byte	0x1e
 8226 08ec 71       		.byte	0x71
 8227 08ed 1C       		.sleb128 28
 8228 08ee 94       		.byte	0x94
 8229 08ef 01       		.byte	0x1
 8230 08f0 08       		.byte	0x8
 8231 08f1 FF       		.byte	0xff
 8232 08f2 1A       		.byte	0x1a
 8233 08f3 76       		.byte	0x76
 8234 08f4 00       		.sleb128 0
 8235 08f5 1E       		.byte	0x1e
 8236 08f6 4F       		.byte	0x4f
 8237 08f7 26       		.byte	0x26
 8238 08f8 45       		.byte	0x45
 8239 08f9 24       		.byte	0x24
 8240 08fa 45       		.byte	0x45
 8241 08fb 25       		.byte	0x25
 8242 08fc 22       		.byte	0x22
 8243 08fd 3B       		.byte	0x3b
ARM GAS  C:\Users\simon\AppData\Local\Temp\cc07ySAM.s 			page 176


 8244 08fe 26       		.byte	0x26
 8245 08ff 9F       		.byte	0x9f
 8246 0900 86000000 		.4byte	.LVL92
 8247 0904 B2000000 		.4byte	.LVL101
 8248 0908 0100     		.2byte	0x1
 8249 090a 53       		.byte	0x53
 8250 090b B2000000 		.4byte	.LVL101
 8251 090f CE000000 		.4byte	.LVL105
 8252 0913 C401     		.2byte	0x1c4
 8253 0915 F3       		.byte	0xf3
 8254 0916 01       		.uleb128 0x1
 8255 0917 51       		.byte	0x51
 8256 0918 23       		.byte	0x23
 8257 0919 1C       		.uleb128 0x1c
 8258 091a 94       		.byte	0x94
 8259 091b 01       		.byte	0x1
 8260 091c 08       		.byte	0x8
 8261 091d FF       		.byte	0xff
 8262 091e 1A       		.byte	0x1a
 8263 091f 76       		.byte	0x76
 8264 0920 00       		.sleb128 0
 8265 0921 1E       		.byte	0x1e
 8266 0922 F3       		.byte	0xf3
 8267 0923 01       		.uleb128 0x1
 8268 0924 51       		.byte	0x51
 8269 0925 23       		.byte	0x23
 8270 0926 1C       		.uleb128 0x1c
 8271 0927 94       		.byte	0x94
 8272 0928 01       		.byte	0x1
 8273 0929 08       		.byte	0x8
 8274 092a FF       		.byte	0xff
 8275 092b 1A       		.byte	0x1a
 8276 092c 76       		.byte	0x76
 8277 092d 00       		.sleb128 0
 8278 092e 1E       		.byte	0x1e
 8279 092f 4F       		.byte	0x4f
 8280 0930 26       		.byte	0x26
 8281 0931 45       		.byte	0x45
 8282 0932 24       		.byte	0x24
 8283 0933 45       		.byte	0x45
 8284 0934 25       		.byte	0x25
 8285 0935 22       		.byte	0x22
 8286 0936 3B       		.byte	0x3b
 8287 0937 26       		.byte	0x26
 8288 0938 23       		.byte	0x23
 8289 0939 808002   		.uleb128 0x8000
 8290 093c F3       		.byte	0xf3
 8291 093d 01       		.uleb128 0x1
 8292 093e 51       		.byte	0x51
 8293 093f 23       		.byte	0x23
 8294 0940 22       		.uleb128 0x22
 8295 0941 94       		.byte	0x94
 8296 0942 01       		.byte	0x1
 8297 0943 48       		.byte	0x48
 8298 0944 24       		.byte	0x24
 8299 0945 48       		.byte	0x48
 8300 0946 26       		.byte	0x26
ARM GAS  C:\Users\simon\AppData\Local\Temp\cc07ySAM.s 			page 177


 8301 0947 76       		.byte	0x76
 8302 0948 00       		.sleb128 0
 8303 0949 1E       		.byte	0x1e
 8304 094a F3       		.byte	0xf3
 8305 094b 01       		.uleb128 0x1
 8306 094c 51       		.byte	0x51
 8307 094d 23       		.byte	0x23
 8308 094e 22       		.uleb128 0x22
 8309 094f 94       		.byte	0x94
 8310 0950 01       		.byte	0x1
 8311 0951 48       		.byte	0x48
 8312 0952 24       		.byte	0x24
 8313 0953 48       		.byte	0x48
 8314 0954 26       		.byte	0x26
 8315 0955 76       		.byte	0x76
 8316 0956 00       		.sleb128 0
 8317 0957 1E       		.byte	0x1e
 8318 0958 4F       		.byte	0x4f
 8319 0959 26       		.byte	0x26
 8320 095a 46       		.byte	0x46
 8321 095b 24       		.byte	0x24
 8322 095c 46       		.byte	0x46
 8323 095d 25       		.byte	0x25
 8324 095e 22       		.byte	0x22
 8325 095f 3A       		.byte	0x3a
 8326 0960 26       		.byte	0x26
 8327 0961 1E       		.byte	0x1e
 8328 0962 F3       		.byte	0xf3
 8329 0963 01       		.uleb128 0x1
 8330 0964 51       		.byte	0x51
 8331 0965 23       		.byte	0x23
 8332 0966 1C       		.uleb128 0x1c
 8333 0967 94       		.byte	0x94
 8334 0968 01       		.byte	0x1
 8335 0969 08       		.byte	0x8
 8336 096a FF       		.byte	0xff
 8337 096b 1A       		.byte	0x1a
 8338 096c 76       		.byte	0x76
 8339 096d 00       		.sleb128 0
 8340 096e 1E       		.byte	0x1e
 8341 096f F3       		.byte	0xf3
 8342 0970 01       		.uleb128 0x1
 8343 0971 51       		.byte	0x51
 8344 0972 23       		.byte	0x23
 8345 0973 1C       		.uleb128 0x1c
 8346 0974 94       		.byte	0x94
 8347 0975 01       		.byte	0x1
 8348 0976 08       		.byte	0x8
 8349 0977 FF       		.byte	0xff
 8350 0978 1A       		.byte	0x1a
 8351 0979 76       		.byte	0x76
 8352 097a 00       		.sleb128 0
 8353 097b 1E       		.byte	0x1e
 8354 097c 4F       		.byte	0x4f
 8355 097d 26       		.byte	0x26
 8356 097e 45       		.byte	0x45
 8357 097f 24       		.byte	0x24
ARM GAS  C:\Users\simon\AppData\Local\Temp\cc07ySAM.s 			page 178


 8358 0980 45       		.byte	0x45
 8359 0981 25       		.byte	0x25
 8360 0982 22       		.byte	0x22
 8361 0983 3B       		.byte	0x3b
 8362 0984 26       		.byte	0x26
 8363 0985 23       		.byte	0x23
 8364 0986 808002   		.uleb128 0x8000
 8365 0989 F3       		.byte	0xf3
 8366 098a 01       		.uleb128 0x1
 8367 098b 51       		.byte	0x51
 8368 098c 23       		.byte	0x23
 8369 098d 22       		.uleb128 0x22
 8370 098e 94       		.byte	0x94
 8371 098f 01       		.byte	0x1
 8372 0990 48       		.byte	0x48
 8373 0991 24       		.byte	0x24
 8374 0992 48       		.byte	0x48
 8375 0993 26       		.byte	0x26
 8376 0994 76       		.byte	0x76
 8377 0995 00       		.sleb128 0
 8378 0996 1E       		.byte	0x1e
 8379 0997 F3       		.byte	0xf3
 8380 0998 01       		.uleb128 0x1
 8381 0999 51       		.byte	0x51
 8382 099a 23       		.byte	0x23
 8383 099b 22       		.uleb128 0x22
 8384 099c 94       		.byte	0x94
 8385 099d 01       		.byte	0x1
 8386 099e 48       		.byte	0x48
 8387 099f 24       		.byte	0x24
 8388 09a0 48       		.byte	0x48
 8389 09a1 26       		.byte	0x26
 8390 09a2 76       		.byte	0x76
 8391 09a3 00       		.sleb128 0
 8392 09a4 1E       		.byte	0x1e
 8393 09a5 4F       		.byte	0x4f
 8394 09a6 26       		.byte	0x26
 8395 09a7 46       		.byte	0x46
 8396 09a8 24       		.byte	0x24
 8397 09a9 46       		.byte	0x46
 8398 09aa 25       		.byte	0x25
 8399 09ab 22       		.byte	0x22
 8400 09ac 3A       		.byte	0x3a
 8401 09ad 26       		.byte	0x26
 8402 09ae 1E       		.byte	0x1e
 8403 09af 4F       		.byte	0x4f
 8404 09b0 26       		.byte	0x26
 8405 09b1 46       		.byte	0x46
 8406 09b2 24       		.byte	0x24
 8407 09b3 46       		.byte	0x46
 8408 09b4 25       		.byte	0x25
 8409 09b5 22       		.byte	0x22
 8410 09b6 3A       		.byte	0x3a
 8411 09b7 26       		.byte	0x26
 8412 09b8 7C       		.byte	0x7c
 8413 09b9 00       		.sleb128 0
 8414 09ba 22       		.byte	0x22
ARM GAS  C:\Users\simon\AppData\Local\Temp\cc07ySAM.s 			page 179


 8415 09bb F3       		.byte	0xf3
 8416 09bc 01       		.uleb128 0x1
 8417 09bd 51       		.byte	0x51
 8418 09be 23       		.byte	0x23
 8419 09bf 1A       		.uleb128 0x1a
 8420 09c0 94       		.byte	0x94
 8421 09c1 02       		.byte	0x2
 8422 09c2 40       		.byte	0x40
 8423 09c3 24       		.byte	0x24
 8424 09c4 40       		.byte	0x40
 8425 09c5 26       		.byte	0x26
 8426 09c6 1E       		.byte	0x1e
 8427 09c7 F3       		.byte	0xf3
 8428 09c8 01       		.uleb128 0x1
 8429 09c9 51       		.byte	0x51
 8430 09ca 23       		.byte	0x23
 8431 09cb 1C       		.uleb128 0x1c
 8432 09cc 94       		.byte	0x94
 8433 09cd 01       		.byte	0x1
 8434 09ce 08       		.byte	0x8
 8435 09cf FF       		.byte	0xff
 8436 09d0 1A       		.byte	0x1a
 8437 09d1 76       		.byte	0x76
 8438 09d2 00       		.sleb128 0
 8439 09d3 1E       		.byte	0x1e
 8440 09d4 F3       		.byte	0xf3
 8441 09d5 01       		.uleb128 0x1
 8442 09d6 51       		.byte	0x51
 8443 09d7 23       		.byte	0x23
 8444 09d8 1C       		.uleb128 0x1c
 8445 09d9 94       		.byte	0x94
 8446 09da 01       		.byte	0x1
 8447 09db 08       		.byte	0x8
 8448 09dc FF       		.byte	0xff
 8449 09dd 1A       		.byte	0x1a
 8450 09de 76       		.byte	0x76
 8451 09df 00       		.sleb128 0
 8452 09e0 1E       		.byte	0x1e
 8453 09e1 4F       		.byte	0x4f
 8454 09e2 26       		.byte	0x26
 8455 09e3 45       		.byte	0x45
 8456 09e4 24       		.byte	0x24
 8457 09e5 45       		.byte	0x45
 8458 09e6 25       		.byte	0x25
 8459 09e7 22       		.byte	0x22
 8460 09e8 3B       		.byte	0x3b
 8461 09e9 26       		.byte	0x26
 8462 09ea 23       		.byte	0x23
 8463 09eb 808002   		.uleb128 0x8000
 8464 09ee F3       		.byte	0xf3
 8465 09ef 01       		.uleb128 0x1
 8466 09f0 51       		.byte	0x51
 8467 09f1 23       		.byte	0x23
 8468 09f2 22       		.uleb128 0x22
 8469 09f3 94       		.byte	0x94
 8470 09f4 01       		.byte	0x1
 8471 09f5 48       		.byte	0x48
ARM GAS  C:\Users\simon\AppData\Local\Temp\cc07ySAM.s 			page 180


 8472 09f6 24       		.byte	0x24
 8473 09f7 48       		.byte	0x48
 8474 09f8 26       		.byte	0x26
 8475 09f9 76       		.byte	0x76
 8476 09fa 00       		.sleb128 0
 8477 09fb 1E       		.byte	0x1e
 8478 09fc F3       		.byte	0xf3
 8479 09fd 01       		.uleb128 0x1
 8480 09fe 51       		.byte	0x51
 8481 09ff 23       		.byte	0x23
 8482 0a00 22       		.uleb128 0x22
 8483 0a01 94       		.byte	0x94
 8484 0a02 01       		.byte	0x1
 8485 0a03 48       		.byte	0x48
 8486 0a04 24       		.byte	0x24
 8487 0a05 48       		.byte	0x48
 8488 0a06 26       		.byte	0x26
 8489 0a07 76       		.byte	0x76
 8490 0a08 00       		.sleb128 0
 8491 0a09 1E       		.byte	0x1e
 8492 0a0a 4F       		.byte	0x4f
 8493 0a0b 26       		.byte	0x26
 8494 0a0c 46       		.byte	0x46
 8495 0a0d 24       		.byte	0x24
 8496 0a0e 46       		.byte	0x46
 8497 0a0f 25       		.byte	0x25
 8498 0a10 22       		.byte	0x22
 8499 0a11 3A       		.byte	0x3a
 8500 0a12 26       		.byte	0x26
 8501 0a13 1E       		.byte	0x1e
 8502 0a14 F3       		.byte	0xf3
 8503 0a15 01       		.uleb128 0x1
 8504 0a16 51       		.byte	0x51
 8505 0a17 23       		.byte	0x23
 8506 0a18 1C       		.uleb128 0x1c
 8507 0a19 94       		.byte	0x94
 8508 0a1a 01       		.byte	0x1
 8509 0a1b 08       		.byte	0x8
 8510 0a1c FF       		.byte	0xff
 8511 0a1d 1A       		.byte	0x1a
 8512 0a1e 76       		.byte	0x76
 8513 0a1f 00       		.sleb128 0
 8514 0a20 1E       		.byte	0x1e
 8515 0a21 F3       		.byte	0xf3
 8516 0a22 01       		.uleb128 0x1
 8517 0a23 51       		.byte	0x51
 8518 0a24 23       		.byte	0x23
 8519 0a25 1C       		.uleb128 0x1c
 8520 0a26 94       		.byte	0x94
 8521 0a27 01       		.byte	0x1
 8522 0a28 08       		.byte	0x8
 8523 0a29 FF       		.byte	0xff
 8524 0a2a 1A       		.byte	0x1a
 8525 0a2b 76       		.byte	0x76
 8526 0a2c 00       		.sleb128 0
 8527 0a2d 1E       		.byte	0x1e
 8528 0a2e 4F       		.byte	0x4f
ARM GAS  C:\Users\simon\AppData\Local\Temp\cc07ySAM.s 			page 181


 8529 0a2f 26       		.byte	0x26
 8530 0a30 45       		.byte	0x45
 8531 0a31 24       		.byte	0x24
 8532 0a32 45       		.byte	0x45
 8533 0a33 25       		.byte	0x25
 8534 0a34 22       		.byte	0x22
 8535 0a35 3B       		.byte	0x3b
 8536 0a36 26       		.byte	0x26
 8537 0a37 23       		.byte	0x23
 8538 0a38 808002   		.uleb128 0x8000
 8539 0a3b F3       		.byte	0xf3
 8540 0a3c 01       		.uleb128 0x1
 8541 0a3d 51       		.byte	0x51
 8542 0a3e 23       		.byte	0x23
 8543 0a3f 22       		.uleb128 0x22
 8544 0a40 94       		.byte	0x94
 8545 0a41 01       		.byte	0x1
 8546 0a42 48       		.byte	0x48
 8547 0a43 24       		.byte	0x24
 8548 0a44 48       		.byte	0x48
 8549 0a45 26       		.byte	0x26
 8550 0a46 76       		.byte	0x76
 8551 0a47 00       		.sleb128 0
 8552 0a48 1E       		.byte	0x1e
 8553 0a49 F3       		.byte	0xf3
 8554 0a4a 01       		.uleb128 0x1
 8555 0a4b 51       		.byte	0x51
 8556 0a4c 23       		.byte	0x23
 8557 0a4d 22       		.uleb128 0x22
 8558 0a4e 94       		.byte	0x94
 8559 0a4f 01       		.byte	0x1
 8560 0a50 48       		.byte	0x48
 8561 0a51 24       		.byte	0x24
 8562 0a52 48       		.byte	0x48
 8563 0a53 26       		.byte	0x26
 8564 0a54 76       		.byte	0x76
 8565 0a55 00       		.sleb128 0
 8566 0a56 1E       		.byte	0x1e
 8567 0a57 4F       		.byte	0x4f
 8568 0a58 26       		.byte	0x26
 8569 0a59 46       		.byte	0x46
 8570 0a5a 24       		.byte	0x24
 8571 0a5b 46       		.byte	0x46
 8572 0a5c 25       		.byte	0x25
 8573 0a5d 22       		.byte	0x22
 8574 0a5e 3A       		.byte	0x3a
 8575 0a5f 26       		.byte	0x26
 8576 0a60 1E       		.byte	0x1e
 8577 0a61 4F       		.byte	0x4f
 8578 0a62 26       		.byte	0x26
 8579 0a63 46       		.byte	0x46
 8580 0a64 24       		.byte	0x24
 8581 0a65 46       		.byte	0x46
 8582 0a66 25       		.byte	0x25
 8583 0a67 22       		.byte	0x22
 8584 0a68 3A       		.byte	0x3a
 8585 0a69 26       		.byte	0x26
ARM GAS  C:\Users\simon\AppData\Local\Temp\cc07ySAM.s 			page 182


 8586 0a6a 7C       		.byte	0x7c
 8587 0a6b 00       		.sleb128 0
 8588 0a6c 22       		.byte	0x22
 8589 0a6d F3       		.byte	0xf3
 8590 0a6e 01       		.uleb128 0x1
 8591 0a6f 51       		.byte	0x51
 8592 0a70 23       		.byte	0x23
 8593 0a71 1A       		.uleb128 0x1a
 8594 0a72 94       		.byte	0x94
 8595 0a73 02       		.byte	0x2
 8596 0a74 40       		.byte	0x40
 8597 0a75 24       		.byte	0x24
 8598 0a76 40       		.byte	0x40
 8599 0a77 26       		.byte	0x26
 8600 0a78 1E       		.byte	0x1e
 8601 0a79 23       		.byte	0x23
 8602 0a7a 8040     		.uleb128 0x2000
 8603 0a7c 4F       		.byte	0x4f
 8604 0a7d 26       		.byte	0x26
 8605 0a7e 42       		.byte	0x42
 8606 0a7f 24       		.byte	0x24
 8607 0a80 42       		.byte	0x42
 8608 0a81 25       		.byte	0x25
 8609 0a82 22       		.byte	0x22
 8610 0a83 23       		.byte	0x23
 8611 0a84 8040     		.uleb128 0x2000
 8612 0a86 3E       		.byte	0x3e
 8613 0a87 26       		.byte	0x26
 8614 0a88 75       		.byte	0x75
 8615 0a89 00       		.sleb128 0
 8616 0a8a F3       		.byte	0xf3
 8617 0a8b 01       		.uleb128 0x1
 8618 0a8c 51       		.byte	0x51
 8619 0a8d 23       		.byte	0x23
 8620 0a8e 1E       		.uleb128 0x1e
 8621 0a8f 94       		.byte	0x94
 8622 0a90 02       		.byte	0x2
 8623 0a91 40       		.byte	0x40
 8624 0a92 24       		.byte	0x24
 8625 0a93 40       		.byte	0x40
 8626 0a94 26       		.byte	0x26
 8627 0a95 44       		.byte	0x44
 8628 0a96 24       		.byte	0x24
 8629 0a97 1C       		.byte	0x1c
 8630 0a98 F3       		.byte	0xf3
 8631 0a99 01       		.uleb128 0x1
 8632 0a9a 51       		.byte	0x51
 8633 0a9b 23       		.byte	0x23
 8634 0a9c 20       		.uleb128 0x20
 8635 0a9d 94       		.byte	0x94
 8636 0a9e 02       		.byte	0x2
 8637 0a9f 40       		.byte	0x40
 8638 0aa0 24       		.byte	0x24
 8639 0aa1 40       		.byte	0x40
 8640 0aa2 26       		.byte	0x26
 8641 0aa3 76       		.byte	0x76
 8642 0aa4 00       		.sleb128 0
ARM GAS  C:\Users\simon\AppData\Local\Temp\cc07ySAM.s 			page 183


 8643 0aa5 1E       		.byte	0x1e
 8644 0aa6 1C       		.byte	0x1c
 8645 0aa7 23       		.byte	0x23
 8646 0aa8 808001   		.uleb128 0x4000
 8647 0aab 4F       		.byte	0x4f
 8648 0aac 26       		.byte	0x26
 8649 0aad 41       		.byte	0x41
 8650 0aae 24       		.byte	0x24
 8651 0aaf 41       		.byte	0x41
 8652 0ab0 25       		.byte	0x25
 8653 0ab1 F3       		.byte	0xf3
 8654 0ab2 01       		.uleb128 0x1
 8655 0ab3 51       		.byte	0x51
 8656 0ab4 23       		.byte	0x23
 8657 0ab5 20       		.uleb128 0x20
 8658 0ab6 94       		.byte	0x94
 8659 0ab7 02       		.byte	0x2
 8660 0ab8 40       		.byte	0x40
 8661 0ab9 24       		.byte	0x24
 8662 0aba 40       		.byte	0x40
 8663 0abb 26       		.byte	0x26
 8664 0abc 76       		.byte	0x76
 8665 0abd 00       		.sleb128 0
 8666 0abe 1E       		.byte	0x1e
 8667 0abf 1C       		.byte	0x1c
 8668 0ac0 F3       		.byte	0xf3
 8669 0ac1 01       		.uleb128 0x1
 8670 0ac2 51       		.byte	0x51
 8671 0ac3 23       		.byte	0x23
 8672 0ac4 1E       		.uleb128 0x1e
 8673 0ac5 94       		.byte	0x94
 8674 0ac6 02       		.byte	0x2
 8675 0ac7 40       		.byte	0x40
 8676 0ac8 24       		.byte	0x24
 8677 0ac9 40       		.byte	0x40
 8678 0aca 26       		.byte	0x26
 8679 0acb 44       		.byte	0x44
 8680 0acc 24       		.byte	0x24
 8681 0acd 1C       		.byte	0x1c
 8682 0ace 75       		.byte	0x75
 8683 0acf 00       		.sleb128 0
 8684 0ad0 22       		.byte	0x22
 8685 0ad1 23       		.byte	0x23
 8686 0ad2 808001   		.uleb128 0x4000
 8687 0ad5 3F       		.byte	0x3f
 8688 0ad6 26       		.byte	0x26
 8689 0ad7 1E       		.byte	0x1e
 8690 0ad8 9F       		.byte	0x9f
 8691 0ad9 CE000000 		.4byte	.LVL105
 8692 0add CE000000 		.4byte	.LVL106
 8693 0ae1 D001     		.2byte	0x1d0
 8694 0ae3 F3       		.byte	0xf3
 8695 0ae4 01       		.uleb128 0x1
 8696 0ae5 51       		.byte	0x51
 8697 0ae6 23       		.byte	0x23
 8698 0ae7 1C       		.uleb128 0x1c
 8699 0ae8 94       		.byte	0x94
ARM GAS  C:\Users\simon\AppData\Local\Temp\cc07ySAM.s 			page 184


 8700 0ae9 01       		.byte	0x1
 8701 0aea 08       		.byte	0x8
 8702 0aeb FF       		.byte	0xff
 8703 0aec 1A       		.byte	0x1a
 8704 0aed 76       		.byte	0x76
 8705 0aee 00       		.sleb128 0
 8706 0aef 1E       		.byte	0x1e
 8707 0af0 F3       		.byte	0xf3
 8708 0af1 01       		.uleb128 0x1
 8709 0af2 51       		.byte	0x51
 8710 0af3 23       		.byte	0x23
 8711 0af4 1C       		.uleb128 0x1c
 8712 0af5 94       		.byte	0x94
 8713 0af6 01       		.byte	0x1
 8714 0af7 08       		.byte	0x8
 8715 0af8 FF       		.byte	0xff
 8716 0af9 1A       		.byte	0x1a
 8717 0afa 76       		.byte	0x76
 8718 0afb 00       		.sleb128 0
 8719 0afc 1E       		.byte	0x1e
 8720 0afd 4F       		.byte	0x4f
 8721 0afe 26       		.byte	0x26
 8722 0aff 45       		.byte	0x45
 8723 0b00 24       		.byte	0x24
 8724 0b01 45       		.byte	0x45
 8725 0b02 25       		.byte	0x25
 8726 0b03 22       		.byte	0x22
 8727 0b04 3B       		.byte	0x3b
 8728 0b05 26       		.byte	0x26
 8729 0b06 23       		.byte	0x23
 8730 0b07 808002   		.uleb128 0x8000
 8731 0b0a F3       		.byte	0xf3
 8732 0b0b 01       		.uleb128 0x1
 8733 0b0c 51       		.byte	0x51
 8734 0b0d 23       		.byte	0x23
 8735 0b0e 22       		.uleb128 0x22
 8736 0b0f 94       		.byte	0x94
 8737 0b10 01       		.byte	0x1
 8738 0b11 48       		.byte	0x48
 8739 0b12 24       		.byte	0x24
 8740 0b13 48       		.byte	0x48
 8741 0b14 26       		.byte	0x26
 8742 0b15 76       		.byte	0x76
 8743 0b16 00       		.sleb128 0
 8744 0b17 1E       		.byte	0x1e
 8745 0b18 F3       		.byte	0xf3
 8746 0b19 01       		.uleb128 0x1
 8747 0b1a 51       		.byte	0x51
 8748 0b1b 23       		.byte	0x23
 8749 0b1c 22       		.uleb128 0x22
 8750 0b1d 94       		.byte	0x94
 8751 0b1e 01       		.byte	0x1
 8752 0b1f 48       		.byte	0x48
 8753 0b20 24       		.byte	0x24
 8754 0b21 48       		.byte	0x48
 8755 0b22 26       		.byte	0x26
 8756 0b23 76       		.byte	0x76
ARM GAS  C:\Users\simon\AppData\Local\Temp\cc07ySAM.s 			page 185


 8757 0b24 00       		.sleb128 0
 8758 0b25 1E       		.byte	0x1e
 8759 0b26 4F       		.byte	0x4f
 8760 0b27 26       		.byte	0x26
 8761 0b28 46       		.byte	0x46
 8762 0b29 24       		.byte	0x24
 8763 0b2a 46       		.byte	0x46
 8764 0b2b 25       		.byte	0x25
 8765 0b2c 22       		.byte	0x22
 8766 0b2d 3A       		.byte	0x3a
 8767 0b2e 26       		.byte	0x26
 8768 0b2f 1E       		.byte	0x1e
 8769 0b30 F3       		.byte	0xf3
 8770 0b31 01       		.uleb128 0x1
 8771 0b32 51       		.byte	0x51
 8772 0b33 23       		.byte	0x23
 8773 0b34 1C       		.uleb128 0x1c
 8774 0b35 94       		.byte	0x94
 8775 0b36 01       		.byte	0x1
 8776 0b37 08       		.byte	0x8
 8777 0b38 FF       		.byte	0xff
 8778 0b39 1A       		.byte	0x1a
 8779 0b3a 76       		.byte	0x76
 8780 0b3b 00       		.sleb128 0
 8781 0b3c 1E       		.byte	0x1e
 8782 0b3d F3       		.byte	0xf3
 8783 0b3e 01       		.uleb128 0x1
 8784 0b3f 51       		.byte	0x51
 8785 0b40 23       		.byte	0x23
 8786 0b41 1C       		.uleb128 0x1c
 8787 0b42 94       		.byte	0x94
 8788 0b43 01       		.byte	0x1
 8789 0b44 08       		.byte	0x8
 8790 0b45 FF       		.byte	0xff
 8791 0b46 1A       		.byte	0x1a
 8792 0b47 76       		.byte	0x76
 8793 0b48 00       		.sleb128 0
 8794 0b49 1E       		.byte	0x1e
 8795 0b4a 4F       		.byte	0x4f
 8796 0b4b 26       		.byte	0x26
 8797 0b4c 45       		.byte	0x45
 8798 0b4d 24       		.byte	0x24
 8799 0b4e 45       		.byte	0x45
 8800 0b4f 25       		.byte	0x25
 8801 0b50 22       		.byte	0x22
 8802 0b51 3B       		.byte	0x3b
 8803 0b52 26       		.byte	0x26
 8804 0b53 23       		.byte	0x23
 8805 0b54 808002   		.uleb128 0x8000
 8806 0b57 F3       		.byte	0xf3
 8807 0b58 01       		.uleb128 0x1
 8808 0b59 51       		.byte	0x51
 8809 0b5a 23       		.byte	0x23
 8810 0b5b 22       		.uleb128 0x22
 8811 0b5c 94       		.byte	0x94
 8812 0b5d 01       		.byte	0x1
 8813 0b5e 48       		.byte	0x48
ARM GAS  C:\Users\simon\AppData\Local\Temp\cc07ySAM.s 			page 186


 8814 0b5f 24       		.byte	0x24
 8815 0b60 48       		.byte	0x48
 8816 0b61 26       		.byte	0x26
 8817 0b62 76       		.byte	0x76
 8818 0b63 00       		.sleb128 0
 8819 0b64 1E       		.byte	0x1e
 8820 0b65 F3       		.byte	0xf3
 8821 0b66 01       		.uleb128 0x1
 8822 0b67 51       		.byte	0x51
 8823 0b68 23       		.byte	0x23
 8824 0b69 22       		.uleb128 0x22
 8825 0b6a 94       		.byte	0x94
 8826 0b6b 01       		.byte	0x1
 8827 0b6c 48       		.byte	0x48
 8828 0b6d 24       		.byte	0x24
 8829 0b6e 48       		.byte	0x48
 8830 0b6f 26       		.byte	0x26
 8831 0b70 76       		.byte	0x76
 8832 0b71 00       		.sleb128 0
 8833 0b72 1E       		.byte	0x1e
 8834 0b73 4F       		.byte	0x4f
 8835 0b74 26       		.byte	0x26
 8836 0b75 46       		.byte	0x46
 8837 0b76 24       		.byte	0x24
 8838 0b77 46       		.byte	0x46
 8839 0b78 25       		.byte	0x25
 8840 0b79 22       		.byte	0x22
 8841 0b7a 3A       		.byte	0x3a
 8842 0b7b 26       		.byte	0x26
 8843 0b7c 1E       		.byte	0x1e
 8844 0b7d 4F       		.byte	0x4f
 8845 0b7e 26       		.byte	0x26
 8846 0b7f 46       		.byte	0x46
 8847 0b80 24       		.byte	0x24
 8848 0b81 46       		.byte	0x46
 8849 0b82 25       		.byte	0x25
 8850 0b83 22       		.byte	0x22
 8851 0b84 3A       		.byte	0x3a
 8852 0b85 26       		.byte	0x26
 8853 0b86 7C       		.byte	0x7c
 8854 0b87 00       		.sleb128 0
 8855 0b88 22       		.byte	0x22
 8856 0b89 F3       		.byte	0xf3
 8857 0b8a 01       		.uleb128 0x1
 8858 0b8b 51       		.byte	0x51
 8859 0b8c 23       		.byte	0x23
 8860 0b8d 1A       		.uleb128 0x1a
 8861 0b8e 94       		.byte	0x94
 8862 0b8f 02       		.byte	0x2
 8863 0b90 40       		.byte	0x40
 8864 0b91 24       		.byte	0x24
 8865 0b92 40       		.byte	0x40
 8866 0b93 26       		.byte	0x26
 8867 0b94 1E       		.byte	0x1e
 8868 0b95 F3       		.byte	0xf3
 8869 0b96 01       		.uleb128 0x1
 8870 0b97 51       		.byte	0x51
ARM GAS  C:\Users\simon\AppData\Local\Temp\cc07ySAM.s 			page 187


 8871 0b98 23       		.byte	0x23
 8872 0b99 1C       		.uleb128 0x1c
 8873 0b9a 94       		.byte	0x94
 8874 0b9b 01       		.byte	0x1
 8875 0b9c 08       		.byte	0x8
 8876 0b9d FF       		.byte	0xff
 8877 0b9e 1A       		.byte	0x1a
 8878 0b9f 76       		.byte	0x76
 8879 0ba0 00       		.sleb128 0
 8880 0ba1 1E       		.byte	0x1e
 8881 0ba2 F3       		.byte	0xf3
 8882 0ba3 01       		.uleb128 0x1
 8883 0ba4 51       		.byte	0x51
 8884 0ba5 23       		.byte	0x23
 8885 0ba6 1C       		.uleb128 0x1c
 8886 0ba7 94       		.byte	0x94
 8887 0ba8 01       		.byte	0x1
 8888 0ba9 08       		.byte	0x8
 8889 0baa FF       		.byte	0xff
 8890 0bab 1A       		.byte	0x1a
 8891 0bac 76       		.byte	0x76
 8892 0bad 00       		.sleb128 0
 8893 0bae 1E       		.byte	0x1e
 8894 0baf 4F       		.byte	0x4f
 8895 0bb0 26       		.byte	0x26
 8896 0bb1 45       		.byte	0x45
 8897 0bb2 24       		.byte	0x24
 8898 0bb3 45       		.byte	0x45
 8899 0bb4 25       		.byte	0x25
 8900 0bb5 22       		.byte	0x22
 8901 0bb6 3B       		.byte	0x3b
 8902 0bb7 26       		.byte	0x26
 8903 0bb8 23       		.byte	0x23
 8904 0bb9 808002   		.uleb128 0x8000
 8905 0bbc F3       		.byte	0xf3
 8906 0bbd 01       		.uleb128 0x1
 8907 0bbe 51       		.byte	0x51
 8908 0bbf 23       		.byte	0x23
 8909 0bc0 22       		.uleb128 0x22
 8910 0bc1 94       		.byte	0x94
 8911 0bc2 01       		.byte	0x1
 8912 0bc3 48       		.byte	0x48
 8913 0bc4 24       		.byte	0x24
 8914 0bc5 48       		.byte	0x48
 8915 0bc6 26       		.byte	0x26
 8916 0bc7 76       		.byte	0x76
 8917 0bc8 00       		.sleb128 0
 8918 0bc9 1E       		.byte	0x1e
 8919 0bca F3       		.byte	0xf3
 8920 0bcb 01       		.uleb128 0x1
 8921 0bcc 51       		.byte	0x51
 8922 0bcd 23       		.byte	0x23
 8923 0bce 22       		.uleb128 0x22
 8924 0bcf 94       		.byte	0x94
 8925 0bd0 01       		.byte	0x1
 8926 0bd1 48       		.byte	0x48
 8927 0bd2 24       		.byte	0x24
ARM GAS  C:\Users\simon\AppData\Local\Temp\cc07ySAM.s 			page 188


 8928 0bd3 48       		.byte	0x48
 8929 0bd4 26       		.byte	0x26
 8930 0bd5 76       		.byte	0x76
 8931 0bd6 00       		.sleb128 0
 8932 0bd7 1E       		.byte	0x1e
 8933 0bd8 4F       		.byte	0x4f
 8934 0bd9 26       		.byte	0x26
 8935 0bda 46       		.byte	0x46
 8936 0bdb 24       		.byte	0x24
 8937 0bdc 46       		.byte	0x46
 8938 0bdd 25       		.byte	0x25
 8939 0bde 22       		.byte	0x22
 8940 0bdf 3A       		.byte	0x3a
 8941 0be0 26       		.byte	0x26
 8942 0be1 1E       		.byte	0x1e
 8943 0be2 F3       		.byte	0xf3
 8944 0be3 01       		.uleb128 0x1
 8945 0be4 51       		.byte	0x51
 8946 0be5 23       		.byte	0x23
 8947 0be6 1C       		.uleb128 0x1c
 8948 0be7 94       		.byte	0x94
 8949 0be8 01       		.byte	0x1
 8950 0be9 08       		.byte	0x8
 8951 0bea FF       		.byte	0xff
 8952 0beb 1A       		.byte	0x1a
 8953 0bec 76       		.byte	0x76
 8954 0bed 00       		.sleb128 0
 8955 0bee 1E       		.byte	0x1e
 8956 0bef F3       		.byte	0xf3
 8957 0bf0 01       		.uleb128 0x1
 8958 0bf1 51       		.byte	0x51
 8959 0bf2 23       		.byte	0x23
 8960 0bf3 1C       		.uleb128 0x1c
 8961 0bf4 94       		.byte	0x94
 8962 0bf5 01       		.byte	0x1
 8963 0bf6 08       		.byte	0x8
 8964 0bf7 FF       		.byte	0xff
 8965 0bf8 1A       		.byte	0x1a
 8966 0bf9 76       		.byte	0x76
 8967 0bfa 00       		.sleb128 0
 8968 0bfb 1E       		.byte	0x1e
 8969 0bfc 4F       		.byte	0x4f
 8970 0bfd 26       		.byte	0x26
 8971 0bfe 45       		.byte	0x45
 8972 0bff 24       		.byte	0x24
 8973 0c00 45       		.byte	0x45
 8974 0c01 25       		.byte	0x25
 8975 0c02 22       		.byte	0x22
 8976 0c03 3B       		.byte	0x3b
 8977 0c04 26       		.byte	0x26
 8978 0c05 23       		.byte	0x23
 8979 0c06 808002   		.uleb128 0x8000
 8980 0c09 F3       		.byte	0xf3
 8981 0c0a 01       		.uleb128 0x1
 8982 0c0b 51       		.byte	0x51
 8983 0c0c 23       		.byte	0x23
 8984 0c0d 22       		.uleb128 0x22
ARM GAS  C:\Users\simon\AppData\Local\Temp\cc07ySAM.s 			page 189


 8985 0c0e 94       		.byte	0x94
 8986 0c0f 01       		.byte	0x1
 8987 0c10 48       		.byte	0x48
 8988 0c11 24       		.byte	0x24
 8989 0c12 48       		.byte	0x48
 8990 0c13 26       		.byte	0x26
 8991 0c14 76       		.byte	0x76
 8992 0c15 00       		.sleb128 0
 8993 0c16 1E       		.byte	0x1e
 8994 0c17 F3       		.byte	0xf3
 8995 0c18 01       		.uleb128 0x1
 8996 0c19 51       		.byte	0x51
 8997 0c1a 23       		.byte	0x23
 8998 0c1b 22       		.uleb128 0x22
 8999 0c1c 94       		.byte	0x94
 9000 0c1d 01       		.byte	0x1
 9001 0c1e 48       		.byte	0x48
 9002 0c1f 24       		.byte	0x24
 9003 0c20 48       		.byte	0x48
 9004 0c21 26       		.byte	0x26
 9005 0c22 76       		.byte	0x76
 9006 0c23 00       		.sleb128 0
 9007 0c24 1E       		.byte	0x1e
 9008 0c25 4F       		.byte	0x4f
 9009 0c26 26       		.byte	0x26
 9010 0c27 46       		.byte	0x46
 9011 0c28 24       		.byte	0x24
 9012 0c29 46       		.byte	0x46
 9013 0c2a 25       		.byte	0x25
 9014 0c2b 22       		.byte	0x22
 9015 0c2c 3A       		.byte	0x3a
 9016 0c2d 26       		.byte	0x26
 9017 0c2e 1E       		.byte	0x1e
 9018 0c2f 4F       		.byte	0x4f
 9019 0c30 26       		.byte	0x26
 9020 0c31 46       		.byte	0x46
 9021 0c32 24       		.byte	0x24
 9022 0c33 46       		.byte	0x46
 9023 0c34 25       		.byte	0x25
 9024 0c35 22       		.byte	0x22
 9025 0c36 3A       		.byte	0x3a
 9026 0c37 26       		.byte	0x26
 9027 0c38 7C       		.byte	0x7c
 9028 0c39 00       		.sleb128 0
 9029 0c3a 22       		.byte	0x22
 9030 0c3b F3       		.byte	0xf3
 9031 0c3c 01       		.uleb128 0x1
 9032 0c3d 51       		.byte	0x51
 9033 0c3e 23       		.byte	0x23
 9034 0c3f 1A       		.uleb128 0x1a
 9035 0c40 94       		.byte	0x94
 9036 0c41 02       		.byte	0x2
 9037 0c42 40       		.byte	0x40
 9038 0c43 24       		.byte	0x24
 9039 0c44 40       		.byte	0x40
 9040 0c45 26       		.byte	0x26
 9041 0c46 1E       		.byte	0x1e
ARM GAS  C:\Users\simon\AppData\Local\Temp\cc07ySAM.s 			page 190


 9042 0c47 23       		.byte	0x23
 9043 0c48 8040     		.uleb128 0x2000
 9044 0c4a 4F       		.byte	0x4f
 9045 0c4b 26       		.byte	0x26
 9046 0c4c 42       		.byte	0x42
 9047 0c4d 24       		.byte	0x24
 9048 0c4e 42       		.byte	0x42
 9049 0c4f 25       		.byte	0x25
 9050 0c50 22       		.byte	0x22
 9051 0c51 23       		.byte	0x23
 9052 0c52 8040     		.uleb128 0x2000
 9053 0c54 3E       		.byte	0x3e
 9054 0c55 26       		.byte	0x26
 9055 0c56 F3       		.byte	0xf3
 9056 0c57 01       		.uleb128 0x1
 9057 0c58 50       		.byte	0x50
 9058 0c59 23       		.byte	0x23
 9059 0c5a 08       		.uleb128 0x8
 9060 0c5b 06       		.byte	0x6
 9061 0c5c 3E       		.byte	0x3e
 9062 0c5d 24       		.byte	0x24
 9063 0c5e F3       		.byte	0xf3
 9064 0c5f 01       		.uleb128 0x1
 9065 0c60 51       		.byte	0x51
 9066 0c61 23       		.byte	0x23
 9067 0c62 20       		.uleb128 0x20
 9068 0c63 94       		.byte	0x94
 9069 0c64 02       		.byte	0x2
 9070 0c65 40       		.byte	0x40
 9071 0c66 24       		.byte	0x24
 9072 0c67 40       		.byte	0x40
 9073 0c68 26       		.byte	0x26
 9074 0c69 76       		.byte	0x76
 9075 0c6a 00       		.sleb128 0
 9076 0c6b 1E       		.byte	0x1e
 9077 0c6c 1C       		.byte	0x1c
 9078 0c6d F3       		.byte	0xf3
 9079 0c6e 01       		.uleb128 0x1
 9080 0c6f 50       		.byte	0x50
 9081 0c70 23       		.byte	0x23
 9082 0c71 08       		.uleb128 0x8
 9083 0c72 06       		.byte	0x6
 9084 0c73 3E       		.byte	0x3e
 9085 0c74 24       		.byte	0x24
 9086 0c75 F3       		.byte	0xf3
 9087 0c76 01       		.uleb128 0x1
 9088 0c77 51       		.byte	0x51
 9089 0c78 23       		.byte	0x23
 9090 0c79 20       		.uleb128 0x20
 9091 0c7a 94       		.byte	0x94
 9092 0c7b 02       		.byte	0x2
 9093 0c7c 40       		.byte	0x40
 9094 0c7d 24       		.byte	0x24
 9095 0c7e 40       		.byte	0x40
 9096 0c7f 26       		.byte	0x26
 9097 0c80 76       		.byte	0x76
 9098 0c81 00       		.sleb128 0
ARM GAS  C:\Users\simon\AppData\Local\Temp\cc07ySAM.s 			page 191


 9099 0c82 1E       		.byte	0x1e
 9100 0c83 1C       		.byte	0x1c
 9101 0c84 F3       		.byte	0xf3
 9102 0c85 01       		.uleb128 0x1
 9103 0c86 51       		.byte	0x51
 9104 0c87 23       		.byte	0x23
 9105 0c88 1E       		.uleb128 0x1e
 9106 0c89 94       		.byte	0x94
 9107 0c8a 02       		.byte	0x2
 9108 0c8b 40       		.byte	0x40
 9109 0c8c 24       		.byte	0x24
 9110 0c8d 40       		.byte	0x40
 9111 0c8e 26       		.byte	0x26
 9112 0c8f 44       		.byte	0x44
 9113 0c90 24       		.byte	0x24
 9114 0c91 1C       		.byte	0x1c
 9115 0c92 23       		.byte	0x23
 9116 0c93 808001   		.uleb128 0x4000
 9117 0c96 4F       		.byte	0x4f
 9118 0c97 26       		.byte	0x26
 9119 0c98 41       		.byte	0x41
 9120 0c99 24       		.byte	0x24
 9121 0c9a 41       		.byte	0x41
 9122 0c9b 25       		.byte	0x25
 9123 0c9c 22       		.byte	0x22
 9124 0c9d F3       		.byte	0xf3
 9125 0c9e 01       		.uleb128 0x1
 9126 0c9f 51       		.byte	0x51
 9127 0ca0 23       		.byte	0x23
 9128 0ca1 1E       		.uleb128 0x1e
 9129 0ca2 94       		.byte	0x94
 9130 0ca3 02       		.byte	0x2
 9131 0ca4 40       		.byte	0x40
 9132 0ca5 24       		.byte	0x24
 9133 0ca6 40       		.byte	0x40
 9134 0ca7 26       		.byte	0x26
 9135 0ca8 44       		.byte	0x44
 9136 0ca9 24       		.byte	0x24
 9137 0caa 1C       		.byte	0x1c
 9138 0cab 23       		.byte	0x23
 9139 0cac 808001   		.uleb128 0x4000
 9140 0caf 3F       		.byte	0x3f
 9141 0cb0 26       		.byte	0x26
 9142 0cb1 1E       		.byte	0x1e
 9143 0cb2 9F       		.byte	0x9f
 9144 0cb3 CE000000 		.4byte	.LVL106
 9145 0cb7 D4000000 		.4byte	.LFE26
 9146 0cbb 7202     		.2byte	0x272
 9147 0cbd F3       		.byte	0xf3
 9148 0cbe 01       		.uleb128 0x1
 9149 0cbf 51       		.byte	0x51
 9150 0cc0 23       		.byte	0x23
 9151 0cc1 24       		.uleb128 0x24
 9152 0cc2 06       		.byte	0x6
 9153 0cc3 08       		.byte	0x8
 9154 0cc4 96       		.byte	0x96
 9155 0cc5 39       		.byte	0x39
ARM GAS  C:\Users\simon\AppData\Local\Temp\cc07ySAM.s 			page 192


 9156 0cc6 24       		.byte	0x24
 9157 0cc7 1C       		.byte	0x1c
 9158 0cc8 F3       		.byte	0xf3
 9159 0cc9 01       		.uleb128 0x1
 9160 0cca 51       		.byte	0x51
 9161 0ccb 23       		.byte	0x23
 9162 0ccc 1C       		.uleb128 0x1c
 9163 0ccd 94       		.byte	0x94
 9164 0cce 01       		.byte	0x1
 9165 0ccf 08       		.byte	0x8
 9166 0cd0 FF       		.byte	0xff
 9167 0cd1 1A       		.byte	0x1a
 9168 0cd2 1E       		.byte	0x1e
 9169 0cd3 F3       		.byte	0xf3
 9170 0cd4 01       		.uleb128 0x1
 9171 0cd5 51       		.byte	0x51
 9172 0cd6 23       		.byte	0x23
 9173 0cd7 24       		.uleb128 0x24
 9174 0cd8 06       		.byte	0x6
 9175 0cd9 08       		.byte	0x8
 9176 0cda 96       		.byte	0x96
 9177 0cdb 39       		.byte	0x39
 9178 0cdc 24       		.byte	0x24
 9179 0cdd 1C       		.byte	0x1c
 9180 0cde F3       		.byte	0xf3
 9181 0cdf 01       		.uleb128 0x1
 9182 0ce0 51       		.byte	0x51
 9183 0ce1 23       		.byte	0x23
 9184 0ce2 1C       		.uleb128 0x1c
 9185 0ce3 94       		.byte	0x94
 9186 0ce4 01       		.byte	0x1
 9187 0ce5 08       		.byte	0x8
 9188 0ce6 FF       		.byte	0xff
 9189 0ce7 1A       		.byte	0x1a
 9190 0ce8 1E       		.byte	0x1e
 9191 0ce9 4F       		.byte	0x4f
 9192 0cea 26       		.byte	0x26
 9193 0ceb 45       		.byte	0x45
 9194 0cec 24       		.byte	0x24
 9195 0ced 45       		.byte	0x45
 9196 0cee 25       		.byte	0x25
 9197 0cef 22       		.byte	0x22
 9198 0cf0 3B       		.byte	0x3b
 9199 0cf1 26       		.byte	0x26
 9200 0cf2 23       		.byte	0x23
 9201 0cf3 808002   		.uleb128 0x8000
 9202 0cf6 F3       		.byte	0xf3
 9203 0cf7 01       		.uleb128 0x1
 9204 0cf8 51       		.byte	0x51
 9205 0cf9 23       		.byte	0x23
 9206 0cfa 24       		.uleb128 0x24
 9207 0cfb 06       		.byte	0x6
 9208 0cfc 08       		.byte	0x8
 9209 0cfd 96       		.byte	0x96
 9210 0cfe 39       		.byte	0x39
 9211 0cff 24       		.byte	0x24
 9212 0d00 1C       		.byte	0x1c
ARM GAS  C:\Users\simon\AppData\Local\Temp\cc07ySAM.s 			page 193


 9213 0d01 F3       		.byte	0xf3
 9214 0d02 01       		.uleb128 0x1
 9215 0d03 51       		.byte	0x51
 9216 0d04 23       		.byte	0x23
 9217 0d05 22       		.uleb128 0x22
 9218 0d06 94       		.byte	0x94
 9219 0d07 01       		.byte	0x1
 9220 0d08 48       		.byte	0x48
 9221 0d09 24       		.byte	0x24
 9222 0d0a 48       		.byte	0x48
 9223 0d0b 26       		.byte	0x26
 9224 0d0c 1E       		.byte	0x1e
 9225 0d0d F3       		.byte	0xf3
 9226 0d0e 01       		.uleb128 0x1
 9227 0d0f 51       		.byte	0x51
 9228 0d10 23       		.byte	0x23
 9229 0d11 24       		.uleb128 0x24
 9230 0d12 06       		.byte	0x6
 9231 0d13 08       		.byte	0x8
 9232 0d14 96       		.byte	0x96
 9233 0d15 39       		.byte	0x39
 9234 0d16 24       		.byte	0x24
 9235 0d17 1C       		.byte	0x1c
 9236 0d18 F3       		.byte	0xf3
 9237 0d19 01       		.uleb128 0x1
 9238 0d1a 51       		.byte	0x51
 9239 0d1b 23       		.byte	0x23
 9240 0d1c 22       		.uleb128 0x22
 9241 0d1d 94       		.byte	0x94
 9242 0d1e 01       		.byte	0x1
 9243 0d1f 48       		.byte	0x48
 9244 0d20 24       		.byte	0x24
 9245 0d21 48       		.byte	0x48
 9246 0d22 26       		.byte	0x26
 9247 0d23 1E       		.byte	0x1e
 9248 0d24 4F       		.byte	0x4f
 9249 0d25 26       		.byte	0x26
 9250 0d26 46       		.byte	0x46
 9251 0d27 24       		.byte	0x24
 9252 0d28 46       		.byte	0x46
 9253 0d29 25       		.byte	0x25
 9254 0d2a 22       		.byte	0x22
 9255 0d2b 3A       		.byte	0x3a
 9256 0d2c 26       		.byte	0x26
 9257 0d2d 1E       		.byte	0x1e
 9258 0d2e F3       		.byte	0xf3
 9259 0d2f 01       		.uleb128 0x1
 9260 0d30 51       		.byte	0x51
 9261 0d31 23       		.byte	0x23
 9262 0d32 24       		.uleb128 0x24
 9263 0d33 06       		.byte	0x6
 9264 0d34 08       		.byte	0x8
 9265 0d35 96       		.byte	0x96
 9266 0d36 39       		.byte	0x39
 9267 0d37 24       		.byte	0x24
 9268 0d38 1C       		.byte	0x1c
 9269 0d39 F3       		.byte	0xf3
ARM GAS  C:\Users\simon\AppData\Local\Temp\cc07ySAM.s 			page 194


 9270 0d3a 01       		.uleb128 0x1
 9271 0d3b 51       		.byte	0x51
 9272 0d3c 23       		.byte	0x23
 9273 0d3d 1C       		.uleb128 0x1c
 9274 0d3e 94       		.byte	0x94
 9275 0d3f 01       		.byte	0x1
 9276 0d40 08       		.byte	0x8
 9277 0d41 FF       		.byte	0xff
 9278 0d42 1A       		.byte	0x1a
 9279 0d43 1E       		.byte	0x1e
 9280 0d44 F3       		.byte	0xf3
 9281 0d45 01       		.uleb128 0x1
 9282 0d46 51       		.byte	0x51
 9283 0d47 23       		.byte	0x23
 9284 0d48 24       		.uleb128 0x24
 9285 0d49 06       		.byte	0x6
 9286 0d4a 08       		.byte	0x8
 9287 0d4b 96       		.byte	0x96
 9288 0d4c 39       		.byte	0x39
 9289 0d4d 24       		.byte	0x24
 9290 0d4e 1C       		.byte	0x1c
 9291 0d4f F3       		.byte	0xf3
 9292 0d50 01       		.uleb128 0x1
 9293 0d51 51       		.byte	0x51
 9294 0d52 23       		.byte	0x23
 9295 0d53 1C       		.uleb128 0x1c
 9296 0d54 94       		.byte	0x94
 9297 0d55 01       		.byte	0x1
 9298 0d56 08       		.byte	0x8
 9299 0d57 FF       		.byte	0xff
 9300 0d58 1A       		.byte	0x1a
 9301 0d59 1E       		.byte	0x1e
 9302 0d5a 4F       		.byte	0x4f
 9303 0d5b 26       		.byte	0x26
 9304 0d5c 45       		.byte	0x45
 9305 0d5d 24       		.byte	0x24
 9306 0d5e 45       		.byte	0x45
 9307 0d5f 25       		.byte	0x25
 9308 0d60 22       		.byte	0x22
 9309 0d61 3B       		.byte	0x3b
 9310 0d62 26       		.byte	0x26
 9311 0d63 23       		.byte	0x23
 9312 0d64 808002   		.uleb128 0x8000
 9313 0d67 F3       		.byte	0xf3
 9314 0d68 01       		.uleb128 0x1
 9315 0d69 51       		.byte	0x51
 9316 0d6a 23       		.byte	0x23
 9317 0d6b 24       		.uleb128 0x24
 9318 0d6c 06       		.byte	0x6
 9319 0d6d 08       		.byte	0x8
 9320 0d6e 96       		.byte	0x96
 9321 0d6f 39       		.byte	0x39
 9322 0d70 24       		.byte	0x24
 9323 0d71 1C       		.byte	0x1c
 9324 0d72 F3       		.byte	0xf3
 9325 0d73 01       		.uleb128 0x1
 9326 0d74 51       		.byte	0x51
ARM GAS  C:\Users\simon\AppData\Local\Temp\cc07ySAM.s 			page 195


 9327 0d75 23       		.byte	0x23
 9328 0d76 22       		.uleb128 0x22
 9329 0d77 94       		.byte	0x94
 9330 0d78 01       		.byte	0x1
 9331 0d79 48       		.byte	0x48
 9332 0d7a 24       		.byte	0x24
 9333 0d7b 48       		.byte	0x48
 9334 0d7c 26       		.byte	0x26
 9335 0d7d 1E       		.byte	0x1e
 9336 0d7e F3       		.byte	0xf3
 9337 0d7f 01       		.uleb128 0x1
 9338 0d80 51       		.byte	0x51
 9339 0d81 23       		.byte	0x23
 9340 0d82 24       		.uleb128 0x24
 9341 0d83 06       		.byte	0x6
 9342 0d84 08       		.byte	0x8
 9343 0d85 96       		.byte	0x96
 9344 0d86 39       		.byte	0x39
 9345 0d87 24       		.byte	0x24
 9346 0d88 1C       		.byte	0x1c
 9347 0d89 F3       		.byte	0xf3
 9348 0d8a 01       		.uleb128 0x1
 9349 0d8b 51       		.byte	0x51
 9350 0d8c 23       		.byte	0x23
 9351 0d8d 22       		.uleb128 0x22
 9352 0d8e 94       		.byte	0x94
 9353 0d8f 01       		.byte	0x1
 9354 0d90 48       		.byte	0x48
 9355 0d91 24       		.byte	0x24
 9356 0d92 48       		.byte	0x48
 9357 0d93 26       		.byte	0x26
 9358 0d94 1E       		.byte	0x1e
 9359 0d95 4F       		.byte	0x4f
 9360 0d96 26       		.byte	0x26
 9361 0d97 46       		.byte	0x46
 9362 0d98 24       		.byte	0x24
 9363 0d99 46       		.byte	0x46
 9364 0d9a 25       		.byte	0x25
 9365 0d9b 22       		.byte	0x22
 9366 0d9c 3A       		.byte	0x3a
 9367 0d9d 26       		.byte	0x26
 9368 0d9e 1E       		.byte	0x1e
 9369 0d9f 4F       		.byte	0x4f
 9370 0da0 26       		.byte	0x26
 9371 0da1 46       		.byte	0x46
 9372 0da2 24       		.byte	0x24
 9373 0da3 46       		.byte	0x46
 9374 0da4 25       		.byte	0x25
 9375 0da5 22       		.byte	0x22
 9376 0da6 3A       		.byte	0x3a
 9377 0da7 26       		.byte	0x26
 9378 0da8 7C       		.byte	0x7c
 9379 0da9 00       		.sleb128 0
 9380 0daa 22       		.byte	0x22
 9381 0dab F3       		.byte	0xf3
 9382 0dac 01       		.uleb128 0x1
 9383 0dad 51       		.byte	0x51
ARM GAS  C:\Users\simon\AppData\Local\Temp\cc07ySAM.s 			page 196


 9384 0dae 23       		.byte	0x23
 9385 0daf 1A       		.uleb128 0x1a
 9386 0db0 94       		.byte	0x94
 9387 0db1 02       		.byte	0x2
 9388 0db2 40       		.byte	0x40
 9389 0db3 24       		.byte	0x24
 9390 0db4 40       		.byte	0x40
 9391 0db5 26       		.byte	0x26
 9392 0db6 1E       		.byte	0x1e
 9393 0db7 F3       		.byte	0xf3
 9394 0db8 01       		.uleb128 0x1
 9395 0db9 51       		.byte	0x51
 9396 0dba 23       		.byte	0x23
 9397 0dbb 24       		.uleb128 0x24
 9398 0dbc 06       		.byte	0x6
 9399 0dbd 08       		.byte	0x8
 9400 0dbe 96       		.byte	0x96
 9401 0dbf 39       		.byte	0x39
 9402 0dc0 24       		.byte	0x24
 9403 0dc1 1C       		.byte	0x1c
 9404 0dc2 F3       		.byte	0xf3
 9405 0dc3 01       		.uleb128 0x1
 9406 0dc4 51       		.byte	0x51
 9407 0dc5 23       		.byte	0x23
 9408 0dc6 1C       		.uleb128 0x1c
 9409 0dc7 94       		.byte	0x94
 9410 0dc8 01       		.byte	0x1
 9411 0dc9 08       		.byte	0x8
 9412 0dca FF       		.byte	0xff
 9413 0dcb 1A       		.byte	0x1a
 9414 0dcc 1E       		.byte	0x1e
 9415 0dcd F3       		.byte	0xf3
 9416 0dce 01       		.uleb128 0x1
 9417 0dcf 51       		.byte	0x51
 9418 0dd0 23       		.byte	0x23
 9419 0dd1 24       		.uleb128 0x24
 9420 0dd2 06       		.byte	0x6
 9421 0dd3 08       		.byte	0x8
 9422 0dd4 96       		.byte	0x96
 9423 0dd5 39       		.byte	0x39
 9424 0dd6 24       		.byte	0x24
 9425 0dd7 1C       		.byte	0x1c
 9426 0dd8 F3       		.byte	0xf3
 9427 0dd9 01       		.uleb128 0x1
 9428 0dda 51       		.byte	0x51
 9429 0ddb 23       		.byte	0x23
 9430 0ddc 1C       		.uleb128 0x1c
 9431 0ddd 94       		.byte	0x94
 9432 0dde 01       		.byte	0x1
 9433 0ddf 08       		.byte	0x8
 9434 0de0 FF       		.byte	0xff
 9435 0de1 1A       		.byte	0x1a
 9436 0de2 1E       		.byte	0x1e
 9437 0de3 4F       		.byte	0x4f
 9438 0de4 26       		.byte	0x26
 9439 0de5 45       		.byte	0x45
 9440 0de6 24       		.byte	0x24
ARM GAS  C:\Users\simon\AppData\Local\Temp\cc07ySAM.s 			page 197


 9441 0de7 45       		.byte	0x45
 9442 0de8 25       		.byte	0x25
 9443 0de9 22       		.byte	0x22
 9444 0dea 3B       		.byte	0x3b
 9445 0deb 26       		.byte	0x26
 9446 0dec 23       		.byte	0x23
 9447 0ded 808002   		.uleb128 0x8000
 9448 0df0 F3       		.byte	0xf3
 9449 0df1 01       		.uleb128 0x1
 9450 0df2 51       		.byte	0x51
 9451 0df3 23       		.byte	0x23
 9452 0df4 24       		.uleb128 0x24
 9453 0df5 06       		.byte	0x6
 9454 0df6 08       		.byte	0x8
 9455 0df7 96       		.byte	0x96
 9456 0df8 39       		.byte	0x39
 9457 0df9 24       		.byte	0x24
 9458 0dfa 1C       		.byte	0x1c
 9459 0dfb F3       		.byte	0xf3
 9460 0dfc 01       		.uleb128 0x1
 9461 0dfd 51       		.byte	0x51
 9462 0dfe 23       		.byte	0x23
 9463 0dff 22       		.uleb128 0x22
 9464 0e00 94       		.byte	0x94
 9465 0e01 01       		.byte	0x1
 9466 0e02 48       		.byte	0x48
 9467 0e03 24       		.byte	0x24
 9468 0e04 48       		.byte	0x48
 9469 0e05 26       		.byte	0x26
 9470 0e06 1E       		.byte	0x1e
 9471 0e07 F3       		.byte	0xf3
 9472 0e08 01       		.uleb128 0x1
 9473 0e09 51       		.byte	0x51
 9474 0e0a 23       		.byte	0x23
 9475 0e0b 24       		.uleb128 0x24
 9476 0e0c 06       		.byte	0x6
 9477 0e0d 08       		.byte	0x8
 9478 0e0e 96       		.byte	0x96
 9479 0e0f 39       		.byte	0x39
 9480 0e10 24       		.byte	0x24
 9481 0e11 1C       		.byte	0x1c
 9482 0e12 F3       		.byte	0xf3
 9483 0e13 01       		.uleb128 0x1
 9484 0e14 51       		.byte	0x51
 9485 0e15 23       		.byte	0x23
 9486 0e16 22       		.uleb128 0x22
 9487 0e17 94       		.byte	0x94
 9488 0e18 01       		.byte	0x1
 9489 0e19 48       		.byte	0x48
 9490 0e1a 24       		.byte	0x24
 9491 0e1b 48       		.byte	0x48
 9492 0e1c 26       		.byte	0x26
 9493 0e1d 1E       		.byte	0x1e
 9494 0e1e 4F       		.byte	0x4f
 9495 0e1f 26       		.byte	0x26
 9496 0e20 46       		.byte	0x46
 9497 0e21 24       		.byte	0x24
ARM GAS  C:\Users\simon\AppData\Local\Temp\cc07ySAM.s 			page 198


 9498 0e22 46       		.byte	0x46
 9499 0e23 25       		.byte	0x25
 9500 0e24 22       		.byte	0x22
 9501 0e25 3A       		.byte	0x3a
 9502 0e26 26       		.byte	0x26
 9503 0e27 1E       		.byte	0x1e
 9504 0e28 F3       		.byte	0xf3
 9505 0e29 01       		.uleb128 0x1
 9506 0e2a 51       		.byte	0x51
 9507 0e2b 23       		.byte	0x23
 9508 0e2c 24       		.uleb128 0x24
 9509 0e2d 06       		.byte	0x6
 9510 0e2e 08       		.byte	0x8
 9511 0e2f 96       		.byte	0x96
 9512 0e30 39       		.byte	0x39
 9513 0e31 24       		.byte	0x24
 9514 0e32 1C       		.byte	0x1c
 9515 0e33 F3       		.byte	0xf3
 9516 0e34 01       		.uleb128 0x1
 9517 0e35 51       		.byte	0x51
 9518 0e36 23       		.byte	0x23
 9519 0e37 1C       		.uleb128 0x1c
 9520 0e38 94       		.byte	0x94
 9521 0e39 01       		.byte	0x1
 9522 0e3a 08       		.byte	0x8
 9523 0e3b FF       		.byte	0xff
 9524 0e3c 1A       		.byte	0x1a
 9525 0e3d 1E       		.byte	0x1e
 9526 0e3e F3       		.byte	0xf3
 9527 0e3f 01       		.uleb128 0x1
 9528 0e40 51       		.byte	0x51
 9529 0e41 23       		.byte	0x23
 9530 0e42 24       		.uleb128 0x24
 9531 0e43 06       		.byte	0x6
 9532 0e44 08       		.byte	0x8
 9533 0e45 96       		.byte	0x96
 9534 0e46 39       		.byte	0x39
 9535 0e47 24       		.byte	0x24
 9536 0e48 1C       		.byte	0x1c
 9537 0e49 F3       		.byte	0xf3
 9538 0e4a 01       		.uleb128 0x1
 9539 0e4b 51       		.byte	0x51
 9540 0e4c 23       		.byte	0x23
 9541 0e4d 1C       		.uleb128 0x1c
 9542 0e4e 94       		.byte	0x94
 9543 0e4f 01       		.byte	0x1
 9544 0e50 08       		.byte	0x8
 9545 0e51 FF       		.byte	0xff
 9546 0e52 1A       		.byte	0x1a
 9547 0e53 1E       		.byte	0x1e
 9548 0e54 4F       		.byte	0x4f
 9549 0e55 26       		.byte	0x26
 9550 0e56 45       		.byte	0x45
 9551 0e57 24       		.byte	0x24
 9552 0e58 45       		.byte	0x45
 9553 0e59 25       		.byte	0x25
 9554 0e5a 22       		.byte	0x22
ARM GAS  C:\Users\simon\AppData\Local\Temp\cc07ySAM.s 			page 199


 9555 0e5b 3B       		.byte	0x3b
 9556 0e5c 26       		.byte	0x26
 9557 0e5d 23       		.byte	0x23
 9558 0e5e 808002   		.uleb128 0x8000
 9559 0e61 F3       		.byte	0xf3
 9560 0e62 01       		.uleb128 0x1
 9561 0e63 51       		.byte	0x51
 9562 0e64 23       		.byte	0x23
 9563 0e65 24       		.uleb128 0x24
 9564 0e66 06       		.byte	0x6
 9565 0e67 08       		.byte	0x8
 9566 0e68 96       		.byte	0x96
 9567 0e69 39       		.byte	0x39
 9568 0e6a 24       		.byte	0x24
 9569 0e6b 1C       		.byte	0x1c
 9570 0e6c F3       		.byte	0xf3
 9571 0e6d 01       		.uleb128 0x1
 9572 0e6e 51       		.byte	0x51
 9573 0e6f 23       		.byte	0x23
 9574 0e70 22       		.uleb128 0x22
 9575 0e71 94       		.byte	0x94
 9576 0e72 01       		.byte	0x1
 9577 0e73 48       		.byte	0x48
 9578 0e74 24       		.byte	0x24
 9579 0e75 48       		.byte	0x48
 9580 0e76 26       		.byte	0x26
 9581 0e77 1E       		.byte	0x1e
 9582 0e78 F3       		.byte	0xf3
 9583 0e79 01       		.uleb128 0x1
 9584 0e7a 51       		.byte	0x51
 9585 0e7b 23       		.byte	0x23
 9586 0e7c 24       		.uleb128 0x24
 9587 0e7d 06       		.byte	0x6
 9588 0e7e 08       		.byte	0x8
 9589 0e7f 96       		.byte	0x96
 9590 0e80 39       		.byte	0x39
 9591 0e81 24       		.byte	0x24
 9592 0e82 1C       		.byte	0x1c
 9593 0e83 F3       		.byte	0xf3
 9594 0e84 01       		.uleb128 0x1
 9595 0e85 51       		.byte	0x51
 9596 0e86 23       		.byte	0x23
 9597 0e87 22       		.uleb128 0x22
 9598 0e88 94       		.byte	0x94
 9599 0e89 01       		.byte	0x1
 9600 0e8a 48       		.byte	0x48
 9601 0e8b 24       		.byte	0x24
 9602 0e8c 48       		.byte	0x48
 9603 0e8d 26       		.byte	0x26
 9604 0e8e 1E       		.byte	0x1e
 9605 0e8f 4F       		.byte	0x4f
 9606 0e90 26       		.byte	0x26
 9607 0e91 46       		.byte	0x46
 9608 0e92 24       		.byte	0x24
 9609 0e93 46       		.byte	0x46
 9610 0e94 25       		.byte	0x25
 9611 0e95 22       		.byte	0x22
ARM GAS  C:\Users\simon\AppData\Local\Temp\cc07ySAM.s 			page 200


 9612 0e96 3A       		.byte	0x3a
 9613 0e97 26       		.byte	0x26
 9614 0e98 1E       		.byte	0x1e
 9615 0e99 4F       		.byte	0x4f
 9616 0e9a 26       		.byte	0x26
 9617 0e9b 46       		.byte	0x46
 9618 0e9c 24       		.byte	0x24
 9619 0e9d 46       		.byte	0x46
 9620 0e9e 25       		.byte	0x25
 9621 0e9f 22       		.byte	0x22
 9622 0ea0 3A       		.byte	0x3a
 9623 0ea1 26       		.byte	0x26
 9624 0ea2 7C       		.byte	0x7c
 9625 0ea3 00       		.sleb128 0
 9626 0ea4 22       		.byte	0x22
 9627 0ea5 F3       		.byte	0xf3
 9628 0ea6 01       		.uleb128 0x1
 9629 0ea7 51       		.byte	0x51
 9630 0ea8 23       		.byte	0x23
 9631 0ea9 1A       		.uleb128 0x1a
 9632 0eaa 94       		.byte	0x94
 9633 0eab 02       		.byte	0x2
 9634 0eac 40       		.byte	0x40
 9635 0ead 24       		.byte	0x24
 9636 0eae 40       		.byte	0x40
 9637 0eaf 26       		.byte	0x26
 9638 0eb0 1E       		.byte	0x1e
 9639 0eb1 23       		.byte	0x23
 9640 0eb2 8040     		.uleb128 0x2000
 9641 0eb4 4F       		.byte	0x4f
 9642 0eb5 26       		.byte	0x26
 9643 0eb6 42       		.byte	0x42
 9644 0eb7 24       		.byte	0x24
 9645 0eb8 42       		.byte	0x42
 9646 0eb9 25       		.byte	0x25
 9647 0eba 22       		.byte	0x22
 9648 0ebb 23       		.byte	0x23
 9649 0ebc 8040     		.uleb128 0x2000
 9650 0ebe 3E       		.byte	0x3e
 9651 0ebf 26       		.byte	0x26
 9652 0ec0 F3       		.byte	0xf3
 9653 0ec1 01       		.uleb128 0x1
 9654 0ec2 50       		.byte	0x50
 9655 0ec3 23       		.byte	0x23
 9656 0ec4 08       		.uleb128 0x8
 9657 0ec5 06       		.byte	0x6
 9658 0ec6 3E       		.byte	0x3e
 9659 0ec7 24       		.byte	0x24
 9660 0ec8 F3       		.byte	0xf3
 9661 0ec9 01       		.uleb128 0x1
 9662 0eca 51       		.byte	0x51
 9663 0ecb 23       		.byte	0x23
 9664 0ecc 24       		.uleb128 0x24
 9665 0ecd 06       		.byte	0x6
 9666 0ece 08       		.byte	0x8
 9667 0ecf 96       		.byte	0x96
 9668 0ed0 39       		.byte	0x39
ARM GAS  C:\Users\simon\AppData\Local\Temp\cc07ySAM.s 			page 201


 9669 0ed1 24       		.byte	0x24
 9670 0ed2 1C       		.byte	0x1c
 9671 0ed3 F3       		.byte	0xf3
 9672 0ed4 01       		.uleb128 0x1
 9673 0ed5 51       		.byte	0x51
 9674 0ed6 23       		.byte	0x23
 9675 0ed7 20       		.uleb128 0x20
 9676 0ed8 94       		.byte	0x94
 9677 0ed9 02       		.byte	0x2
 9678 0eda 40       		.byte	0x40
 9679 0edb 24       		.byte	0x24
 9680 0edc 40       		.byte	0x40
 9681 0edd 26       		.byte	0x26
 9682 0ede 1E       		.byte	0x1e
 9683 0edf 1C       		.byte	0x1c
 9684 0ee0 F3       		.byte	0xf3
 9685 0ee1 01       		.uleb128 0x1
 9686 0ee2 50       		.byte	0x50
 9687 0ee3 23       		.byte	0x23
 9688 0ee4 08       		.uleb128 0x8
 9689 0ee5 06       		.byte	0x6
 9690 0ee6 3E       		.byte	0x3e
 9691 0ee7 24       		.byte	0x24
 9692 0ee8 F3       		.byte	0xf3
 9693 0ee9 01       		.uleb128 0x1
 9694 0eea 51       		.byte	0x51
 9695 0eeb 23       		.byte	0x23
 9696 0eec 24       		.uleb128 0x24
 9697 0eed 06       		.byte	0x6
 9698 0eee 08       		.byte	0x8
 9699 0eef 96       		.byte	0x96
 9700 0ef0 39       		.byte	0x39
 9701 0ef1 24       		.byte	0x24
 9702 0ef2 1C       		.byte	0x1c
 9703 0ef3 F3       		.byte	0xf3
 9704 0ef4 01       		.uleb128 0x1
 9705 0ef5 51       		.byte	0x51
 9706 0ef6 23       		.byte	0x23
 9707 0ef7 20       		.uleb128 0x20
 9708 0ef8 94       		.byte	0x94
 9709 0ef9 02       		.byte	0x2
 9710 0efa 40       		.byte	0x40
 9711 0efb 24       		.byte	0x24
 9712 0efc 40       		.byte	0x40
 9713 0efd 26       		.byte	0x26
 9714 0efe 1E       		.byte	0x1e
 9715 0eff 1C       		.byte	0x1c
 9716 0f00 F3       		.byte	0xf3
 9717 0f01 01       		.uleb128 0x1
 9718 0f02 51       		.byte	0x51
 9719 0f03 23       		.byte	0x23
 9720 0f04 1E       		.uleb128 0x1e
 9721 0f05 94       		.byte	0x94
 9722 0f06 02       		.byte	0x2
 9723 0f07 40       		.byte	0x40
 9724 0f08 24       		.byte	0x24
 9725 0f09 40       		.byte	0x40
ARM GAS  C:\Users\simon\AppData\Local\Temp\cc07ySAM.s 			page 202


 9726 0f0a 26       		.byte	0x26
 9727 0f0b 44       		.byte	0x44
 9728 0f0c 24       		.byte	0x24
 9729 0f0d 1C       		.byte	0x1c
 9730 0f0e 23       		.byte	0x23
 9731 0f0f 808001   		.uleb128 0x4000
 9732 0f12 4F       		.byte	0x4f
 9733 0f13 26       		.byte	0x26
 9734 0f14 41       		.byte	0x41
 9735 0f15 24       		.byte	0x24
 9736 0f16 41       		.byte	0x41
 9737 0f17 25       		.byte	0x25
 9738 0f18 22       		.byte	0x22
 9739 0f19 F3       		.byte	0xf3
 9740 0f1a 01       		.uleb128 0x1
 9741 0f1b 51       		.byte	0x51
 9742 0f1c 23       		.byte	0x23
 9743 0f1d 1E       		.uleb128 0x1e
 9744 0f1e 94       		.byte	0x94
 9745 0f1f 02       		.byte	0x2
 9746 0f20 40       		.byte	0x40
 9747 0f21 24       		.byte	0x24
 9748 0f22 40       		.byte	0x40
 9749 0f23 26       		.byte	0x26
 9750 0f24 44       		.byte	0x44
 9751 0f25 24       		.byte	0x24
 9752 0f26 1C       		.byte	0x1c
 9753 0f27 23       		.byte	0x23
 9754 0f28 808001   		.uleb128 0x4000
 9755 0f2b 3F       		.byte	0x3f
 9756 0f2c 26       		.byte	0x26
 9757 0f2d 1E       		.byte	0x1e
 9758 0f2e 9F       		.byte	0x9f
 9759 0f2f 00000000 		.4byte	0
 9760 0f33 00000000 		.4byte	0
 9761              	.LLST19:
 9762 0f37 1C000000 		.4byte	.LVL78
 9763 0f3b 20000000 		.4byte	.LVL80
 9764 0f3f 0100     		.2byte	0x1
 9765 0f41 50       		.byte	0x50
 9766 0f42 20000000 		.4byte	.LVL80
 9767 0f46 6C000000 		.4byte	.LVL87
 9768 0f4a 0C00     		.2byte	0xc
 9769 0f4c 71       		.byte	0x71
 9770 0f4d 20       		.sleb128 32
 9771 0f4e 94       		.byte	0x94
 9772 0f4f 02       		.byte	0x2
 9773 0f50 40       		.byte	0x40
 9774 0f51 24       		.byte	0x24
 9775 0f52 40       		.byte	0x40
 9776 0f53 26       		.byte	0x26
 9777 0f54 76       		.byte	0x76
 9778 0f55 00       		.sleb128 0
 9779 0f56 1E       		.byte	0x1e
 9780 0f57 9F       		.byte	0x9f
 9781 0f58 6C000000 		.4byte	.LVL87
 9782 0f5c 72000000 		.4byte	.LVL88
ARM GAS  C:\Users\simon\AppData\Local\Temp\cc07ySAM.s 			page 203


 9783 0f60 0100     		.2byte	0x1
 9784 0f62 53       		.byte	0x53
 9785 0f63 72000000 		.4byte	.LVL88
 9786 0f67 74000000 		.4byte	.LVL89
 9787 0f6b 8F00     		.2byte	0x8f
 9788 0f6d 71       		.byte	0x71
 9789 0f6e 1C       		.sleb128 28
 9790 0f6f 94       		.byte	0x94
 9791 0f70 01       		.byte	0x1
 9792 0f71 08       		.byte	0x8
 9793 0f72 FF       		.byte	0xff
 9794 0f73 1A       		.byte	0x1a
 9795 0f74 76       		.byte	0x76
 9796 0f75 00       		.sleb128 0
 9797 0f76 1E       		.byte	0x1e
 9798 0f77 71       		.byte	0x71
 9799 0f78 1C       		.sleb128 28
 9800 0f79 94       		.byte	0x94
 9801 0f7a 01       		.byte	0x1
 9802 0f7b 08       		.byte	0x8
 9803 0f7c FF       		.byte	0xff
 9804 0f7d 1A       		.byte	0x1a
 9805 0f7e 76       		.byte	0x76
 9806 0f7f 00       		.sleb128 0
 9807 0f80 1E       		.byte	0x1e
 9808 0f81 4F       		.byte	0x4f
 9809 0f82 26       		.byte	0x26
 9810 0f83 45       		.byte	0x45
 9811 0f84 24       		.byte	0x24
 9812 0f85 45       		.byte	0x45
 9813 0f86 25       		.byte	0x25
 9814 0f87 22       		.byte	0x22
 9815 0f88 3B       		.byte	0x3b
 9816 0f89 26       		.byte	0x26
 9817 0f8a 23       		.byte	0x23
 9818 0f8b 808002   		.uleb128 0x8000
 9819 0f8e 71       		.byte	0x71
 9820 0f8f 22       		.sleb128 34
 9821 0f90 94       		.byte	0x94
 9822 0f91 01       		.byte	0x1
 9823 0f92 48       		.byte	0x48
 9824 0f93 24       		.byte	0x24
 9825 0f94 48       		.byte	0x48
 9826 0f95 26       		.byte	0x26
 9827 0f96 76       		.byte	0x76
 9828 0f97 00       		.sleb128 0
 9829 0f98 1E       		.byte	0x1e
 9830 0f99 71       		.byte	0x71
 9831 0f9a 22       		.sleb128 34
 9832 0f9b 94       		.byte	0x94
 9833 0f9c 01       		.byte	0x1
 9834 0f9d 48       		.byte	0x48
 9835 0f9e 24       		.byte	0x24
 9836 0f9f 48       		.byte	0x48
 9837 0fa0 26       		.byte	0x26
 9838 0fa1 76       		.byte	0x76
 9839 0fa2 00       		.sleb128 0
ARM GAS  C:\Users\simon\AppData\Local\Temp\cc07ySAM.s 			page 204


 9840 0fa3 1E       		.byte	0x1e
 9841 0fa4 4F       		.byte	0x4f
 9842 0fa5 26       		.byte	0x26
 9843 0fa6 46       		.byte	0x46
 9844 0fa7 24       		.byte	0x24
 9845 0fa8 46       		.byte	0x46
 9846 0fa9 25       		.byte	0x25
 9847 0faa 22       		.byte	0x22
 9848 0fab 3A       		.byte	0x3a
 9849 0fac 26       		.byte	0x26
 9850 0fad 1E       		.byte	0x1e
 9851 0fae 71       		.byte	0x71
 9852 0faf 1C       		.sleb128 28
 9853 0fb0 94       		.byte	0x94
 9854 0fb1 01       		.byte	0x1
 9855 0fb2 08       		.byte	0x8
 9856 0fb3 FF       		.byte	0xff
 9857 0fb4 1A       		.byte	0x1a
 9858 0fb5 76       		.byte	0x76
 9859 0fb6 00       		.sleb128 0
 9860 0fb7 1E       		.byte	0x1e
 9861 0fb8 71       		.byte	0x71
 9862 0fb9 1C       		.sleb128 28
 9863 0fba 94       		.byte	0x94
 9864 0fbb 01       		.byte	0x1
 9865 0fbc 08       		.byte	0x8
 9866 0fbd FF       		.byte	0xff
 9867 0fbe 1A       		.byte	0x1a
 9868 0fbf 76       		.byte	0x76
 9869 0fc0 00       		.sleb128 0
 9870 0fc1 1E       		.byte	0x1e
 9871 0fc2 4F       		.byte	0x4f
 9872 0fc3 26       		.byte	0x26
 9873 0fc4 45       		.byte	0x45
 9874 0fc5 24       		.byte	0x24
 9875 0fc6 45       		.byte	0x45
 9876 0fc7 25       		.byte	0x25
 9877 0fc8 22       		.byte	0x22
 9878 0fc9 3B       		.byte	0x3b
 9879 0fca 26       		.byte	0x26
 9880 0fcb 23       		.byte	0x23
 9881 0fcc 808002   		.uleb128 0x8000
 9882 0fcf 71       		.byte	0x71
 9883 0fd0 22       		.sleb128 34
 9884 0fd1 94       		.byte	0x94
 9885 0fd2 01       		.byte	0x1
 9886 0fd3 48       		.byte	0x48
 9887 0fd4 24       		.byte	0x24
 9888 0fd5 48       		.byte	0x48
 9889 0fd6 26       		.byte	0x26
 9890 0fd7 76       		.byte	0x76
 9891 0fd8 00       		.sleb128 0
 9892 0fd9 1E       		.byte	0x1e
 9893 0fda 71       		.byte	0x71
 9894 0fdb 22       		.sleb128 34
 9895 0fdc 94       		.byte	0x94
 9896 0fdd 01       		.byte	0x1
ARM GAS  C:\Users\simon\AppData\Local\Temp\cc07ySAM.s 			page 205


 9897 0fde 48       		.byte	0x48
 9898 0fdf 24       		.byte	0x24
 9899 0fe0 48       		.byte	0x48
 9900 0fe1 26       		.byte	0x26
 9901 0fe2 76       		.byte	0x76
 9902 0fe3 00       		.sleb128 0
 9903 0fe4 1E       		.byte	0x1e
 9904 0fe5 4F       		.byte	0x4f
 9905 0fe6 26       		.byte	0x26
 9906 0fe7 46       		.byte	0x46
 9907 0fe8 24       		.byte	0x24
 9908 0fe9 46       		.byte	0x46
 9909 0fea 25       		.byte	0x25
 9910 0feb 22       		.byte	0x22
 9911 0fec 3A       		.byte	0x3a
 9912 0fed 26       		.byte	0x26
 9913 0fee 1E       		.byte	0x1e
 9914 0fef 4F       		.byte	0x4f
 9915 0ff0 26       		.byte	0x26
 9916 0ff1 46       		.byte	0x46
 9917 0ff2 24       		.byte	0x24
 9918 0ff3 46       		.byte	0x46
 9919 0ff4 25       		.byte	0x25
 9920 0ff5 22       		.byte	0x22
 9921 0ff6 3A       		.byte	0x3a
 9922 0ff7 26       		.byte	0x26
 9923 0ff8 7C       		.byte	0x7c
 9924 0ff9 00       		.sleb128 0
 9925 0ffa 22       		.byte	0x22
 9926 0ffb 9F       		.byte	0x9f
 9927 0ffc 74000000 		.4byte	.LVL89
 9928 1000 76000000 		.4byte	.LVL90
 9929 1004 9100     		.2byte	0x91
 9930 1006 71       		.byte	0x71
 9931 1007 1C       		.sleb128 28
 9932 1008 94       		.byte	0x94
 9933 1009 01       		.byte	0x1
 9934 100a 08       		.byte	0x8
 9935 100b FF       		.byte	0xff
 9936 100c 1A       		.byte	0x1a
 9937 100d 76       		.byte	0x76
 9938 100e 00       		.sleb128 0
 9939 100f 1E       		.byte	0x1e
 9940 1010 71       		.byte	0x71
 9941 1011 1C       		.sleb128 28
 9942 1012 94       		.byte	0x94
 9943 1013 01       		.byte	0x1
 9944 1014 08       		.byte	0x8
 9945 1015 FF       		.byte	0xff
 9946 1016 1A       		.byte	0x1a
 9947 1017 76       		.byte	0x76
 9948 1018 00       		.sleb128 0
 9949 1019 1E       		.byte	0x1e
 9950 101a 4F       		.byte	0x4f
 9951 101b 26       		.byte	0x26
 9952 101c 45       		.byte	0x45
 9953 101d 24       		.byte	0x24
ARM GAS  C:\Users\simon\AppData\Local\Temp\cc07ySAM.s 			page 206


 9954 101e 45       		.byte	0x45
 9955 101f 25       		.byte	0x25
 9956 1020 22       		.byte	0x22
 9957 1021 3B       		.byte	0x3b
 9958 1022 26       		.byte	0x26
 9959 1023 72       		.byte	0x72
 9960 1024 00       		.sleb128 0
 9961 1025 38       		.byte	0x38
 9962 1026 24       		.byte	0x24
 9963 1027 22       		.byte	0x22
 9964 1028 71       		.byte	0x71
 9965 1029 22       		.sleb128 34
 9966 102a 94       		.byte	0x94
 9967 102b 01       		.byte	0x1
 9968 102c 48       		.byte	0x48
 9969 102d 24       		.byte	0x24
 9970 102e 48       		.byte	0x48
 9971 102f 26       		.byte	0x26
 9972 1030 76       		.byte	0x76
 9973 1031 00       		.sleb128 0
 9974 1032 1E       		.byte	0x1e
 9975 1033 71       		.byte	0x71
 9976 1034 22       		.sleb128 34
 9977 1035 94       		.byte	0x94
 9978 1036 01       		.byte	0x1
 9979 1037 48       		.byte	0x48
 9980 1038 24       		.byte	0x24
 9981 1039 48       		.byte	0x48
 9982 103a 26       		.byte	0x26
 9983 103b 76       		.byte	0x76
 9984 103c 00       		.sleb128 0
 9985 103d 1E       		.byte	0x1e
 9986 103e 4F       		.byte	0x4f
 9987 103f 26       		.byte	0x26
 9988 1040 46       		.byte	0x46
 9989 1041 24       		.byte	0x24
 9990 1042 46       		.byte	0x46
 9991 1043 25       		.byte	0x25
 9992 1044 22       		.byte	0x22
 9993 1045 3A       		.byte	0x3a
 9994 1046 26       		.byte	0x26
 9995 1047 1E       		.byte	0x1e
 9996 1048 71       		.byte	0x71
 9997 1049 1C       		.sleb128 28
 9998 104a 94       		.byte	0x94
 9999 104b 01       		.byte	0x1
 10000 104c 08       		.byte	0x8
 10001 104d FF       		.byte	0xff
 10002 104e 1A       		.byte	0x1a
 10003 104f 76       		.byte	0x76
 10004 1050 00       		.sleb128 0
 10005 1051 1E       		.byte	0x1e
 10006 1052 71       		.byte	0x71
 10007 1053 1C       		.sleb128 28
 10008 1054 94       		.byte	0x94
 10009 1055 01       		.byte	0x1
 10010 1056 08       		.byte	0x8
ARM GAS  C:\Users\simon\AppData\Local\Temp\cc07ySAM.s 			page 207


 10011 1057 FF       		.byte	0xff
 10012 1058 1A       		.byte	0x1a
 10013 1059 76       		.byte	0x76
 10014 105a 00       		.sleb128 0
 10015 105b 1E       		.byte	0x1e
 10016 105c 4F       		.byte	0x4f
 10017 105d 26       		.byte	0x26
 10018 105e 45       		.byte	0x45
 10019 105f 24       		.byte	0x24
 10020 1060 45       		.byte	0x45
 10021 1061 25       		.byte	0x25
 10022 1062 22       		.byte	0x22
 10023 1063 3B       		.byte	0x3b
 10024 1064 26       		.byte	0x26
 10025 1065 72       		.byte	0x72
 10026 1066 00       		.sleb128 0
 10027 1067 38       		.byte	0x38
 10028 1068 24       		.byte	0x24
 10029 1069 22       		.byte	0x22
 10030 106a 71       		.byte	0x71
 10031 106b 22       		.sleb128 34
 10032 106c 94       		.byte	0x94
 10033 106d 01       		.byte	0x1
 10034 106e 48       		.byte	0x48
 10035 106f 24       		.byte	0x24
 10036 1070 48       		.byte	0x48
 10037 1071 26       		.byte	0x26
 10038 1072 76       		.byte	0x76
 10039 1073 00       		.sleb128 0
 10040 1074 1E       		.byte	0x1e
 10041 1075 71       		.byte	0x71
 10042 1076 22       		.sleb128 34
 10043 1077 94       		.byte	0x94
 10044 1078 01       		.byte	0x1
 10045 1079 48       		.byte	0x48
 10046 107a 24       		.byte	0x24
 10047 107b 48       		.byte	0x48
 10048 107c 26       		.byte	0x26
 10049 107d 76       		.byte	0x76
 10050 107e 00       		.sleb128 0
 10051 107f 1E       		.byte	0x1e
 10052 1080 4F       		.byte	0x4f
 10053 1081 26       		.byte	0x26
 10054 1082 46       		.byte	0x46
 10055 1083 24       		.byte	0x24
 10056 1084 46       		.byte	0x46
 10057 1085 25       		.byte	0x25
 10058 1086 22       		.byte	0x22
 10059 1087 3A       		.byte	0x3a
 10060 1088 26       		.byte	0x26
 10061 1089 1E       		.byte	0x1e
 10062 108a 4F       		.byte	0x4f
 10063 108b 26       		.byte	0x26
 10064 108c 46       		.byte	0x46
 10065 108d 24       		.byte	0x24
 10066 108e 46       		.byte	0x46
 10067 108f 25       		.byte	0x25
ARM GAS  C:\Users\simon\AppData\Local\Temp\cc07ySAM.s 			page 208


 10068 1090 22       		.byte	0x22
 10069 1091 3A       		.byte	0x3a
 10070 1092 26       		.byte	0x26
 10071 1093 7C       		.byte	0x7c
 10072 1094 00       		.sleb128 0
 10073 1095 22       		.byte	0x22
 10074 1096 9F       		.byte	0x9f
 10075 1097 76000000 		.4byte	.LVL90
 10076 109b 9C000000 		.4byte	.LVL95
 10077 109f 8F00     		.2byte	0x8f
 10078 10a1 71       		.byte	0x71
 10079 10a2 1C       		.sleb128 28
 10080 10a3 94       		.byte	0x94
 10081 10a4 01       		.byte	0x1
 10082 10a5 08       		.byte	0x8
 10083 10a6 FF       		.byte	0xff
 10084 10a7 1A       		.byte	0x1a
 10085 10a8 76       		.byte	0x76
 10086 10a9 00       		.sleb128 0
 10087 10aa 1E       		.byte	0x1e
 10088 10ab 71       		.byte	0x71
 10089 10ac 1C       		.sleb128 28
 10090 10ad 94       		.byte	0x94
 10091 10ae 01       		.byte	0x1
 10092 10af 08       		.byte	0x8
 10093 10b0 FF       		.byte	0xff
 10094 10b1 1A       		.byte	0x1a
 10095 10b2 76       		.byte	0x76
 10096 10b3 00       		.sleb128 0
 10097 10b4 1E       		.byte	0x1e
 10098 10b5 4F       		.byte	0x4f
 10099 10b6 26       		.byte	0x26
 10100 10b7 45       		.byte	0x45
 10101 10b8 24       		.byte	0x24
 10102 10b9 45       		.byte	0x45
 10103 10ba 25       		.byte	0x25
 10104 10bb 22       		.byte	0x22
 10105 10bc 3B       		.byte	0x3b
 10106 10bd 26       		.byte	0x26
 10107 10be 23       		.byte	0x23
 10108 10bf 808002   		.uleb128 0x8000
 10109 10c2 71       		.byte	0x71
 10110 10c3 22       		.sleb128 34
 10111 10c4 94       		.byte	0x94
 10112 10c5 01       		.byte	0x1
 10113 10c6 48       		.byte	0x48
 10114 10c7 24       		.byte	0x24
 10115 10c8 48       		.byte	0x48
 10116 10c9 26       		.byte	0x26
 10117 10ca 76       		.byte	0x76
 10118 10cb 00       		.sleb128 0
 10119 10cc 1E       		.byte	0x1e
 10120 10cd 71       		.byte	0x71
 10121 10ce 22       		.sleb128 34
 10122 10cf 94       		.byte	0x94
 10123 10d0 01       		.byte	0x1
 10124 10d1 48       		.byte	0x48
ARM GAS  C:\Users\simon\AppData\Local\Temp\cc07ySAM.s 			page 209


 10125 10d2 24       		.byte	0x24
 10126 10d3 48       		.byte	0x48
 10127 10d4 26       		.byte	0x26
 10128 10d5 76       		.byte	0x76
 10129 10d6 00       		.sleb128 0
 10130 10d7 1E       		.byte	0x1e
 10131 10d8 4F       		.byte	0x4f
 10132 10d9 26       		.byte	0x26
 10133 10da 46       		.byte	0x46
 10134 10db 24       		.byte	0x24
 10135 10dc 46       		.byte	0x46
 10136 10dd 25       		.byte	0x25
 10137 10de 22       		.byte	0x22
 10138 10df 3A       		.byte	0x3a
 10139 10e0 26       		.byte	0x26
 10140 10e1 1E       		.byte	0x1e
 10141 10e2 71       		.byte	0x71
 10142 10e3 1C       		.sleb128 28
 10143 10e4 94       		.byte	0x94
 10144 10e5 01       		.byte	0x1
 10145 10e6 08       		.byte	0x8
 10146 10e7 FF       		.byte	0xff
 10147 10e8 1A       		.byte	0x1a
 10148 10e9 76       		.byte	0x76
 10149 10ea 00       		.sleb128 0
 10150 10eb 1E       		.byte	0x1e
 10151 10ec 71       		.byte	0x71
 10152 10ed 1C       		.sleb128 28
 10153 10ee 94       		.byte	0x94
 10154 10ef 01       		.byte	0x1
 10155 10f0 08       		.byte	0x8
 10156 10f1 FF       		.byte	0xff
 10157 10f2 1A       		.byte	0x1a
 10158 10f3 76       		.byte	0x76
 10159 10f4 00       		.sleb128 0
 10160 10f5 1E       		.byte	0x1e
 10161 10f6 4F       		.byte	0x4f
 10162 10f7 26       		.byte	0x26
 10163 10f8 45       		.byte	0x45
 10164 10f9 24       		.byte	0x24
 10165 10fa 45       		.byte	0x45
 10166 10fb 25       		.byte	0x25
 10167 10fc 22       		.byte	0x22
 10168 10fd 3B       		.byte	0x3b
 10169 10fe 26       		.byte	0x26
 10170 10ff 23       		.byte	0x23
 10171 1100 808002   		.uleb128 0x8000
 10172 1103 71       		.byte	0x71
 10173 1104 22       		.sleb128 34
 10174 1105 94       		.byte	0x94
 10175 1106 01       		.byte	0x1
 10176 1107 48       		.byte	0x48
 10177 1108 24       		.byte	0x24
 10178 1109 48       		.byte	0x48
 10179 110a 26       		.byte	0x26
 10180 110b 76       		.byte	0x76
 10181 110c 00       		.sleb128 0
ARM GAS  C:\Users\simon\AppData\Local\Temp\cc07ySAM.s 			page 210


 10182 110d 1E       		.byte	0x1e
 10183 110e 71       		.byte	0x71
 10184 110f 22       		.sleb128 34
 10185 1110 94       		.byte	0x94
 10186 1111 01       		.byte	0x1
 10187 1112 48       		.byte	0x48
 10188 1113 24       		.byte	0x24
 10189 1114 48       		.byte	0x48
 10190 1115 26       		.byte	0x26
 10191 1116 76       		.byte	0x76
 10192 1117 00       		.sleb128 0
 10193 1118 1E       		.byte	0x1e
 10194 1119 4F       		.byte	0x4f
 10195 111a 26       		.byte	0x26
 10196 111b 46       		.byte	0x46
 10197 111c 24       		.byte	0x24
 10198 111d 46       		.byte	0x46
 10199 111e 25       		.byte	0x25
 10200 111f 22       		.byte	0x22
 10201 1120 3A       		.byte	0x3a
 10202 1121 26       		.byte	0x26
 10203 1122 1E       		.byte	0x1e
 10204 1123 4F       		.byte	0x4f
 10205 1124 26       		.byte	0x26
 10206 1125 46       		.byte	0x46
 10207 1126 24       		.byte	0x24
 10208 1127 46       		.byte	0x46
 10209 1128 25       		.byte	0x25
 10210 1129 22       		.byte	0x22
 10211 112a 3A       		.byte	0x3a
 10212 112b 26       		.byte	0x26
 10213 112c 7C       		.byte	0x7c
 10214 112d 00       		.sleb128 0
 10215 112e 22       		.byte	0x22
 10216 112f 9F       		.byte	0x9f
 10217 1130 9C000000 		.4byte	.LVL95
 10218 1134 A0000000 		.4byte	.LVL97
 10219 1138 0100     		.2byte	0x1
 10220 113a 52       		.byte	0x52
 10221 113b A0000000 		.4byte	.LVL97
 10222 113f A4000000 		.4byte	.LVL98
 10223 1143 2100     		.2byte	0x21
 10224 1145 73       		.byte	0x73
 10225 1146 00       		.sleb128 0
 10226 1147 4F       		.byte	0x4f
 10227 1148 26       		.byte	0x26
 10228 1149 41       		.byte	0x41
 10229 114a 24       		.byte	0x24
 10230 114b 41       		.byte	0x41
 10231 114c 25       		.byte	0x25
 10232 114d 73       		.byte	0x73
 10233 114e 00       		.sleb128 0
 10234 114f 22       		.byte	0x22
 10235 1150 3F       		.byte	0x3f
 10236 1151 26       		.byte	0x26
 10237 1152 73       		.byte	0x73
 10238 1153 00       		.sleb128 0
ARM GAS  C:\Users\simon\AppData\Local\Temp\cc07ySAM.s 			page 211


 10239 1154 4F       		.byte	0x4f
 10240 1155 26       		.byte	0x26
 10241 1156 41       		.byte	0x41
 10242 1157 24       		.byte	0x24
 10243 1158 41       		.byte	0x41
 10244 1159 25       		.byte	0x25
 10245 115a 73       		.byte	0x73
 10246 115b 00       		.sleb128 0
 10247 115c 22       		.byte	0x22
 10248 115d 3F       		.byte	0x3f
 10249 115e 26       		.byte	0x26
 10250 115f 1E       		.byte	0x1e
 10251 1160 70       		.byte	0x70
 10252 1161 00       		.sleb128 0
 10253 1162 22       		.byte	0x22
 10254 1163 37       		.byte	0x37
 10255 1164 26       		.byte	0x26
 10256 1165 9F       		.byte	0x9f
 10257 1166 A4000000 		.4byte	.LVL98
 10258 116a B2000000 		.4byte	.LVL101
 10259 116e 3F00     		.2byte	0x3f
 10260 1170 73       		.byte	0x73
 10261 1171 00       		.sleb128 0
 10262 1172 4F       		.byte	0x4f
 10263 1173 26       		.byte	0x26
 10264 1174 41       		.byte	0x41
 10265 1175 24       		.byte	0x24
 10266 1176 41       		.byte	0x41
 10267 1177 25       		.byte	0x25
 10268 1178 73       		.byte	0x73
 10269 1179 00       		.sleb128 0
 10270 117a 22       		.byte	0x22
 10271 117b 3F       		.byte	0x3f
 10272 117c 26       		.byte	0x26
 10273 117d 73       		.byte	0x73
 10274 117e 00       		.sleb128 0
 10275 117f 4F       		.byte	0x4f
 10276 1180 26       		.byte	0x26
 10277 1181 41       		.byte	0x41
 10278 1182 24       		.byte	0x24
 10279 1183 41       		.byte	0x41
 10280 1184 25       		.byte	0x25
 10281 1185 73       		.byte	0x73
 10282 1186 00       		.sleb128 0
 10283 1187 22       		.byte	0x22
 10284 1188 3F       		.byte	0x3f
 10285 1189 26       		.byte	0x26
 10286 118a 1E       		.byte	0x1e
 10287 118b 4F       		.byte	0x4f
 10288 118c 26       		.byte	0x26
 10289 118d 74       		.byte	0x74
 10290 118e 00       		.sleb128 0
 10291 118f 1A       		.byte	0x1a
 10292 1190 73       		.byte	0x73
 10293 1191 00       		.sleb128 0
 10294 1192 4F       		.byte	0x4f
 10295 1193 26       		.byte	0x26
ARM GAS  C:\Users\simon\AppData\Local\Temp\cc07ySAM.s 			page 212


 10296 1194 41       		.byte	0x41
 10297 1195 24       		.byte	0x24
 10298 1196 41       		.byte	0x41
 10299 1197 25       		.byte	0x25
 10300 1198 73       		.byte	0x73
 10301 1199 00       		.sleb128 0
 10302 119a 22       		.byte	0x22
 10303 119b 3F       		.byte	0x3f
 10304 119c 26       		.byte	0x26
 10305 119d 73       		.byte	0x73
 10306 119e 00       		.sleb128 0
 10307 119f 4F       		.byte	0x4f
 10308 11a0 26       		.byte	0x26
 10309 11a1 41       		.byte	0x41
 10310 11a2 24       		.byte	0x24
 10311 11a3 41       		.byte	0x41
 10312 11a4 25       		.byte	0x25
 10313 11a5 73       		.byte	0x73
 10314 11a6 00       		.sleb128 0
 10315 11a7 22       		.byte	0x22
 10316 11a8 3F       		.byte	0x3f
 10317 11a9 26       		.byte	0x26
 10318 11aa 1E       		.byte	0x1e
 10319 11ab 22       		.byte	0x22
 10320 11ac 37       		.byte	0x37
 10321 11ad 26       		.byte	0x26
 10322 11ae 9F       		.byte	0x9f
 10323 11af 00000000 		.4byte	0
 10324 11b3 00000000 		.4byte	0
 10325              	.LLST20:
 10326 11b7 32000000 		.4byte	.LVL81
 10327 11bb 94000000 		.4byte	.LVL93
 10328 11bf 0100     		.2byte	0x1
 10329 11c1 50       		.byte	0x50
 10330 11c2 94000000 		.4byte	.LVL93
 10331 11c6 9E000000 		.4byte	.LVL96
 10332 11ca 4400     		.2byte	0x44
 10333 11cc 75       		.byte	0x75
 10334 11cd 00       		.sleb128 0
 10335 11ce 71       		.byte	0x71
 10336 11cf 1E       		.sleb128 30
 10337 11d0 94       		.byte	0x94
 10338 11d1 02       		.byte	0x2
 10339 11d2 40       		.byte	0x40
 10340 11d3 24       		.byte	0x24
 10341 11d4 40       		.byte	0x40
 10342 11d5 26       		.byte	0x26
 10343 11d6 44       		.byte	0x44
 10344 11d7 24       		.byte	0x24
 10345 11d8 1C       		.byte	0x1c
 10346 11d9 71       		.byte	0x71
 10347 11da 20       		.sleb128 32
 10348 11db 94       		.byte	0x94
 10349 11dc 02       		.byte	0x2
 10350 11dd 40       		.byte	0x40
 10351 11de 24       		.byte	0x24
 10352 11df 40       		.byte	0x40
ARM GAS  C:\Users\simon\AppData\Local\Temp\cc07ySAM.s 			page 213


 10353 11e0 26       		.byte	0x26
 10354 11e1 76       		.byte	0x76
 10355 11e2 00       		.sleb128 0
 10356 11e3 1E       		.byte	0x1e
 10357 11e4 1C       		.byte	0x1c
 10358 11e5 23       		.byte	0x23
 10359 11e6 808001   		.uleb128 0x4000
 10360 11e9 4F       		.byte	0x4f
 10361 11ea 26       		.byte	0x26
 10362 11eb 41       		.byte	0x41
 10363 11ec 24       		.byte	0x24
 10364 11ed 41       		.byte	0x41
 10365 11ee 25       		.byte	0x25
 10366 11ef 71       		.byte	0x71
 10367 11f0 20       		.sleb128 32
 10368 11f1 94       		.byte	0x94
 10369 11f2 02       		.byte	0x2
 10370 11f3 40       		.byte	0x40
 10371 11f4 24       		.byte	0x24
 10372 11f5 40       		.byte	0x40
 10373 11f6 26       		.byte	0x26
 10374 11f7 76       		.byte	0x76
 10375 11f8 00       		.sleb128 0
 10376 11f9 1E       		.byte	0x1e
 10377 11fa 1C       		.byte	0x1c
 10378 11fb 71       		.byte	0x71
 10379 11fc 1E       		.sleb128 30
 10380 11fd 94       		.byte	0x94
 10381 11fe 02       		.byte	0x2
 10382 11ff 40       		.byte	0x40
 10383 1200 24       		.byte	0x24
 10384 1201 40       		.byte	0x40
 10385 1202 26       		.byte	0x26
 10386 1203 44       		.byte	0x44
 10387 1204 24       		.byte	0x24
 10388 1205 1C       		.byte	0x1c
 10389 1206 75       		.byte	0x75
 10390 1207 00       		.sleb128 0
 10391 1208 22       		.byte	0x22
 10392 1209 23       		.byte	0x23
 10393 120a 808001   		.uleb128 0x4000
 10394 120d 3F       		.byte	0x3f
 10395 120e 26       		.byte	0x26
 10396 120f 9F       		.byte	0x9f
 10397 1210 9E000000 		.4byte	.LVL96
 10398 1214 AC000000 		.4byte	.LVL99
 10399 1218 5000     		.2byte	0x50
 10400 121a 75       		.byte	0x75
 10401 121b 00       		.sleb128 0
 10402 121c F3       		.byte	0xf3
 10403 121d 01       		.uleb128 0x1
 10404 121e 51       		.byte	0x51
 10405 121f 23       		.byte	0x23
 10406 1220 1E       		.uleb128 0x1e
 10407 1221 94       		.byte	0x94
 10408 1222 02       		.byte	0x2
 10409 1223 40       		.byte	0x40
ARM GAS  C:\Users\simon\AppData\Local\Temp\cc07ySAM.s 			page 214


 10410 1224 24       		.byte	0x24
 10411 1225 40       		.byte	0x40
 10412 1226 26       		.byte	0x26
 10413 1227 44       		.byte	0x44
 10414 1228 24       		.byte	0x24
 10415 1229 1C       		.byte	0x1c
 10416 122a F3       		.byte	0xf3
 10417 122b 01       		.uleb128 0x1
 10418 122c 51       		.byte	0x51
 10419 122d 23       		.byte	0x23
 10420 122e 20       		.uleb128 0x20
 10421 122f 94       		.byte	0x94
 10422 1230 02       		.byte	0x2
 10423 1231 40       		.byte	0x40
 10424 1232 24       		.byte	0x24
 10425 1233 40       		.byte	0x40
 10426 1234 26       		.byte	0x26
 10427 1235 76       		.byte	0x76
 10428 1236 00       		.sleb128 0
 10429 1237 1E       		.byte	0x1e
 10430 1238 1C       		.byte	0x1c
 10431 1239 23       		.byte	0x23
 10432 123a 808001   		.uleb128 0x4000
 10433 123d 4F       		.byte	0x4f
 10434 123e 26       		.byte	0x26
 10435 123f 41       		.byte	0x41
 10436 1240 24       		.byte	0x24
 10437 1241 41       		.byte	0x41
 10438 1242 25       		.byte	0x25
 10439 1243 F3       		.byte	0xf3
 10440 1244 01       		.uleb128 0x1
 10441 1245 51       		.byte	0x51
 10442 1246 23       		.byte	0x23
 10443 1247 20       		.uleb128 0x20
 10444 1248 94       		.byte	0x94
 10445 1249 02       		.byte	0x2
 10446 124a 40       		.byte	0x40
 10447 124b 24       		.byte	0x24
 10448 124c 40       		.byte	0x40
 10449 124d 26       		.byte	0x26
 10450 124e 76       		.byte	0x76
 10451 124f 00       		.sleb128 0
 10452 1250 1E       		.byte	0x1e
 10453 1251 1C       		.byte	0x1c
 10454 1252 F3       		.byte	0xf3
 10455 1253 01       		.uleb128 0x1
 10456 1254 51       		.byte	0x51
 10457 1255 23       		.byte	0x23
 10458 1256 1E       		.uleb128 0x1e
 10459 1257 94       		.byte	0x94
 10460 1258 02       		.byte	0x2
 10461 1259 40       		.byte	0x40
 10462 125a 24       		.byte	0x24
 10463 125b 40       		.byte	0x40
 10464 125c 26       		.byte	0x26
 10465 125d 44       		.byte	0x44
 10466 125e 24       		.byte	0x24
ARM GAS  C:\Users\simon\AppData\Local\Temp\cc07ySAM.s 			page 215


 10467 125f 1C       		.byte	0x1c
 10468 1260 75       		.byte	0x75
 10469 1261 00       		.sleb128 0
 10470 1262 22       		.byte	0x22
 10471 1263 23       		.byte	0x23
 10472 1264 808001   		.uleb128 0x4000
 10473 1267 3F       		.byte	0x3f
 10474 1268 26       		.byte	0x26
 10475 1269 9F       		.byte	0x9f
 10476 126a B0000000 		.4byte	.LVL100
 10477 126e D4000000 		.4byte	.LFE26
 10478 1272 0100     		.2byte	0x1
 10479 1274 52       		.byte	0x52
 10480 1275 00000000 		.4byte	0
 10481 1279 00000000 		.4byte	0
 10482              	.LLST21:
 10483 127d 02000000 		.4byte	.LVL108
 10484 1281 06000000 		.4byte	.LVL109
 10485 1285 0200     		.2byte	0x2
 10486 1287 31       		.byte	0x31
 10487 1288 9F       		.byte	0x9f
 10488 1289 06000000 		.4byte	.LVL109
 10489 128d 14000000 		.4byte	.LVL110
 10490 1291 0100     		.2byte	0x1
 10491 1293 54       		.byte	0x54
 10492 1294 16000000 		.4byte	.LVL111
 10493 1298 1A000000 		.4byte	.LVL112
 10494 129c 0100     		.2byte	0x1
 10495 129e 54       		.byte	0x54
 10496 129f 00000000 		.4byte	0
 10497 12a3 00000000 		.4byte	0
 10498              	.LLST22:
 10499 12a7 1E000000 		.4byte	.LVL117
 10500 12ab 20000000 		.4byte	.LVL118
 10501 12af 0100     		.2byte	0x1
 10502 12b1 53       		.byte	0x53
 10503 12b2 20000000 		.4byte	.LVL118
 10504 12b6 28000000 		.4byte	.LVL119
 10505 12ba 0500     		.2byte	0x5
 10506 12bc 72       		.byte	0x72
 10507 12bd 00       		.sleb128 0
 10508 12be 3F       		.byte	0x3f
 10509 12bf 1A       		.byte	0x1a
 10510 12c0 9F       		.byte	0x9f
 10511 12c1 00000000 		.4byte	0
 10512 12c5 00000000 		.4byte	0
 10513              	.LLST23:
 10514 12c9 18000000 		.4byte	.LVL116
 10515 12cd 38000000 		.4byte	.LVL124
 10516 12d1 0100     		.2byte	0x1
 10517 12d3 54       		.byte	0x54
 10518 12d4 00000000 		.4byte	0
 10519 12d8 00000000 		.4byte	0
 10520              	.LLST24:
 10521 12dc 2C000000 		.4byte	.LVL120
 10522 12e0 2E000000 		.4byte	.LVL121
 10523 12e4 0100     		.2byte	0x1
ARM GAS  C:\Users\simon\AppData\Local\Temp\cc07ySAM.s 			page 216


 10524 12e6 53       		.byte	0x53
 10525 12e7 2E000000 		.4byte	.LVL121
 10526 12eb 30000000 		.4byte	.LVL122
 10527 12ef 0A00     		.2byte	0xa
 10528 12f1 70       		.byte	0x70
 10529 12f2 04       		.sleb128 4
 10530 12f3 94       		.byte	0x94
 10531 12f4 01       		.byte	0x1
 10532 12f5 08       		.byte	0x8
 10533 12f6 FF       		.byte	0xff
 10534 12f7 1A       		.byte	0x1a
 10535 12f8 34       		.byte	0x34
 10536 12f9 25       		.byte	0x25
 10537 12fa 9F       		.byte	0x9f
 10538 12fb 00000000 		.4byte	0
 10539 12ff 00000000 		.4byte	0
 10540              	.LLST25:
 10541 1303 28000000 		.4byte	.LVL119
 10542 1307 32000000 		.4byte	.LVL123
 10543 130b 0100     		.2byte	0x1
 10544 130d 52       		.byte	0x52
 10545 130e 00000000 		.4byte	0
 10546 1312 00000000 		.4byte	0
 10547              	.LLST26:
 10548 1316 00000000 		.4byte	.LVL125
 10549 131a 06000000 		.4byte	.LVL126
 10550 131e 0100     		.2byte	0x1
 10551 1320 50       		.byte	0x50
 10552 1321 06000000 		.4byte	.LVL126
 10553 1325 08000000 		.4byte	.LVL127
 10554 1329 0400     		.2byte	0x4
 10555 132b F3       		.byte	0xf3
 10556 132c 01       		.uleb128 0x1
 10557 132d 50       		.byte	0x50
 10558 132e 9F       		.byte	0x9f
 10559 132f 08000000 		.4byte	.LVL127
 10560 1333 0A000000 		.4byte	.LVL128
 10561 1337 0100     		.2byte	0x1
 10562 1339 50       		.byte	0x50
 10563 133a 0A000000 		.4byte	.LVL128
 10564 133e 0C000000 		.4byte	.LFE31
 10565 1342 0400     		.2byte	0x4
 10566 1344 F3       		.byte	0xf3
 10567 1345 01       		.uleb128 0x1
 10568 1346 50       		.byte	0x50
 10569 1347 9F       		.byte	0x9f
 10570 1348 00000000 		.4byte	0
 10571 134c 00000000 		.4byte	0
 10572              	.LLST27:
 10573 1350 00000000 		.4byte	.LVL125
 10574 1354 0A000000 		.4byte	.LVL128
 10575 1358 0200     		.2byte	0x2
 10576 135a 30       		.byte	0x30
 10577 135b 9F       		.byte	0x9f
 10578 135c 0A000000 		.4byte	.LVL128
 10579 1360 0C000000 		.4byte	.LFE31
 10580 1364 0100     		.2byte	0x1
ARM GAS  C:\Users\simon\AppData\Local\Temp\cc07ySAM.s 			page 217


 10581 1366 50       		.byte	0x50
 10582 1367 00000000 		.4byte	0
 10583 136b 00000000 		.4byte	0
 10584              	.LLST28:
 10585 136f 00000000 		.4byte	.LVL129
 10586 1373 18000000 		.4byte	.LVL130
 10587 1377 0100     		.2byte	0x1
 10588 1379 50       		.byte	0x50
 10589 137a 18000000 		.4byte	.LVL130
 10590 137e 1C000000 		.4byte	.LVL131
 10591 1382 0400     		.2byte	0x4
 10592 1384 F3       		.byte	0xf3
 10593 1385 01       		.uleb128 0x1
 10594 1386 50       		.byte	0x50
 10595 1387 9F       		.byte	0x9f
 10596 1388 1C000000 		.4byte	.LVL131
 10597 138c 1E000000 		.4byte	.LVL132
 10598 1390 0100     		.2byte	0x1
 10599 1392 50       		.byte	0x50
 10600 1393 1E000000 		.4byte	.LVL132
 10601 1397 22000000 		.4byte	.LVL133
 10602 139b 0400     		.2byte	0x4
 10603 139d F3       		.byte	0xf3
 10604 139e 01       		.uleb128 0x1
 10605 139f 50       		.byte	0x50
 10606 13a0 9F       		.byte	0x9f
 10607 13a1 22000000 		.4byte	.LVL133
 10608 13a5 24000000 		.4byte	.LVL134
 10609 13a9 0100     		.2byte	0x1
 10610 13ab 50       		.byte	0x50
 10611 13ac 24000000 		.4byte	.LVL134
 10612 13b0 28000000 		.4byte	.LVL135
 10613 13b4 0400     		.2byte	0x4
 10614 13b6 F3       		.byte	0xf3
 10615 13b7 01       		.uleb128 0x1
 10616 13b8 50       		.byte	0x50
 10617 13b9 9F       		.byte	0x9f
 10618 13ba 28000000 		.4byte	.LVL135
 10619 13be 2A000000 		.4byte	.LVL136
 10620 13c2 0100     		.2byte	0x1
 10621 13c4 50       		.byte	0x50
 10622 13c5 2A000000 		.4byte	.LVL136
 10623 13c9 2E000000 		.4byte	.LVL137
 10624 13cd 0400     		.2byte	0x4
 10625 13cf F3       		.byte	0xf3
 10626 13d0 01       		.uleb128 0x1
 10627 13d1 50       		.byte	0x50
 10628 13d2 9F       		.byte	0x9f
 10629 13d3 2E000000 		.4byte	.LVL137
 10630 13d7 30000000 		.4byte	.LVL138
 10631 13db 0100     		.2byte	0x1
 10632 13dd 50       		.byte	0x50
 10633 13de 30000000 		.4byte	.LVL138
 10634 13e2 32000000 		.4byte	.LFE32
 10635 13e6 0400     		.2byte	0x4
 10636 13e8 F3       		.byte	0xf3
 10637 13e9 01       		.uleb128 0x1
ARM GAS  C:\Users\simon\AppData\Local\Temp\cc07ySAM.s 			page 218


 10638 13ea 50       		.byte	0x50
 10639 13eb 9F       		.byte	0x9f
 10640 13ec 00000000 		.4byte	0
 10641 13f0 00000000 		.4byte	0
 10642              	.LLST29:
 10643 13f4 00000000 		.4byte	.LVL139
 10644 13f8 0E000000 		.4byte	.LVL140
 10645 13fc 0100     		.2byte	0x1
 10646 13fe 50       		.byte	0x50
 10647 13ff 0E000000 		.4byte	.LVL140
 10648 1403 24000000 		.4byte	.LVL142
 10649 1407 0400     		.2byte	0x4
 10650 1409 F3       		.byte	0xf3
 10651 140a 01       		.uleb128 0x1
 10652 140b 50       		.byte	0x50
 10653 140c 9F       		.byte	0x9f
 10654 140d 24000000 		.4byte	.LVL142
 10655 1411 38000000 		.4byte	.LVL146
 10656 1415 0100     		.2byte	0x1
 10657 1417 54       		.byte	0x54
 10658 1418 00000000 		.4byte	0
 10659 141c 00000000 		.4byte	0
 10660              	.LLST30:
 10661 1420 00000000 		.4byte	.LVL139
 10662 1424 11000000 		.4byte	.LVL141-1
 10663 1428 0100     		.2byte	0x1
 10664 142a 51       		.byte	0x51
 10665 142b 11000000 		.4byte	.LVL141-1
 10666 142f 3C000000 		.4byte	.LFE1
 10667 1433 0200     		.2byte	0x2
 10668 1435 91       		.byte	0x91
 10669 1436 64       		.sleb128 -28
 10670 1437 00000000 		.4byte	0
 10671 143b 00000000 		.4byte	0
 10672              	.LLST31:
 10673 143f 00000000 		.4byte	.LVL139
 10674 1443 11000000 		.4byte	.LVL141-1
 10675 1447 0100     		.2byte	0x1
 10676 1449 52       		.byte	0x52
 10677 144a 11000000 		.4byte	.LVL141-1
 10678 144e 3C000000 		.4byte	.LFE1
 10679 1452 0400     		.2byte	0x4
 10680 1454 F3       		.byte	0xf3
 10681 1455 01       		.uleb128 0x1
 10682 1456 52       		.byte	0x52
 10683 1457 9F       		.byte	0x9f
 10684 1458 00000000 		.4byte	0
 10685 145c 00000000 		.4byte	0
 10686              	.LLST32:
 10687 1460 00000000 		.4byte	.LVL139
 10688 1464 11000000 		.4byte	.LVL141-1
 10689 1468 0100     		.2byte	0x1
 10690 146a 53       		.byte	0x53
 10691 146b 11000000 		.4byte	.LVL141-1
 10692 146f 3A000000 		.4byte	.LVL147
 10693 1473 0100     		.2byte	0x1
 10694 1475 57       		.byte	0x57
ARM GAS  C:\Users\simon\AppData\Local\Temp\cc07ySAM.s 			page 219


 10695 1476 3A000000 		.4byte	.LVL147
 10696 147a 3C000000 		.4byte	.LFE1
 10697 147e 0400     		.2byte	0x4
 10698 1480 F3       		.byte	0xf3
 10699 1481 01       		.uleb128 0x1
 10700 1482 53       		.byte	0x53
 10701 1483 9F       		.byte	0x9f
 10702 1484 00000000 		.4byte	0
 10703 1488 00000000 		.4byte	0
 10704              	.LLST33:
 10705 148c 12000000 		.4byte	.LVL141
 10706 1490 28000000 		.4byte	.LVL143
 10707 1494 0100     		.2byte	0x1
 10708 1496 50       		.byte	0x50
 10709 1497 30000000 		.4byte	.LVL144
 10710 149b 36000000 		.4byte	.LVL145
 10711 149f 0100     		.2byte	0x1
 10712 14a1 50       		.byte	0x50
 10713 14a2 38000000 		.4byte	.LVL146
 10714 14a6 3C000000 		.4byte	.LFE1
 10715 14aa 0100     		.2byte	0x1
 10716 14ac 50       		.byte	0x50
 10717 14ad 00000000 		.4byte	0
 10718 14b1 00000000 		.4byte	0
 10719              	.LLST34:
 10720 14b5 00000000 		.4byte	.LVL148
 10721 14b9 0C000000 		.4byte	.LVL150
 10722 14bd 0100     		.2byte	0x1
 10723 14bf 50       		.byte	0x50
 10724 14c0 0C000000 		.4byte	.LVL150
 10725 14c4 44000000 		.4byte	.LVL161
 10726 14c8 0100     		.2byte	0x1
 10727 14ca 55       		.byte	0x55
 10728 14cb 44000000 		.4byte	.LVL161
 10729 14cf 46000000 		.4byte	.LFE27
 10730 14d3 0400     		.2byte	0x4
 10731 14d5 F3       		.byte	0xf3
 10732 14d6 01       		.uleb128 0x1
 10733 14d7 50       		.byte	0x50
 10734 14d8 9F       		.byte	0x9f
 10735 14d9 00000000 		.4byte	0
 10736 14dd 00000000 		.4byte	0
 10737              	.LLST35:
 10738 14e1 1E000000 		.4byte	.LVL153
 10739 14e5 24000000 		.4byte	.LVL154
 10740 14e9 0100     		.2byte	0x1
 10741 14eb 50       		.byte	0x50
 10742 14ec 24000000 		.4byte	.LVL154
 10743 14f0 36000000 		.4byte	.LVL157
 10744 14f4 0100     		.2byte	0x1
 10745 14f6 54       		.byte	0x54
 10746 14f7 36000000 		.4byte	.LVL157
 10747 14fb 3C000000 		.4byte	.LVL158
 10748 14ff 0100     		.2byte	0x1
 10749 1501 50       		.byte	0x50
 10750 1502 3C000000 		.4byte	.LVL158
 10751 1506 44000000 		.4byte	.LVL160
ARM GAS  C:\Users\simon\AppData\Local\Temp\cc07ySAM.s 			page 220


 10752 150a 0100     		.2byte	0x1
 10753 150c 54       		.byte	0x54
 10754 150d 00000000 		.4byte	0
 10755 1511 00000000 		.4byte	0
 10756              	.LLST36:
 10757 1515 06000000 		.4byte	.LVL149
 10758 1519 28000000 		.4byte	.LVL155
 10759 151d 0300     		.2byte	0x3
 10760 151f 09       		.byte	0x9
 10761 1520 88       		.byte	0x88
 10762 1521 9F       		.byte	0x9f
 10763 1522 28000000 		.4byte	.LVL155
 10764 1526 40000000 		.4byte	.LVL159
 10765 152a 0300     		.2byte	0x3
 10766 152c 09       		.byte	0x9
 10767 152d E1       		.byte	0xe1
 10768 152e 9F       		.byte	0x9f
 10769 152f 00000000 		.4byte	0
 10770 1533 00000000 		.4byte	0
 10771              	.LLST37:
 10772 1537 00000000 		.4byte	.LVL162
 10773 153b 14000000 		.4byte	.LVL164
 10774 153f 0100     		.2byte	0x1
 10775 1541 50       		.byte	0x50
 10776 1542 14000000 		.4byte	.LVL164
 10777 1546 94000000 		.4byte	.LVL189
 10778 154a 0100     		.2byte	0x1
 10779 154c 55       		.byte	0x55
 10780 154d 94000000 		.4byte	.LVL189
 10781 1551 96000000 		.4byte	.LFE2
 10782 1555 0400     		.2byte	0x4
 10783 1557 F3       		.byte	0xf3
 10784 1558 01       		.uleb128 0x1
 10785 1559 50       		.byte	0x50
 10786 155a 9F       		.byte	0x9f
 10787 155b 00000000 		.4byte	0
 10788 155f 00000000 		.4byte	0
 10789              	.LLST38:
 10790 1563 00000000 		.4byte	.LVL162
 10791 1567 17000000 		.4byte	.LVL165-1
 10792 156b 0100     		.2byte	0x1
 10793 156d 51       		.byte	0x51
 10794 156e 17000000 		.4byte	.LVL165-1
 10795 1572 94000000 		.4byte	.LVL191
 10796 1576 0100     		.2byte	0x1
 10797 1578 57       		.byte	0x57
 10798 1579 94000000 		.4byte	.LVL191
 10799 157d 96000000 		.4byte	.LFE2
 10800 1581 0400     		.2byte	0x4
 10801 1583 F3       		.byte	0xf3
 10802 1584 01       		.uleb128 0x1
 10803 1585 51       		.byte	0x51
 10804 1586 9F       		.byte	0x9f
 10805 1587 00000000 		.4byte	0
 10806 158b 00000000 		.4byte	0
 10807              	.LLST39:
 10808 158f 00000000 		.4byte	.LVL162
ARM GAS  C:\Users\simon\AppData\Local\Temp\cc07ySAM.s 			page 221


 10809 1593 12000000 		.4byte	.LVL163
 10810 1597 0100     		.2byte	0x1
 10811 1599 52       		.byte	0x52
 10812 159a 12000000 		.4byte	.LVL163
 10813 159e 5E000000 		.4byte	.LVL173
 10814 15a2 0100     		.2byte	0x1
 10815 15a4 54       		.byte	0x54
 10816 15a5 64000000 		.4byte	.LVL175
 10817 15a9 66000000 		.4byte	.LVL176
 10818 15ad 0100     		.2byte	0x1
 10819 15af 54       		.byte	0x54
 10820 15b0 76000000 		.4byte	.LVL178
 10821 15b4 8E000000 		.4byte	.LVL186
 10822 15b8 0100     		.2byte	0x1
 10823 15ba 54       		.byte	0x54
 10824 15bb 00000000 		.4byte	0
 10825 15bf 00000000 		.4byte	0
 10826              	.LLST40:
 10827 15c3 00000000 		.4byte	.LVL162
 10828 15c7 17000000 		.4byte	.LVL165-1
 10829 15cb 0100     		.2byte	0x1
 10830 15cd 53       		.byte	0x53
 10831 15ce 17000000 		.4byte	.LVL165-1
 10832 15d2 94000000 		.4byte	.LVL190
 10833 15d6 0100     		.2byte	0x1
 10834 15d8 56       		.byte	0x56
 10835 15d9 94000000 		.4byte	.LVL190
 10836 15dd 96000000 		.4byte	.LFE2
 10837 15e1 0400     		.2byte	0x4
 10838 15e3 F3       		.byte	0xf3
 10839 15e4 01       		.uleb128 0x1
 10840 15e5 53       		.byte	0x53
 10841 15e6 9F       		.byte	0x9f
 10842 15e7 00000000 		.4byte	0
 10843 15eb 00000000 		.4byte	0
 10844              	.LLST41:
 10845 15ef 18000000 		.4byte	.LVL165
 10846 15f3 36000000 		.4byte	.LVL166
 10847 15f7 0100     		.2byte	0x1
 10848 15f9 50       		.byte	0x50
 10849 15fa 46000000 		.4byte	.LVL169
 10850 15fe 48000000 		.4byte	.LVL170
 10851 1602 0100     		.2byte	0x1
 10852 1604 50       		.byte	0x50
 10853 1605 70000000 		.4byte	.LVL177
 10854 1609 78000000 		.4byte	.LVL179
 10855 160d 0100     		.2byte	0x1
 10856 160f 50       		.byte	0x50
 10857 1610 7C000000 		.4byte	.LVL180
 10858 1614 7E000000 		.4byte	.LVL181
 10859 1618 0100     		.2byte	0x1
 10860 161a 50       		.byte	0x50
 10861 161b 82000000 		.4byte	.LVL182
 10862 161f 84000000 		.4byte	.LVL183
 10863 1623 0100     		.2byte	0x1
 10864 1625 50       		.byte	0x50
 10865 1626 88000000 		.4byte	.LVL184
ARM GAS  C:\Users\simon\AppData\Local\Temp\cc07ySAM.s 			page 222


 10866 162a 8A000000 		.4byte	.LVL185
 10867 162e 0100     		.2byte	0x1
 10868 1630 50       		.byte	0x50
 10869 1631 8E000000 		.4byte	.LVL186
 10870 1635 90000000 		.4byte	.LVL187
 10871 1639 0100     		.2byte	0x1
 10872 163b 50       		.byte	0x50
 10873 163c 92000000 		.4byte	.LVL188
 10874 1640 96000000 		.4byte	.LFE2
 10875 1644 0100     		.2byte	0x1
 10876 1646 50       		.byte	0x50
 10877 1647 00000000 		.4byte	0
 10878 164b 00000000 		.4byte	0
 10879              	.LLST42:
 10880 164f 62000000 		.4byte	.LVL174
 10881 1653 64000000 		.4byte	.LVL175
 10882 1657 0100     		.2byte	0x1
 10883 1659 53       		.byte	0x53
 10884 165a 66000000 		.4byte	.LVL176
 10885 165e 6F000000 		.4byte	.LVL177-1
 10886 1662 0100     		.2byte	0x1
 10887 1664 53       		.byte	0x53
 10888 1665 00000000 		.4byte	0
 10889 1669 00000000 		.4byte	0
 10890              	.LLST43:
 10891 166d 36000000 		.4byte	.LVL166
 10892 1671 42000000 		.4byte	.LVL167
 10893 1675 0100     		.2byte	0x1
 10894 1677 52       		.byte	0x52
 10895 1678 44000000 		.4byte	.LVL168
 10896 167c 46000000 		.4byte	.LVL169
 10897 1680 0100     		.2byte	0x1
 10898 1682 52       		.byte	0x52
 10899 1683 48000000 		.4byte	.LVL170
 10900 1687 4C000000 		.4byte	.LVL171
 10901 168b 0100     		.2byte	0x1
 10902 168d 52       		.byte	0x52
 10903 168e 00000000 		.4byte	0
 10904 1692 00000000 		.4byte	0
 10905              	.LLST44:
 10906 1696 00000000 		.4byte	.LVL192
 10907 169a 0C000000 		.4byte	.LVL193
 10908 169e 0100     		.2byte	0x1
 10909 16a0 50       		.byte	0x50
 10910 16a1 0C000000 		.4byte	.LVL193
 10911 16a5 12000000 		.4byte	.LVL194
 10912 16a9 0100     		.2byte	0x1
 10913 16ab 53       		.byte	0x53
 10914 16ac 12000000 		.4byte	.LVL194
 10915 16b0 54000000 		.4byte	.LFE13
 10916 16b4 0400     		.2byte	0x4
 10917 16b6 F3       		.byte	0xf3
 10918 16b7 01       		.uleb128 0x1
 10919 16b8 50       		.byte	0x50
 10920 16b9 9F       		.byte	0x9f
 10921 16ba 00000000 		.4byte	0
 10922 16be 00000000 		.4byte	0
ARM GAS  C:\Users\simon\AppData\Local\Temp\cc07ySAM.s 			page 223


 10923              	.LLST45:
 10924 16c2 00000000 		.4byte	.LVL192
 10925 16c6 16000000 		.4byte	.LVL195
 10926 16ca 0100     		.2byte	0x1
 10927 16cc 51       		.byte	0x51
 10928 16cd 16000000 		.4byte	.LVL195
 10929 16d1 52000000 		.4byte	.LVL201
 10930 16d5 0100     		.2byte	0x1
 10931 16d7 54       		.byte	0x54
 10932 16d8 52000000 		.4byte	.LVL201
 10933 16dc 54000000 		.4byte	.LFE13
 10934 16e0 0400     		.2byte	0x4
 10935 16e2 F3       		.byte	0xf3
 10936 16e3 01       		.uleb128 0x1
 10937 16e4 51       		.byte	0x51
 10938 16e5 9F       		.byte	0x9f
 10939 16e6 00000000 		.4byte	0
 10940 16ea 00000000 		.4byte	0
 10941              	.LLST46:
 10942 16ee 24000000 		.4byte	.LVL196
 10943 16f2 38000000 		.4byte	.LVL197
 10944 16f6 0100     		.2byte	0x1
 10945 16f8 50       		.byte	0x50
 10946 16f9 38000000 		.4byte	.LVL197
 10947 16fd 3B000000 		.4byte	.LVL198-1
 10948 1701 0400     		.2byte	0x4
 10949 1703 70       		.byte	0x70
 10950 1704 8C7E     		.sleb128 -244
 10951 1706 9F       		.byte	0x9f
 10952 1707 3C000000 		.4byte	.LVL198
 10953 170b 4A000000 		.4byte	.LVL199
 10954 170f 0100     		.2byte	0x1
 10955 1711 50       		.byte	0x50
 10956 1712 50000000 		.4byte	.LVL200
 10957 1716 54000000 		.4byte	.LFE13
 10958 171a 0100     		.2byte	0x1
 10959 171c 50       		.byte	0x50
 10960 171d 00000000 		.4byte	0
 10961 1721 00000000 		.4byte	0
 10962              	.LLST47:
 10963 1725 00000000 		.4byte	.LVL202
 10964 1729 1A000000 		.4byte	.LVL205
 10965 172d 0100     		.2byte	0x1
 10966 172f 50       		.byte	0x50
 10967 1730 1A000000 		.4byte	.LVL205
 10968 1734 52000000 		.4byte	.LFE14
 10969 1738 0400     		.2byte	0x4
 10970 173a F3       		.byte	0xf3
 10971 173b 01       		.uleb128 0x1
 10972 173c 50       		.byte	0x50
 10973 173d 9F       		.byte	0x9f
 10974 173e 00000000 		.4byte	0
 10975 1742 00000000 		.4byte	0
 10976              	.LLST48:
 10977 1746 00000000 		.4byte	.LVL202
 10978 174a 16000000 		.4byte	.LVL204
 10979 174e 0100     		.2byte	0x1
ARM GAS  C:\Users\simon\AppData\Local\Temp\cc07ySAM.s 			page 224


 10980 1750 51       		.byte	0x51
 10981 1751 16000000 		.4byte	.LVL204
 10982 1755 50000000 		.4byte	.LVL212
 10983 1759 0100     		.2byte	0x1
 10984 175b 55       		.byte	0x55
 10985 175c 50000000 		.4byte	.LVL212
 10986 1760 52000000 		.4byte	.LFE14
 10987 1764 0400     		.2byte	0x4
 10988 1766 F3       		.byte	0xf3
 10989 1767 01       		.uleb128 0x1
 10990 1768 51       		.byte	0x51
 10991 1769 9F       		.byte	0x9f
 10992 176a 00000000 		.4byte	0
 10993 176e 00000000 		.4byte	0
 10994              	.LLST49:
 10995 1772 00000000 		.4byte	.LVL202
 10996 1776 0C000000 		.4byte	.LVL203
 10997 177a 0100     		.2byte	0x1
 10998 177c 52       		.byte	0x52
 10999 177d 0C000000 		.4byte	.LVL203
 11000 1781 50000000 		.4byte	.LVL211
 11001 1785 0100     		.2byte	0x1
 11002 1787 54       		.byte	0x54
 11003 1788 50000000 		.4byte	.LVL211
 11004 178c 52000000 		.4byte	.LFE14
 11005 1790 0400     		.2byte	0x4
 11006 1792 F3       		.byte	0xf3
 11007 1793 01       		.uleb128 0x1
 11008 1794 52       		.byte	0x52
 11009 1795 9F       		.byte	0x9f
 11010 1796 00000000 		.4byte	0
 11011 179a 00000000 		.4byte	0
 11012              	.LLST50:
 11013 179e 1E000000 		.4byte	.LVL206
 11014 17a2 2C000000 		.4byte	.LVL207
 11015 17a6 0100     		.2byte	0x1
 11016 17a8 50       		.byte	0x50
 11017 17a9 4E000000 		.4byte	.LVL210
 11018 17ad 52000000 		.4byte	.LFE14
 11019 17b1 0100     		.2byte	0x1
 11020 17b3 50       		.byte	0x50
 11021 17b4 00000000 		.4byte	0
 11022 17b8 00000000 		.4byte	0
 11023              	.LLST51:
 11024 17bc 00000000 		.4byte	.LVL213
 11025 17c0 10000000 		.4byte	.LVL216
 11026 17c4 0100     		.2byte	0x1
 11027 17c6 50       		.byte	0x50
 11028 17c7 10000000 		.4byte	.LVL216
 11029 17cb 16000000 		.4byte	.LVL218
 11030 17cf 0400     		.2byte	0x4
 11031 17d1 F3       		.byte	0xf3
 11032 17d2 01       		.uleb128 0x1
 11033 17d3 50       		.byte	0x50
 11034 17d4 9F       		.byte	0x9f
 11035 17d5 16000000 		.4byte	.LVL218
 11036 17d9 18000000 		.4byte	.LVL219
ARM GAS  C:\Users\simon\AppData\Local\Temp\cc07ySAM.s 			page 225


 11037 17dd 0100     		.2byte	0x1
 11038 17df 50       		.byte	0x50
 11039 17e0 18000000 		.4byte	.LVL219
 11040 17e4 28000000 		.4byte	.LFE12
 11041 17e8 0400     		.2byte	0x4
 11042 17ea F3       		.byte	0xf3
 11043 17eb 01       		.uleb128 0x1
 11044 17ec 50       		.byte	0x50
 11045 17ed 9F       		.byte	0x9f
 11046 17ee 00000000 		.4byte	0
 11047 17f2 00000000 		.4byte	0
 11048              	.LLST52:
 11049 17f6 00000000 		.4byte	.LVL213
 11050 17fa 0E000000 		.4byte	.LVL215
 11051 17fe 0100     		.2byte	0x1
 11052 1800 51       		.byte	0x51
 11053 1801 0E000000 		.4byte	.LVL215
 11054 1805 16000000 		.4byte	.LVL218
 11055 1809 0100     		.2byte	0x1
 11056 180b 54       		.byte	0x54
 11057 180c 16000000 		.4byte	.LVL218
 11058 1810 18000000 		.4byte	.LVL219
 11059 1814 0100     		.2byte	0x1
 11060 1816 51       		.byte	0x51
 11061 1817 18000000 		.4byte	.LVL219
 11062 181b 26000000 		.4byte	.LVL222
 11063 181f 0100     		.2byte	0x1
 11064 1821 54       		.byte	0x54
 11065 1822 26000000 		.4byte	.LVL222
 11066 1826 28000000 		.4byte	.LFE12
 11067 182a 0400     		.2byte	0x4
 11068 182c F3       		.byte	0xf3
 11069 182d 01       		.uleb128 0x1
 11070 182e 51       		.byte	0x51
 11071 182f 9F       		.byte	0x9f
 11072 1830 00000000 		.4byte	0
 11073 1834 00000000 		.4byte	0
 11074              	.LLST53:
 11075 1838 00000000 		.4byte	.LVL213
 11076 183c 13000000 		.4byte	.LVL217-1
 11077 1840 0100     		.2byte	0x1
 11078 1842 52       		.byte	0x52
 11079 1843 13000000 		.4byte	.LVL217-1
 11080 1847 16000000 		.4byte	.LVL218
 11081 184b 0100     		.2byte	0x1
 11082 184d 55       		.byte	0x55
 11083 184e 16000000 		.4byte	.LVL218
 11084 1852 18000000 		.4byte	.LVL219
 11085 1856 0100     		.2byte	0x1
 11086 1858 52       		.byte	0x52
 11087 1859 18000000 		.4byte	.LVL219
 11088 185d 26000000 		.4byte	.LVL223
 11089 1861 0100     		.2byte	0x1
 11090 1863 55       		.byte	0x55
 11091 1864 26000000 		.4byte	.LVL223
 11092 1868 28000000 		.4byte	.LFE12
 11093 186c 0400     		.2byte	0x4
ARM GAS  C:\Users\simon\AppData\Local\Temp\cc07ySAM.s 			page 226


 11094 186e F3       		.byte	0xf3
 11095 186f 01       		.uleb128 0x1
 11096 1870 52       		.byte	0x52
 11097 1871 9F       		.byte	0x9f
 11098 1872 00000000 		.4byte	0
 11099 1876 00000000 		.4byte	0
 11100              	.LLST54:
 11101 187a 08000000 		.4byte	.LVL214
 11102 187e 14000000 		.4byte	.LVL217
 11103 1882 0200     		.2byte	0x2
 11104 1884 31       		.byte	0x31
 11105 1885 9F       		.byte	0x9f
 11106 1886 14000000 		.4byte	.LVL217
 11107 188a 16000000 		.4byte	.LVL218
 11108 188e 0100     		.2byte	0x1
 11109 1890 50       		.byte	0x50
 11110 1891 16000000 		.4byte	.LVL218
 11111 1895 18000000 		.4byte	.LVL219
 11112 1899 0200     		.2byte	0x2
 11113 189b 31       		.byte	0x31
 11114 189c 9F       		.byte	0x9f
 11115 189d 18000000 		.4byte	.LVL219
 11116 18a1 22000000 		.4byte	.LVL220
 11117 18a5 0100     		.2byte	0x1
 11118 18a7 50       		.byte	0x50
 11119 18a8 26000000 		.4byte	.LVL221
 11120 18ac 28000000 		.4byte	.LFE12
 11121 18b0 0100     		.2byte	0x1
 11122 18b2 50       		.byte	0x50
 11123 18b3 00000000 		.4byte	0
 11124 18b7 00000000 		.4byte	0
 11125              	.LLST55:
 11126 18bb 00000000 		.4byte	.LVL224
 11127 18bf 1A000000 		.4byte	.LVL227
 11128 18c3 0100     		.2byte	0x1
 11129 18c5 50       		.byte	0x50
 11130 18c6 1A000000 		.4byte	.LVL227
 11131 18ca 52000000 		.4byte	.LFE15
 11132 18ce 0400     		.2byte	0x4
 11133 18d0 F3       		.byte	0xf3
 11134 18d1 01       		.uleb128 0x1
 11135 18d2 50       		.byte	0x50
 11136 18d3 9F       		.byte	0x9f
 11137 18d4 00000000 		.4byte	0
 11138 18d8 00000000 		.4byte	0
 11139              	.LLST56:
 11140 18dc 00000000 		.4byte	.LVL224
 11141 18e0 16000000 		.4byte	.LVL226
 11142 18e4 0100     		.2byte	0x1
 11143 18e6 51       		.byte	0x51
 11144 18e7 16000000 		.4byte	.LVL226
 11145 18eb 50000000 		.4byte	.LVL234
 11146 18ef 0100     		.2byte	0x1
 11147 18f1 55       		.byte	0x55
 11148 18f2 50000000 		.4byte	.LVL234
 11149 18f6 52000000 		.4byte	.LFE15
 11150 18fa 0400     		.2byte	0x4
ARM GAS  C:\Users\simon\AppData\Local\Temp\cc07ySAM.s 			page 227


 11151 18fc F3       		.byte	0xf3
 11152 18fd 01       		.uleb128 0x1
 11153 18fe 51       		.byte	0x51
 11154 18ff 9F       		.byte	0x9f
 11155 1900 00000000 		.4byte	0
 11156 1904 00000000 		.4byte	0
 11157              	.LLST57:
 11158 1908 00000000 		.4byte	.LVL224
 11159 190c 0C000000 		.4byte	.LVL225
 11160 1910 0100     		.2byte	0x1
 11161 1912 52       		.byte	0x52
 11162 1913 0C000000 		.4byte	.LVL225
 11163 1917 50000000 		.4byte	.LVL233
 11164 191b 0100     		.2byte	0x1
 11165 191d 54       		.byte	0x54
 11166 191e 50000000 		.4byte	.LVL233
 11167 1922 52000000 		.4byte	.LFE15
 11168 1926 0400     		.2byte	0x4
 11169 1928 F3       		.byte	0xf3
 11170 1929 01       		.uleb128 0x1
 11171 192a 52       		.byte	0x52
 11172 192b 9F       		.byte	0x9f
 11173 192c 00000000 		.4byte	0
 11174 1930 00000000 		.4byte	0
 11175              	.LLST58:
 11176 1934 1E000000 		.4byte	.LVL228
 11177 1938 2C000000 		.4byte	.LVL229
 11178 193c 0100     		.2byte	0x1
 11179 193e 50       		.byte	0x50
 11180 193f 4E000000 		.4byte	.LVL232
 11181 1943 52000000 		.4byte	.LFE15
 11182 1947 0100     		.2byte	0x1
 11183 1949 50       		.byte	0x50
 11184 194a 00000000 		.4byte	0
 11185 194e 00000000 		.4byte	0
 11186              	.LLST59:
 11187 1952 00000000 		.4byte	.LVL235
 11188 1956 0C000000 		.4byte	.LVL237
 11189 195a 0100     		.2byte	0x1
 11190 195c 50       		.byte	0x50
 11191 195d 0C000000 		.4byte	.LVL237
 11192 1961 0F000000 		.4byte	.LVL238-1
 11193 1965 0100     		.2byte	0x1
 11194 1967 51       		.byte	0x51
 11195 1968 0F000000 		.4byte	.LVL238-1
 11196 196c 1E000000 		.4byte	.LVL241
 11197 1970 0100     		.2byte	0x1
 11198 1972 54       		.byte	0x54
 11199 1973 1E000000 		.4byte	.LVL241
 11200 1977 20000000 		.4byte	.LFE23
 11201 197b 0400     		.2byte	0x4
 11202 197d F3       		.byte	0xf3
 11203 197e 01       		.uleb128 0x1
 11204 197f 50       		.byte	0x50
 11205 1980 9F       		.byte	0x9f
 11206 1981 00000000 		.4byte	0
 11207 1985 00000000 		.4byte	0
ARM GAS  C:\Users\simon\AppData\Local\Temp\cc07ySAM.s 			page 228


 11208              	.LLST60:
 11209 1989 00000000 		.4byte	.LVL235
 11210 198d 0A000000 		.4byte	.LVL236
 11211 1991 0100     		.2byte	0x1
 11212 1993 51       		.byte	0x51
 11213 1994 0A000000 		.4byte	.LVL236
 11214 1998 0F000000 		.4byte	.LVL238-1
 11215 199c 0100     		.2byte	0x1
 11216 199e 52       		.byte	0x52
 11217 199f 0F000000 		.4byte	.LVL238-1
 11218 19a3 1E000000 		.4byte	.LVL242
 11219 19a7 0100     		.2byte	0x1
 11220 19a9 55       		.byte	0x55
 11221 19aa 1E000000 		.4byte	.LVL242
 11222 19ae 20000000 		.4byte	.LFE23
 11223 19b2 0400     		.2byte	0x4
 11224 19b4 F3       		.byte	0xf3
 11225 19b5 01       		.uleb128 0x1
 11226 19b6 51       		.byte	0x51
 11227 19b7 9F       		.byte	0x9f
 11228 19b8 00000000 		.4byte	0
 11229 19bc 00000000 		.4byte	0
 11230              	.LLST61:
 11231 19c0 10000000 		.4byte	.LVL238
 11232 19c4 1A000000 		.4byte	.LVL239
 11233 19c8 0100     		.2byte	0x1
 11234 19ca 50       		.byte	0x50
 11235 19cb 1A000000 		.4byte	.LVL239
 11236 19cf 1D000000 		.4byte	.LVL240-1
 11237 19d3 0300     		.2byte	0x3
 11238 19d5 70       		.byte	0x70
 11239 19d6 61       		.sleb128 -31
 11240 19d7 9F       		.byte	0x9f
 11241 19d8 1E000000 		.4byte	.LVL240
 11242 19dc 20000000 		.4byte	.LFE23
 11243 19e0 0100     		.2byte	0x1
 11244 19e2 50       		.byte	0x50
 11245 19e3 00000000 		.4byte	0
 11246 19e7 00000000 		.4byte	0
 11247              	.LLST62:
 11248 19eb 00000000 		.4byte	.LVL243
 11249 19ef 18000000 		.4byte	.LVL245
 11250 19f3 0100     		.2byte	0x1
 11251 19f5 50       		.byte	0x50
 11252 19f6 18000000 		.4byte	.LVL245
 11253 19fa 40000000 		.4byte	.LFE21
 11254 19fe 0400     		.2byte	0x4
 11255 1a00 F3       		.byte	0xf3
 11256 1a01 01       		.uleb128 0x1
 11257 1a02 50       		.byte	0x50
 11258 1a03 9F       		.byte	0x9f
 11259 1a04 00000000 		.4byte	0
 11260 1a08 00000000 		.4byte	0
 11261              	.LLST63:
 11262 1a0c 00000000 		.4byte	.LVL243
 11263 1a10 14000000 		.4byte	.LVL244
 11264 1a14 0100     		.2byte	0x1
ARM GAS  C:\Users\simon\AppData\Local\Temp\cc07ySAM.s 			page 229


 11265 1a16 51       		.byte	0x51
 11266 1a17 14000000 		.4byte	.LVL244
 11267 1a1b 1B000000 		.4byte	.LVL246-1
 11268 1a1f 0100     		.2byte	0x1
 11269 1a21 53       		.byte	0x53
 11270 1a22 1B000000 		.4byte	.LVL246-1
 11271 1a26 3E000000 		.4byte	.LVL249
 11272 1a2a 0100     		.2byte	0x1
 11273 1a2c 55       		.byte	0x55
 11274 1a2d 3E000000 		.4byte	.LVL249
 11275 1a31 40000000 		.4byte	.LFE21
 11276 1a35 0400     		.2byte	0x4
 11277 1a37 F3       		.byte	0xf3
 11278 1a38 01       		.uleb128 0x1
 11279 1a39 51       		.byte	0x51
 11280 1a3a 9F       		.byte	0x9f
 11281 1a3b 00000000 		.4byte	0
 11282 1a3f 00000000 		.4byte	0
 11283              	.LLST64:
 11284 1a43 1C000000 		.4byte	.LVL246
 11285 1a47 36000000 		.4byte	.LVL247
 11286 1a4b 0100     		.2byte	0x1
 11287 1a4d 50       		.byte	0x50
 11288 1a4e 3C000000 		.4byte	.LVL248
 11289 1a52 40000000 		.4byte	.LFE21
 11290 1a56 0100     		.2byte	0x1
 11291 1a58 50       		.byte	0x50
 11292 1a59 00000000 		.4byte	0
 11293 1a5d 00000000 		.4byte	0
 11294              	.LLST65:
 11295 1a61 00000000 		.4byte	.LVL250
 11296 1a65 09000000 		.4byte	.LVL251-1
 11297 1a69 0100     		.2byte	0x1
 11298 1a6b 50       		.byte	0x50
 11299 1a6c 09000000 		.4byte	.LVL251-1
 11300 1a70 2C000000 		.4byte	.LVL259
 11301 1a74 0100     		.2byte	0x1
 11302 1a76 55       		.byte	0x55
 11303 1a77 2C000000 		.4byte	.LVL259
 11304 1a7b 2E000000 		.4byte	.LFE4
 11305 1a7f 0400     		.2byte	0x4
 11306 1a81 F3       		.byte	0xf3
 11307 1a82 01       		.uleb128 0x1
 11308 1a83 50       		.byte	0x50
 11309 1a84 9F       		.byte	0x9f
 11310 1a85 00000000 		.4byte	0
 11311 1a89 00000000 		.4byte	0
 11312              	.LLST66:
 11313 1a8d 0C000000 		.4byte	.LVL252
 11314 1a91 16000000 		.4byte	.LVL253
 11315 1a95 0100     		.2byte	0x1
 11316 1a97 50       		.byte	0x50
 11317 1a98 16000000 		.4byte	.LVL253
 11318 1a9c 1C000000 		.4byte	.LVL255
 11319 1aa0 0100     		.2byte	0x1
 11320 1aa2 54       		.byte	0x54
 11321 1aa3 1C000000 		.4byte	.LVL255
ARM GAS  C:\Users\simon\AppData\Local\Temp\cc07ySAM.s 			page 230


 11322 1aa7 24000000 		.4byte	.LVL256
 11323 1aab 0100     		.2byte	0x1
 11324 1aad 50       		.byte	0x50
 11325 1aae 24000000 		.4byte	.LVL256
 11326 1ab2 2C000000 		.4byte	.LVL258
 11327 1ab6 0100     		.2byte	0x1
 11328 1ab8 54       		.byte	0x54
 11329 1ab9 00000000 		.4byte	0
 11330 1abd 00000000 		.4byte	0
 11331              	.LLST67:
 11332 1ac1 00000000 		.4byte	.LVL260
 11333 1ac5 08000000 		.4byte	.LVL261
 11334 1ac9 0100     		.2byte	0x1
 11335 1acb 50       		.byte	0x50
 11336 1acc 08000000 		.4byte	.LVL261
 11337 1ad0 24000000 		.4byte	.LVL266
 11338 1ad4 0100     		.2byte	0x1
 11339 1ad6 54       		.byte	0x54
 11340 1ad7 24000000 		.4byte	.LVL266
 11341 1adb 26000000 		.4byte	.LFE6
 11342 1adf 0400     		.2byte	0x4
 11343 1ae1 F3       		.byte	0xf3
 11344 1ae2 01       		.uleb128 0x1
 11345 1ae3 50       		.byte	0x50
 11346 1ae4 9F       		.byte	0x9f
 11347 1ae5 00000000 		.4byte	0
 11348 1ae9 00000000 		.4byte	0
 11349              	.LLST68:
 11350 1aed 00000000 		.4byte	.LVL260
 11351 1af1 0B000000 		.4byte	.LVL262-1
 11352 1af5 0100     		.2byte	0x1
 11353 1af7 51       		.byte	0x51
 11354 1af8 0B000000 		.4byte	.LVL262-1
 11355 1afc 24000000 		.4byte	.LVL267
 11356 1b00 0100     		.2byte	0x1
 11357 1b02 55       		.byte	0x55
 11358 1b03 24000000 		.4byte	.LVL267
 11359 1b07 26000000 		.4byte	.LFE6
 11360 1b0b 0400     		.2byte	0x4
 11361 1b0d F3       		.byte	0xf3
 11362 1b0e 01       		.uleb128 0x1
 11363 1b0f 51       		.byte	0x51
 11364 1b10 9F       		.byte	0x9f
 11365 1b11 00000000 		.4byte	0
 11366 1b15 00000000 		.4byte	0
 11367              	.LLST69:
 11368 1b19 0C000000 		.4byte	.LVL262
 11369 1b1d 18000000 		.4byte	.LVL263
 11370 1b21 0100     		.2byte	0x1
 11371 1b23 50       		.byte	0x50
 11372 1b24 18000000 		.4byte	.LVL263
 11373 1b28 1B000000 		.4byte	.LVL264-1
 11374 1b2c 0400     		.2byte	0x4
 11375 1b2e 70       		.byte	0x70
 11376 1b2f 8C7E     		.sleb128 -244
 11377 1b31 9F       		.byte	0x9f
 11378 1b32 1C000000 		.4byte	.LVL264
ARM GAS  C:\Users\simon\AppData\Local\Temp\cc07ySAM.s 			page 231


 11379 1b36 26000000 		.4byte	.LFE6
 11380 1b3a 0100     		.2byte	0x1
 11381 1b3c 50       		.byte	0x50
 11382 1b3d 00000000 		.4byte	0
 11383 1b41 00000000 		.4byte	0
 11384              	.LLST70:
 11385 1b45 00000000 		.4byte	.LVL268
 11386 1b49 1B000000 		.4byte	.LVL270-1
 11387 1b4d 0100     		.2byte	0x1
 11388 1b4f 50       		.byte	0x50
 11389 1b50 1B000000 		.4byte	.LVL270-1
 11390 1b54 74000000 		.4byte	.LVL281
 11391 1b58 0100     		.2byte	0x1
 11392 1b5a 55       		.byte	0x55
 11393 1b5b 74000000 		.4byte	.LVL281
 11394 1b5f 76000000 		.4byte	.LFE7
 11395 1b63 0400     		.2byte	0x4
 11396 1b65 F3       		.byte	0xf3
 11397 1b66 01       		.uleb128 0x1
 11398 1b67 50       		.byte	0x50
 11399 1b68 9F       		.byte	0x9f
 11400 1b69 00000000 		.4byte	0
 11401 1b6d 00000000 		.4byte	0
 11402              	.LLST71:
 11403 1b71 1C000000 		.4byte	.LVL270
 11404 1b75 2A000000 		.4byte	.LVL271
 11405 1b79 0100     		.2byte	0x1
 11406 1b7b 50       		.byte	0x50
 11407 1b7c 30000000 		.4byte	.LVL272
 11408 1b80 3A000000 		.4byte	.LVL274
 11409 1b84 0100     		.2byte	0x1
 11410 1b86 50       		.byte	0x50
 11411 1b87 4E000000 		.4byte	.LVL276
 11412 1b8b 70000000 		.4byte	.LVL279
 11413 1b8f 0100     		.2byte	0x1
 11414 1b91 50       		.byte	0x50
 11415 1b92 72000000 		.4byte	.LVL280
 11416 1b96 76000000 		.4byte	.LFE7
 11417 1b9a 0100     		.2byte	0x1
 11418 1b9c 50       		.byte	0x50
 11419 1b9d 00000000 		.4byte	0
 11420 1ba1 00000000 		.4byte	0
 11421              	.LLST72:
 11422 1ba5 12000000 		.4byte	.LVL269
 11423 1ba9 38000000 		.4byte	.LVL273
 11424 1bad 0200     		.2byte	0x2
 11425 1baf 35       		.byte	0x35
 11426 1bb0 9F       		.byte	0x9f
 11427 1bb1 38000000 		.4byte	.LVL273
 11428 1bb5 3A000000 		.4byte	.LVL274
 11429 1bb9 0100     		.2byte	0x1
 11430 1bbb 53       		.byte	0x53
 11431 1bbc 3A000000 		.4byte	.LVL274
 11432 1bc0 56000000 		.4byte	.LVL277
 11433 1bc4 0100     		.2byte	0x1
 11434 1bc6 54       		.byte	0x54
 11435 1bc7 56000000 		.4byte	.LVL277
ARM GAS  C:\Users\simon\AppData\Local\Temp\cc07ySAM.s 			page 232


 11436 1bcb 64000000 		.4byte	.LVL278
 11437 1bcf 0100     		.2byte	0x1
 11438 1bd1 53       		.byte	0x53
 11439 1bd2 00000000 		.4byte	0
 11440 1bd6 00000000 		.4byte	0
 11441              	.LLST73:
 11442 1bda 00000000 		.4byte	.LVL282
 11443 1bde 0F000000 		.4byte	.LVL284-1
 11444 1be2 0100     		.2byte	0x1
 11445 1be4 50       		.byte	0x50
 11446 1be5 0F000000 		.4byte	.LVL284-1
 11447 1be9 66000000 		.4byte	.LVL305
 11448 1bed 0100     		.2byte	0x1
 11449 1bef 56       		.byte	0x56
 11450 1bf0 66000000 		.4byte	.LVL305
 11451 1bf4 68000000 		.4byte	.LFE0
 11452 1bf8 0400     		.2byte	0x4
 11453 1bfa F3       		.byte	0xf3
 11454 1bfb 01       		.uleb128 0x1
 11455 1bfc 50       		.byte	0x50
 11456 1bfd 9F       		.byte	0x9f
 11457 1bfe 00000000 		.4byte	0
 11458 1c02 00000000 		.4byte	0
 11459              	.LLST74:
 11460 1c06 12000000 		.4byte	.LVL285
 11461 1c0a 16000000 		.4byte	.LVL286
 11462 1c0e 0100     		.2byte	0x1
 11463 1c10 50       		.byte	0x50
 11464 1c11 16000000 		.4byte	.LVL286
 11465 1c15 26000000 		.4byte	.LVL288
 11466 1c19 0100     		.2byte	0x1
 11467 1c1b 54       		.byte	0x54
 11468 1c1c 26000000 		.4byte	.LVL288
 11469 1c20 36000000 		.4byte	.LVL289
 11470 1c24 0100     		.2byte	0x1
 11471 1c26 50       		.byte	0x50
 11472 1c27 36000000 		.4byte	.LVL289
 11473 1c2b 3C000000 		.4byte	.LVL291
 11474 1c2f 0100     		.2byte	0x1
 11475 1c31 54       		.byte	0x54
 11476 1c32 3C000000 		.4byte	.LVL291
 11477 1c36 40000000 		.4byte	.LVL292
 11478 1c3a 0100     		.2byte	0x1
 11479 1c3c 50       		.byte	0x50
 11480 1c3d 40000000 		.4byte	.LVL292
 11481 1c41 46000000 		.4byte	.LVL294
 11482 1c45 0100     		.2byte	0x1
 11483 1c47 54       		.byte	0x54
 11484 1c48 46000000 		.4byte	.LVL294
 11485 1c4c 4A000000 		.4byte	.LVL295
 11486 1c50 0100     		.2byte	0x1
 11487 1c52 50       		.byte	0x50
 11488 1c53 4A000000 		.4byte	.LVL295
 11489 1c57 54000000 		.4byte	.LVL299
 11490 1c5b 0100     		.2byte	0x1
 11491 1c5d 54       		.byte	0x54
 11492 1c5e 54000000 		.4byte	.LVL299
ARM GAS  C:\Users\simon\AppData\Local\Temp\cc07ySAM.s 			page 233


 11493 1c62 56000000 		.4byte	.LVL300
 11494 1c66 0100     		.2byte	0x1
 11495 1c68 50       		.byte	0x50
 11496 1c69 56000000 		.4byte	.LVL300
 11497 1c6d 60000000 		.4byte	.LVL302
 11498 1c71 0100     		.2byte	0x1
 11499 1c73 54       		.byte	0x54
 11500 1c74 62000000 		.4byte	.LVL303
 11501 1c78 66000000 		.4byte	.LVL304
 11502 1c7c 0100     		.2byte	0x1
 11503 1c7e 54       		.byte	0x54
 11504 1c7f 00000000 		.4byte	0
 11505 1c83 00000000 		.4byte	0
 11506              	.LLST75:
 11507 1c87 06000000 		.4byte	.LVL283
 11508 1c8b 16000000 		.4byte	.LVL286
 11509 1c8f 0200     		.2byte	0x2
 11510 1c91 35       		.byte	0x35
 11511 1c92 9F       		.byte	0x9f
 11512 1c93 16000000 		.4byte	.LVL286
 11513 1c97 50000000 		.4byte	.LVL297
 11514 1c9b 0100     		.2byte	0x1
 11515 1c9d 55       		.byte	0x55
 11516 1c9e 52000000 		.4byte	.LVL298
 11517 1ca2 54000000 		.4byte	.LVL299
 11518 1ca6 0100     		.2byte	0x1
 11519 1ca8 55       		.byte	0x55
 11520 1ca9 54000000 		.4byte	.LVL299
 11521 1cad 56000000 		.4byte	.LVL300
 11522 1cb1 0200     		.2byte	0x2
 11523 1cb3 35       		.byte	0x35
 11524 1cb4 9F       		.byte	0x9f
 11525 1cb5 56000000 		.4byte	.LVL300
 11526 1cb9 62000000 		.4byte	.LVL303
 11527 1cbd 0100     		.2byte	0x1
 11528 1cbf 55       		.byte	0x55
 11529 1cc0 00000000 		.4byte	0
 11530 1cc4 00000000 		.4byte	0
 11531              	.LLST76:
 11532 1cc8 00000000 		.4byte	.LVL306
 11533 1ccc 0E000000 		.4byte	.LVL307
 11534 1cd0 0100     		.2byte	0x1
 11535 1cd2 50       		.byte	0x50
 11536 1cd3 0E000000 		.4byte	.LVL307
 11537 1cd7 11000000 		.4byte	.LVL308-1
 11538 1cdb 0100     		.2byte	0x1
 11539 1cdd 53       		.byte	0x53
 11540 1cde 11000000 		.4byte	.LVL308-1
 11541 1ce2 32000000 		.4byte	.LVL314
 11542 1ce6 0100     		.2byte	0x1
 11543 1ce8 54       		.byte	0x54
 11544 1ce9 32000000 		.4byte	.LVL314
 11545 1ced 34000000 		.4byte	.LFE22
 11546 1cf1 0400     		.2byte	0x4
 11547 1cf3 F3       		.byte	0xf3
 11548 1cf4 01       		.uleb128 0x1
 11549 1cf5 50       		.byte	0x50
ARM GAS  C:\Users\simon\AppData\Local\Temp\cc07ySAM.s 			page 234


 11550 1cf6 9F       		.byte	0x9f
 11551 1cf7 00000000 		.4byte	0
 11552 1cfb 00000000 		.4byte	0
 11553              	.LLST77:
 11554 1cff 12000000 		.4byte	.LVL308
 11555 1d03 1A000000 		.4byte	.LVL309
 11556 1d07 0100     		.2byte	0x1
 11557 1d09 50       		.byte	0x50
 11558 1d0a 24000000 		.4byte	.LVL311
 11559 1d0e 2C000000 		.4byte	.LVL312
 11560 1d12 0100     		.2byte	0x1
 11561 1d14 50       		.byte	0x50
 11562 1d15 30000000 		.4byte	.LVL313
 11563 1d19 34000000 		.4byte	.LFE22
 11564 1d1d 0100     		.2byte	0x1
 11565 1d1f 50       		.byte	0x50
 11566 1d20 00000000 		.4byte	0
 11567 1d24 00000000 		.4byte	0
 11568              	.LLST78:
 11569 1d28 00000000 		.4byte	.LVL315
 11570 1d2c 0A000000 		.4byte	.LVL316
 11571 1d30 0100     		.2byte	0x1
 11572 1d32 50       		.byte	0x50
 11573 1d33 0A000000 		.4byte	.LVL316
 11574 1d37 74000000 		.4byte	.LFE3
 11575 1d3b 0400     		.2byte	0x4
 11576 1d3d F3       		.byte	0xf3
 11577 1d3e 01       		.uleb128 0x1
 11578 1d3f 50       		.byte	0x50
 11579 1d40 9F       		.byte	0x9f
 11580 1d41 00000000 		.4byte	0
 11581 1d45 00000000 		.4byte	0
 11582              	.LLST79:
 11583 1d49 00000000 		.4byte	.LVL315
 11584 1d4d 0D000000 		.4byte	.LVL317-1
 11585 1d51 0100     		.2byte	0x1
 11586 1d53 51       		.byte	0x51
 11587 1d54 0D000000 		.4byte	.LVL317-1
 11588 1d58 72000000 		.4byte	.LVL332
 11589 1d5c 0100     		.2byte	0x1
 11590 1d5e 55       		.byte	0x55
 11591 1d5f 72000000 		.4byte	.LVL332
 11592 1d63 74000000 		.4byte	.LFE3
 11593 1d67 0400     		.2byte	0x4
 11594 1d69 F3       		.byte	0xf3
 11595 1d6a 01       		.uleb128 0x1
 11596 1d6b 51       		.byte	0x51
 11597 1d6c 9F       		.byte	0x9f
 11598 1d6d 00000000 		.4byte	0
 11599 1d71 00000000 		.4byte	0
 11600              	.LLST80:
 11601 1d75 10000000 		.4byte	.LVL318
 11602 1d79 18000000 		.4byte	.LVL319
 11603 1d7d 0100     		.2byte	0x1
 11604 1d7f 50       		.byte	0x50
 11605 1d80 18000000 		.4byte	.LVL319
 11606 1d84 1E000000 		.4byte	.LVL321
ARM GAS  C:\Users\simon\AppData\Local\Temp\cc07ySAM.s 			page 235


 11607 1d88 0100     		.2byte	0x1
 11608 1d8a 54       		.byte	0x54
 11609 1d8b 1E000000 		.4byte	.LVL321
 11610 1d8f 2C000000 		.4byte	.LVL322
 11611 1d93 0100     		.2byte	0x1
 11612 1d95 50       		.byte	0x50
 11613 1d96 2C000000 		.4byte	.LVL322
 11614 1d9a 72000000 		.4byte	.LVL331
 11615 1d9e 0100     		.2byte	0x1
 11616 1da0 54       		.byte	0x54
 11617 1da1 00000000 		.4byte	0
 11618 1da5 00000000 		.4byte	0
 11619              	.LLST81:
 11620 1da9 00000000 		.4byte	.LVL333
 11621 1dad 0A000000 		.4byte	.LVL334
 11622 1db1 0100     		.2byte	0x1
 11623 1db3 50       		.byte	0x50
 11624 1db4 0A000000 		.4byte	.LVL334
 11625 1db8 40000000 		.4byte	.LFE5
 11626 1dbc 0400     		.2byte	0x4
 11627 1dbe F3       		.byte	0xf3
 11628 1dbf 01       		.uleb128 0x1
 11629 1dc0 50       		.byte	0x50
 11630 1dc1 9F       		.byte	0x9f
 11631 1dc2 00000000 		.4byte	0
 11632 1dc6 00000000 		.4byte	0
 11633              	.LLST82:
 11634 1dca 00000000 		.4byte	.LVL333
 11635 1dce 0D000000 		.4byte	.LVL335-1
 11636 1dd2 0100     		.2byte	0x1
 11637 1dd4 51       		.byte	0x51
 11638 1dd5 0D000000 		.4byte	.LVL335-1
 11639 1dd9 3E000000 		.4byte	.LVL342
 11640 1ddd 0100     		.2byte	0x1
 11641 1ddf 54       		.byte	0x54
 11642 1de0 3E000000 		.4byte	.LVL342
 11643 1de4 40000000 		.4byte	.LFE5
 11644 1de8 0400     		.2byte	0x4
 11645 1dea F3       		.byte	0xf3
 11646 1deb 01       		.uleb128 0x1
 11647 1dec 51       		.byte	0x51
 11648 1ded 9F       		.byte	0x9f
 11649 1dee 00000000 		.4byte	0
 11650 1df2 00000000 		.4byte	0
 11651              	.LLST83:
 11652 1df6 0E000000 		.4byte	.LVL335
 11653 1dfa 18000000 		.4byte	.LVL336
 11654 1dfe 0100     		.2byte	0x1
 11655 1e00 50       		.byte	0x50
 11656 1e01 1C000000 		.4byte	.LVL337
 11657 1e05 2C000000 		.4byte	.LVL338
 11658 1e09 0100     		.2byte	0x1
 11659 1e0b 50       		.byte	0x50
 11660 1e0c 30000000 		.4byte	.LVL339
 11661 1e10 38000000 		.4byte	.LVL340
 11662 1e14 0100     		.2byte	0x1
 11663 1e16 50       		.byte	0x50
ARM GAS  C:\Users\simon\AppData\Local\Temp\cc07ySAM.s 			page 236


 11664 1e17 3C000000 		.4byte	.LVL341
 11665 1e1b 40000000 		.4byte	.LFE5
 11666 1e1f 0100     		.2byte	0x1
 11667 1e21 50       		.byte	0x50
 11668 1e22 00000000 		.4byte	0
 11669 1e26 00000000 		.4byte	0
 11670              	.LLST84:
 11671 1e2a 0E000000 		.4byte	.LVL346
 11672 1e2e 1E000000 		.4byte	.LVL352
 11673 1e32 0100     		.2byte	0x1
 11674 1e34 54       		.byte	0x54
 11675 1e35 20000000 		.4byte	.LVL353
 11676 1e39 30000000 		.4byte	.LVL360
 11677 1e3d 0100     		.2byte	0x1
 11678 1e3f 54       		.byte	0x54
 11679 1e40 00000000 		.4byte	0
 11680 1e44 00000000 		.4byte	0
 11681              	.LLST85:
 11682 1e48 0A000000 		.4byte	.LVL345
 11683 1e4c 1A000000 		.4byte	.LVL350
 11684 1e50 0100     		.2byte	0x1
 11685 1e52 52       		.byte	0x52
 11686 1e53 1C000000 		.4byte	.LVL351
 11687 1e57 32000000 		.4byte	.LFE9
 11688 1e5b 0100     		.2byte	0x1
 11689 1e5d 52       		.byte	0x52
 11690 1e5e 00000000 		.4byte	0
 11691 1e62 00000000 		.4byte	0
 11692              	.LLST86:
 11693 1e66 06000000 		.4byte	.LVL344
 11694 1e6a 10000000 		.4byte	.LVL347
 11695 1e6e 0100     		.2byte	0x1
 11696 1e70 53       		.byte	0x53
 11697 1e71 10000000 		.4byte	.LVL347
 11698 1e75 14000000 		.4byte	.LVL348
 11699 1e79 0A00     		.2byte	0xa
 11700 1e7b 70       		.byte	0x70
 11701 1e7c 00       		.sleb128 0
 11702 1e7d 94       		.byte	0x94
 11703 1e7e 01       		.byte	0x1
 11704 1e7f 08       		.byte	0x8
 11705 1e80 FF       		.byte	0xff
 11706 1e81 1A       		.byte	0x1a
 11707 1e82 3C       		.byte	0x3c
 11708 1e83 24       		.byte	0x24
 11709 1e84 9F       		.byte	0x9f
 11710 1e85 18000000 		.4byte	.LVL349
 11711 1e89 22000000 		.4byte	.LVL354
 11712 1e8d 0100     		.2byte	0x1
 11713 1e8f 53       		.byte	0x53
 11714 1e90 22000000 		.4byte	.LVL354
 11715 1e94 26000000 		.4byte	.LVL355
 11716 1e98 0A00     		.2byte	0xa
 11717 1e9a 70       		.byte	0x70
 11718 1e9b 03       		.sleb128 3
 11719 1e9c 94       		.byte	0x94
 11720 1e9d 01       		.byte	0x1
ARM GAS  C:\Users\simon\AppData\Local\Temp\cc07ySAM.s 			page 237


 11721 1e9e 08       		.byte	0x8
 11722 1e9f FF       		.byte	0xff
 11723 1ea0 1A       		.byte	0x1a
 11724 1ea1 3C       		.byte	0x3c
 11725 1ea2 24       		.byte	0x24
 11726 1ea3 9F       		.byte	0x9f
 11727 1ea4 2A000000 		.4byte	.LVL356
 11728 1ea8 2E000000 		.4byte	.LVL358
 11729 1eac 0100     		.2byte	0x1
 11730 1eae 53       		.byte	0x53
 11731 1eaf 2E000000 		.4byte	.LVL358
 11732 1eb3 30000000 		.4byte	.LVL359
 11733 1eb7 0A00     		.2byte	0xa
 11734 1eb9 70       		.byte	0x70
 11735 1eba 06       		.sleb128 6
 11736 1ebb 94       		.byte	0x94
 11737 1ebc 01       		.byte	0x1
 11738 1ebd 08       		.byte	0x8
 11739 1ebe FF       		.byte	0xff
 11740 1ebf 1A       		.byte	0x1a
 11741 1ec0 38       		.byte	0x38
 11742 1ec1 24       		.byte	0x24
 11743 1ec2 9F       		.byte	0x9f
 11744 1ec3 00000000 		.4byte	0
 11745 1ec7 00000000 		.4byte	0
 11746              	.LLST87:
 11747 1ecb 00000000 		.4byte	.LVL361
 11748 1ecf 26000000 		.4byte	.LVL365
 11749 1ed3 0100     		.2byte	0x1
 11750 1ed5 50       		.byte	0x50
 11751 1ed6 26000000 		.4byte	.LVL365
 11752 1eda 4C000000 		.4byte	.LVL369
 11753 1ede 0400     		.2byte	0x4
 11754 1ee0 F3       		.byte	0xf3
 11755 1ee1 01       		.uleb128 0x1
 11756 1ee2 50       		.byte	0x50
 11757 1ee3 9F       		.byte	0x9f
 11758 1ee4 4C000000 		.4byte	.LVL369
 11759 1ee8 4E000000 		.4byte	.LVL370
 11760 1eec 0100     		.2byte	0x1
 11761 1eee 50       		.byte	0x50
 11762 1eef 4E000000 		.4byte	.LVL370
 11763 1ef3 52000000 		.4byte	.LVL371
 11764 1ef7 0400     		.2byte	0x4
 11765 1ef9 F3       		.byte	0xf3
 11766 1efa 01       		.uleb128 0x1
 11767 1efb 50       		.byte	0x50
 11768 1efc 9F       		.byte	0x9f
 11769 1efd 52000000 		.4byte	.LVL371
 11770 1f01 54000000 		.4byte	.LVL372
 11771 1f05 0100     		.2byte	0x1
 11772 1f07 50       		.byte	0x50
 11773 1f08 54000000 		.4byte	.LVL372
 11774 1f0c 58000000 		.4byte	.LVL373
 11775 1f10 0400     		.2byte	0x4
 11776 1f12 F3       		.byte	0xf3
 11777 1f13 01       		.uleb128 0x1
ARM GAS  C:\Users\simon\AppData\Local\Temp\cc07ySAM.s 			page 238


 11778 1f14 50       		.byte	0x50
 11779 1f15 9F       		.byte	0x9f
 11780 1f16 58000000 		.4byte	.LVL373
 11781 1f1a 5A000000 		.4byte	.LVL374
 11782 1f1e 0100     		.2byte	0x1
 11783 1f20 50       		.byte	0x50
 11784 1f21 5A000000 		.4byte	.LVL374
 11785 1f25 62000000 		.4byte	.LFE10
 11786 1f29 0400     		.2byte	0x4
 11787 1f2b F3       		.byte	0xf3
 11788 1f2c 01       		.uleb128 0x1
 11789 1f2d 50       		.byte	0x50
 11790 1f2e 9F       		.byte	0x9f
 11791 1f2f 00000000 		.4byte	0
 11792 1f33 00000000 		.4byte	0
 11793              	.LLST88:
 11794 1f37 00000000 		.4byte	.LVL361
 11795 1f3b 24000000 		.4byte	.LVL364
 11796 1f3f 0100     		.2byte	0x1
 11797 1f41 51       		.byte	0x51
 11798 1f42 24000000 		.4byte	.LVL364
 11799 1f46 4C000000 		.4byte	.LVL369
 11800 1f4a 0100     		.2byte	0x1
 11801 1f4c 56       		.byte	0x56
 11802 1f4d 4C000000 		.4byte	.LVL369
 11803 1f51 5E000000 		.4byte	.LVL375
 11804 1f55 0100     		.2byte	0x1
 11805 1f57 51       		.byte	0x51
 11806 1f58 5E000000 		.4byte	.LVL375
 11807 1f5c 60000000 		.4byte	.LVL378
 11808 1f60 0100     		.2byte	0x1
 11809 1f62 56       		.byte	0x56
 11810 1f63 60000000 		.4byte	.LVL378
 11811 1f67 62000000 		.4byte	.LFE10
 11812 1f6b 0400     		.2byte	0x4
 11813 1f6d F3       		.byte	0xf3
 11814 1f6e 01       		.uleb128 0x1
 11815 1f6f 51       		.byte	0x51
 11816 1f70 9F       		.byte	0x9f
 11817 1f71 00000000 		.4byte	0
 11818 1f75 00000000 		.4byte	0
 11819              	.LLST89:
 11820 1f79 00000000 		.4byte	.LVL361
 11821 1f7d 29000000 		.4byte	.LVL366-1
 11822 1f81 0100     		.2byte	0x1
 11823 1f83 52       		.byte	0x52
 11824 1f84 29000000 		.4byte	.LVL366-1
 11825 1f88 4C000000 		.4byte	.LVL369
 11826 1f8c 0100     		.2byte	0x1
 11827 1f8e 54       		.byte	0x54
 11828 1f8f 4C000000 		.4byte	.LVL369
 11829 1f93 5E000000 		.4byte	.LVL375
 11830 1f97 0100     		.2byte	0x1
 11831 1f99 52       		.byte	0x52
 11832 1f9a 5E000000 		.4byte	.LVL375
 11833 1f9e 60000000 		.4byte	.LVL377
 11834 1fa2 0100     		.2byte	0x1
ARM GAS  C:\Users\simon\AppData\Local\Temp\cc07ySAM.s 			page 239


 11835 1fa4 54       		.byte	0x54
 11836 1fa5 60000000 		.4byte	.LVL377
 11837 1fa9 62000000 		.4byte	.LFE10
 11838 1fad 0400     		.2byte	0x4
 11839 1faf F3       		.byte	0xf3
 11840 1fb0 01       		.uleb128 0x1
 11841 1fb1 52       		.byte	0x52
 11842 1fb2 9F       		.byte	0x9f
 11843 1fb3 00000000 		.4byte	0
 11844 1fb7 00000000 		.4byte	0
 11845              	.LLST90:
 11846 1fbb 00000000 		.4byte	.LVL361
 11847 1fbf 18000000 		.4byte	.LVL363
 11848 1fc3 0100     		.2byte	0x1
 11849 1fc5 53       		.byte	0x53
 11850 1fc6 18000000 		.4byte	.LVL363
 11851 1fca 4C000000 		.4byte	.LVL369
 11852 1fce 0100     		.2byte	0x1
 11853 1fd0 57       		.byte	0x57
 11854 1fd1 4C000000 		.4byte	.LVL369
 11855 1fd5 5E000000 		.4byte	.LVL375
 11856 1fd9 0100     		.2byte	0x1
 11857 1fdb 53       		.byte	0x53
 11858 1fdc 5E000000 		.4byte	.LVL375
 11859 1fe0 60000000 		.4byte	.LVL379
 11860 1fe4 0100     		.2byte	0x1
 11861 1fe6 57       		.byte	0x57
 11862 1fe7 60000000 		.4byte	.LVL379
 11863 1feb 62000000 		.4byte	.LFE10
 11864 1fef 0400     		.2byte	0x4
 11865 1ff1 F3       		.byte	0xf3
 11866 1ff2 01       		.uleb128 0x1
 11867 1ff3 53       		.byte	0x53
 11868 1ff4 9F       		.byte	0x9f
 11869 1ff5 00000000 		.4byte	0
 11870 1ff9 00000000 		.4byte	0
 11871              	.LLST91:
 11872 1ffd 0A000000 		.4byte	.LVL362
 11873 2001 60000000 		.4byte	.LVL376
 11874 2005 0200     		.2byte	0x2
 11875 2007 30       		.byte	0x30
 11876 2008 9F       		.byte	0x9f
 11877 2009 60000000 		.4byte	.LVL376
 11878 200d 62000000 		.4byte	.LFE10
 11879 2011 0100     		.2byte	0x1
 11880 2013 50       		.byte	0x50
 11881 2014 00000000 		.4byte	0
 11882 2018 00000000 		.4byte	0
 11883              	.LLST92:
 11884 201c 00000000 		.4byte	.LVL380
 11885 2020 10000000 		.4byte	.LVL383
 11886 2024 0100     		.2byte	0x1
 11887 2026 50       		.byte	0x50
 11888 2027 10000000 		.4byte	.LVL383
 11889 202b 60000000 		.4byte	.LFE8
 11890 202f 0400     		.2byte	0x4
 11891 2031 F3       		.byte	0xf3
ARM GAS  C:\Users\simon\AppData\Local\Temp\cc07ySAM.s 			page 240


 11892 2032 01       		.uleb128 0x1
 11893 2033 50       		.byte	0x50
 11894 2034 9F       		.byte	0x9f
 11895 2035 00000000 		.4byte	0
 11896 2039 00000000 		.4byte	0
 11897              	.LLST93:
 11898 203d 00000000 		.4byte	.LVL380
 11899 2041 0E000000 		.4byte	.LVL382
 11900 2045 0100     		.2byte	0x1
 11901 2047 51       		.byte	0x51
 11902 2048 0E000000 		.4byte	.LVL382
 11903 204c 5E000000 		.4byte	.LVL396
 11904 2050 0100     		.2byte	0x1
 11905 2052 55       		.byte	0x55
 11906 2053 5E000000 		.4byte	.LVL396
 11907 2057 60000000 		.4byte	.LFE8
 11908 205b 0400     		.2byte	0x4
 11909 205d F3       		.byte	0xf3
 11910 205e 01       		.uleb128 0x1
 11911 205f 51       		.byte	0x51
 11912 2060 9F       		.byte	0x9f
 11913 2061 00000000 		.4byte	0
 11914 2065 00000000 		.4byte	0
 11915              	.LLST94:
 11916 2069 00000000 		.4byte	.LVL380
 11917 206d 0C000000 		.4byte	.LVL381
 11918 2071 0100     		.2byte	0x1
 11919 2073 52       		.byte	0x52
 11920 2074 0C000000 		.4byte	.LVL381
 11921 2078 5E000000 		.4byte	.LVL395
 11922 207c 0100     		.2byte	0x1
 11923 207e 54       		.byte	0x54
 11924 207f 5E000000 		.4byte	.LVL395
 11925 2083 60000000 		.4byte	.LFE8
 11926 2087 0400     		.2byte	0x4
 11927 2089 F3       		.byte	0xf3
 11928 208a 01       		.uleb128 0x1
 11929 208b 52       		.byte	0x52
 11930 208c 9F       		.byte	0x9f
 11931 208d 00000000 		.4byte	0
 11932 2091 00000000 		.4byte	0
 11933              	.LLST95:
 11934 2095 22000000 		.4byte	.LVL385
 11935 2099 32000000 		.4byte	.LVL386
 11936 209d 0100     		.2byte	0x1
 11937 209f 50       		.byte	0x50
 11938 20a0 36000000 		.4byte	.LVL387
 11939 20a4 3E000000 		.4byte	.LVL388
 11940 20a8 0100     		.2byte	0x1
 11941 20aa 50       		.byte	0x50
 11942 20ab 50000000 		.4byte	.LVL390
 11943 20af 54000000 		.4byte	.LVL391
 11944 20b3 0100     		.2byte	0x1
 11945 20b5 50       		.byte	0x50
 11946 20b6 58000000 		.4byte	.LVL392
 11947 20ba 5A000000 		.4byte	.LVL393
 11948 20be 0100     		.2byte	0x1
ARM GAS  C:\Users\simon\AppData\Local\Temp\cc07ySAM.s 			page 241


 11949 20c0 50       		.byte	0x50
 11950 20c1 5C000000 		.4byte	.LVL394
 11951 20c5 60000000 		.4byte	.LFE8
 11952 20c9 0100     		.2byte	0x1
 11953 20cb 50       		.byte	0x50
 11954 20cc 00000000 		.4byte	0
 11955 20d0 00000000 		.4byte	0
 11956              	.LLST96:
 11957 20d4 00000000 		.4byte	.LVL397
 11958 20d8 0C000000 		.4byte	.LVL398
 11959 20dc 0100     		.2byte	0x1
 11960 20de 50       		.byte	0x50
 11961 20df 0C000000 		.4byte	.LVL398
 11962 20e3 36000000 		.4byte	.LVL406
 11963 20e7 0100     		.2byte	0x1
 11964 20e9 54       		.byte	0x54
 11965 20ea 36000000 		.4byte	.LVL406
 11966 20ee 38000000 		.4byte	.LVL407
 11967 20f2 0400     		.2byte	0x4
 11968 20f4 F3       		.byte	0xf3
 11969 20f5 01       		.uleb128 0x1
 11970 20f6 50       		.byte	0x50
 11971 20f7 9F       		.byte	0x9f
 11972 20f8 38000000 		.4byte	.LVL407
 11973 20fc 3A000000 		.4byte	.LVL408
 11974 2100 0100     		.2byte	0x1
 11975 2102 54       		.byte	0x54
 11976 2103 3A000000 		.4byte	.LVL408
 11977 2107 70000000 		.4byte	.LFE11
 11978 210b 0400     		.2byte	0x4
 11979 210d F3       		.byte	0xf3
 11980 210e 01       		.uleb128 0x1
 11981 210f 50       		.byte	0x50
 11982 2110 9F       		.byte	0x9f
 11983 2111 00000000 		.4byte	0
 11984 2115 00000000 		.4byte	0
 11985              	.LLST97:
 11986 2119 1A000000 		.4byte	.LVL400
 11987 211d 1C000000 		.4byte	.LVL401
 11988 2121 0100     		.2byte	0x1
 11989 2123 50       		.byte	0x50
 11990 2124 1E000000 		.4byte	.LVL402
 11991 2128 42000000 		.4byte	.LVL409
 11992 212c 0100     		.2byte	0x1
 11993 212e 50       		.byte	0x50
 11994 212f 00000000 		.4byte	0
 11995 2133 00000000 		.4byte	0
 11996              	.LLST98:
 11997 2137 28000000 		.4byte	.LVL403
 11998 213b 2A000000 		.4byte	.LVL404
 11999 213f 0100     		.2byte	0x1
 12000 2141 52       		.byte	0x52
 12001 2142 2C000000 		.4byte	.LVL405
 12002 2146 46000000 		.4byte	.LVL410
 12003 214a 0100     		.2byte	0x1
 12004 214c 52       		.byte	0x52
 12005 214d 00000000 		.4byte	0
ARM GAS  C:\Users\simon\AppData\Local\Temp\cc07ySAM.s 			page 242


 12006 2151 00000000 		.4byte	0
 12007              	.LLST99:
 12008 2155 36000000 		.4byte	.LVL406
 12009 2159 38000000 		.4byte	.LVL407
 12010 215d 0100     		.2byte	0x1
 12011 215f 54       		.byte	0x54
 12012 2160 3A000000 		.4byte	.LVL408
 12013 2164 5E000000 		.4byte	.LVL412
 12014 2168 0100     		.2byte	0x1
 12015 216a 54       		.byte	0x54
 12016 216b 00000000 		.4byte	0
 12017 216f 00000000 		.4byte	0
 12018              		.section	.debug_aranges,"",%progbits
 12019 0000 1C010000 		.4byte	0x11c
 12020 0004 0200     		.2byte	0x2
 12021 0006 00000000 		.4byte	.Ldebug_info0
 12022 000a 04       		.byte	0x4
 12023 000b 00       		.byte	0
 12024 000c 0000     		.2byte	0
 12025 000e 0000     		.2byte	0
 12026 0010 00000000 		.4byte	.LFB16
 12027 0014 16000000 		.4byte	.LFE16-.LFB16
 12028 0018 00000000 		.4byte	.LFB17
 12029 001c 10000000 		.4byte	.LFE17-.LFB17
 12030 0020 00000000 		.4byte	.LFB18
 12031 0024 16000000 		.4byte	.LFE18-.LFB18
 12032 0028 00000000 		.4byte	.LFB19
 12033 002c 10000000 		.4byte	.LFE19-.LFB19
 12034 0030 00000000 		.4byte	.LFB20
 12035 0034 28000000 		.4byte	.LFE20-.LFB20
 12036 0038 00000000 		.4byte	.LFB24
 12037 003c 70000000 		.4byte	.LFE24-.LFB24
 12038 0040 00000000 		.4byte	.LFB25
 12039 0044 2C020000 		.4byte	.LFE25-.LFB25
 12040 0048 00000000 		.4byte	.LFB26
 12041 004c D4000000 		.4byte	.LFE26-.LFB26
 12042 0050 00000000 		.4byte	.LFB28
 12043 0054 1C000000 		.4byte	.LFE28-.LFB28
 12044 0058 00000000 		.4byte	.LFB29
 12045 005c 80000000 		.4byte	.LFE29-.LFB29
 12046 0060 00000000 		.4byte	.LFB30
 12047 0064 3A000000 		.4byte	.LFE30-.LFB30
 12048 0068 00000000 		.4byte	.LFB31
 12049 006c 0C000000 		.4byte	.LFE31-.LFB31
 12050 0070 00000000 		.4byte	.LFB32
 12051 0074 32000000 		.4byte	.LFE32-.LFB32
 12052 0078 00000000 		.4byte	.LFB1
 12053 007c 3C000000 		.4byte	.LFE1-.LFB1
 12054 0080 00000000 		.4byte	.LFB27
 12055 0084 46000000 		.4byte	.LFE27-.LFB27
 12056 0088 00000000 		.4byte	.LFB2
 12057 008c 96000000 		.4byte	.LFE2-.LFB2
 12058 0090 00000000 		.4byte	.LFB13
 12059 0094 54000000 		.4byte	.LFE13-.LFB13
 12060 0098 00000000 		.4byte	.LFB14
 12061 009c 52000000 		.4byte	.LFE14-.LFB14
 12062 00a0 00000000 		.4byte	.LFB12
ARM GAS  C:\Users\simon\AppData\Local\Temp\cc07ySAM.s 			page 243


 12063 00a4 28000000 		.4byte	.LFE12-.LFB12
 12064 00a8 00000000 		.4byte	.LFB15
 12065 00ac 52000000 		.4byte	.LFE15-.LFB15
 12066 00b0 00000000 		.4byte	.LFB23
 12067 00b4 20000000 		.4byte	.LFE23-.LFB23
 12068 00b8 00000000 		.4byte	.LFB21
 12069 00bc 40000000 		.4byte	.LFE21-.LFB21
 12070 00c0 00000000 		.4byte	.LFB4
 12071 00c4 2E000000 		.4byte	.LFE4-.LFB4
 12072 00c8 00000000 		.4byte	.LFB6
 12073 00cc 26000000 		.4byte	.LFE6-.LFB6
 12074 00d0 00000000 		.4byte	.LFB7
 12075 00d4 76000000 		.4byte	.LFE7-.LFB7
 12076 00d8 00000000 		.4byte	.LFB0
 12077 00dc 68000000 		.4byte	.LFE0-.LFB0
 12078 00e0 00000000 		.4byte	.LFB22
 12079 00e4 34000000 		.4byte	.LFE22-.LFB22
 12080 00e8 00000000 		.4byte	.LFB3
 12081 00ec 74000000 		.4byte	.LFE3-.LFB3
 12082 00f0 00000000 		.4byte	.LFB5
 12083 00f4 40000000 		.4byte	.LFE5-.LFB5
 12084 00f8 00000000 		.4byte	.LFB9
 12085 00fc 32000000 		.4byte	.LFE9-.LFB9
 12086 0100 00000000 		.4byte	.LFB10
 12087 0104 62000000 		.4byte	.LFE10-.LFB10
 12088 0108 00000000 		.4byte	.LFB8
 12089 010c 60000000 		.4byte	.LFE8-.LFB8
 12090 0110 00000000 		.4byte	.LFB11
 12091 0114 70000000 		.4byte	.LFE11-.LFB11
 12092 0118 00000000 		.4byte	0
 12093 011c 00000000 		.4byte	0
 12094              		.section	.debug_ranges,"",%progbits
 12095              	.Ldebug_ranges0:
 12096 0000 00000000 		.4byte	.LFB16
 12097 0004 16000000 		.4byte	.LFE16
 12098 0008 00000000 		.4byte	.LFB17
 12099 000c 10000000 		.4byte	.LFE17
 12100 0010 00000000 		.4byte	.LFB18
 12101 0014 16000000 		.4byte	.LFE18
 12102 0018 00000000 		.4byte	.LFB19
 12103 001c 10000000 		.4byte	.LFE19
 12104 0020 00000000 		.4byte	.LFB20
 12105 0024 28000000 		.4byte	.LFE20
 12106 0028 00000000 		.4byte	.LFB24
 12107 002c 70000000 		.4byte	.LFE24
 12108 0030 00000000 		.4byte	.LFB25
 12109 0034 2C020000 		.4byte	.LFE25
 12110 0038 00000000 		.4byte	.LFB26
 12111 003c D4000000 		.4byte	.LFE26
 12112 0040 00000000 		.4byte	.LFB28
 12113 0044 1C000000 		.4byte	.LFE28
 12114 0048 00000000 		.4byte	.LFB29
 12115 004c 80000000 		.4byte	.LFE29
 12116 0050 00000000 		.4byte	.LFB30
 12117 0054 3A000000 		.4byte	.LFE30
 12118 0058 00000000 		.4byte	.LFB31
 12119 005c 0C000000 		.4byte	.LFE31
ARM GAS  C:\Users\simon\AppData\Local\Temp\cc07ySAM.s 			page 244


 12120 0060 00000000 		.4byte	.LFB32
 12121 0064 32000000 		.4byte	.LFE32
 12122 0068 00000000 		.4byte	.LFB1
 12123 006c 3C000000 		.4byte	.LFE1
 12124 0070 00000000 		.4byte	.LFB27
 12125 0074 46000000 		.4byte	.LFE27
 12126 0078 00000000 		.4byte	.LFB2
 12127 007c 96000000 		.4byte	.LFE2
 12128 0080 00000000 		.4byte	.LFB13
 12129 0084 54000000 		.4byte	.LFE13
 12130 0088 00000000 		.4byte	.LFB14
 12131 008c 52000000 		.4byte	.LFE14
 12132 0090 00000000 		.4byte	.LFB12
 12133 0094 28000000 		.4byte	.LFE12
 12134 0098 00000000 		.4byte	.LFB15
 12135 009c 52000000 		.4byte	.LFE15
 12136 00a0 00000000 		.4byte	.LFB23
 12137 00a4 20000000 		.4byte	.LFE23
 12138 00a8 00000000 		.4byte	.LFB21
 12139 00ac 40000000 		.4byte	.LFE21
 12140 00b0 00000000 		.4byte	.LFB4
 12141 00b4 2E000000 		.4byte	.LFE4
 12142 00b8 00000000 		.4byte	.LFB6
 12143 00bc 26000000 		.4byte	.LFE6
 12144 00c0 00000000 		.4byte	.LFB7
 12145 00c4 76000000 		.4byte	.LFE7
 12146 00c8 00000000 		.4byte	.LFB0
 12147 00cc 68000000 		.4byte	.LFE0
 12148 00d0 00000000 		.4byte	.LFB22
 12149 00d4 34000000 		.4byte	.LFE22
 12150 00d8 00000000 		.4byte	.LFB3
 12151 00dc 74000000 		.4byte	.LFE3
 12152 00e0 00000000 		.4byte	.LFB5
 12153 00e4 40000000 		.4byte	.LFE5
 12154 00e8 00000000 		.4byte	.LFB9
 12155 00ec 32000000 		.4byte	.LFE9
 12156 00f0 00000000 		.4byte	.LFB10
 12157 00f4 62000000 		.4byte	.LFE10
 12158 00f8 00000000 		.4byte	.LFB8
 12159 00fc 60000000 		.4byte	.LFE8
 12160 0100 00000000 		.4byte	.LFB11
 12161 0104 70000000 		.4byte	.LFE11
 12162 0108 00000000 		.4byte	0
 12163 010c 00000000 		.4byte	0
 12164              		.section	.debug_line,"",%progbits
 12165              	.Ldebug_line0:
 12166 0000 10050000 		.section	.debug_str,"MS",%progbits,1
 12166      02002D01 
 12166      00000201 
 12166      FB0E0D00 
 12166      01010101 
 12167              	.LASF140:
 12168 0000 6D61785F 		.ascii	"max_delay\000"
 12168      64656C61 
 12168      7900
 12169              	.LASF96:
 12170 000a 6469675F 		.ascii	"dig_h5_lsb\000"
ARM GAS  C:\Users\simon\AppData\Local\Temp\cc07ySAM.s 			page 245


 12170      68355F6C 
 12170      736200
 12171              	.LASF115:
 12172 0015 7365745F 		.ascii	"set_filter_standby_settings\000"
 12172      66696C74 
 12172      65725F73 
 12172      74616E64 
 12172      62795F73 
 12173              	.LASF142:
 12174 0031 70726573 		.ascii	"pres_osr\000"
 12174      5F6F7372 
 12174      00
 12175              	.LASF66:
 12176 003a 63616C69 		.ascii	"calib_data\000"
 12176      625F6461 
 12176      746100
 12177              	.LASF117:
 12178 0045 77726974 		.ascii	"write_power_mode\000"
 12178      655F706F 
 12178      7765725F 
 12178      6D6F6465 
 12178      00
 12179              	.LASF122:
 12180 0056 626D6532 		.ascii	"bme280_soft_reset\000"
 12180      38305F73 
 12180      6F66745F 
 12180      72657365 
 12180      7400
 12181              	.LASF1:
 12182 0068 5F5F7569 		.ascii	"__uint8_t\000"
 12182      6E74385F 
 12182      7400
 12183              	.LASF131:
 12184 0072 6C617374 		.ascii	"last_set_mode\000"
 12184      5F736574 
 12184      5F6D6F64 
 12184      6500
 12185              	.LASF147:
 12186 0080 474E5520 		.ascii	"GNU C11 5.4.1 20160609 (release) [ARM/embedded-5-br"
 12186      43313120 
 12186      352E342E 
 12186      31203230 
 12186      31363036 
 12187 00b3 616E6368 		.ascii	"anch revision 237715] -mcpu=cortex-m0 -mthumb -g -O"
 12187      20726576 
 12187      6973696F 
 12187      6E203233 
 12187      37373135 
 12188 00e6 67202D66 		.ascii	"g -ffunction-sections -ffat-lto-objects\000"
 12188      66756E63 
 12188      74696F6E 
 12188      2D736563 
 12188      74696F6E 
 12189              	.LASF14:
 12190 010e 6C6F6E67 		.ascii	"long long unsigned int\000"
 12190      206C6F6E 
 12190      6720756E 
ARM GAS  C:\Users\simon\AppData\Local\Temp\cc07ySAM.s 			page 246


 12190      7369676E 
 12190      65642069 
 12191              	.LASF73:
 12192 0125 70617273 		.ascii	"parse_device_settings\000"
 12192      655F6465 
 12192      76696365 
 12192      5F736574 
 12192      74696E67 
 12193              	.LASF114:
 12194 013b 7365745F 		.ascii	"set_osr_settings\000"
 12194      6F73725F 
 12194      73657474 
 12194      696E6773 
 12194      00
 12195              	.LASF151:
 12196 014c 626D6532 		.ascii	"bme280_parse_sensor_data\000"
 12196      38305F70 
 12196      61727365 
 12196      5F73656E 
 12196      736F725F 
 12197              	.LASF12:
 12198 0165 5F5F696E 		.ascii	"__int64_t\000"
 12198      7436345F 
 12198      7400
 12199              	.LASF85:
 12200 016f 636F6D70 		.ascii	"compensate_humidity\000"
 12200      656E7361 
 12200      74655F68 
 12200      756D6964 
 12200      69747900 
 12201              	.LASF0:
 12202 0183 5F5F696E 		.ascii	"__int8_t\000"
 12202      74385F74 
 12202      00
 12203              	.LASF107:
 12204 018c 626D6532 		.ascii	"bme280_set_regs\000"
 12204      38305F73 
 12204      65745F72 
 12204      65677300 
 12205              	.LASF139:
 12206 019c 626D6532 		.ascii	"bme280_cal_meas_delay\000"
 12206      38305F63 
 12206      616C5F6D 
 12206      6561735F 
 12206      64656C61 
 12207              	.LASF97:
 12208 01b2 6469675F 		.ascii	"dig_h5_msb\000"
 12208      68355F6D 
 12208      736200
 12209              	.LASF27:
 12210 01bd 626D6532 		.ascii	"bme280_delay_fptr_t\000"
 12210      38305F64 
 12210      656C6179 
 12210      5F667074 
 12210      725F7400 
 12211              	.LASF90:
 12212 01d1 74656D70 		.ascii	"temp_buff\000"
ARM GAS  C:\Users\simon\AppData\Local\Temp\cc07ySAM.s 			page 247


 12212      5F627566 
 12212      6600
 12213              	.LASF18:
 12214 01db 696E7431 		.ascii	"int16_t\000"
 12214      365F7400 
 12215              	.LASF13:
 12216 01e3 6C6F6E67 		.ascii	"long long int\000"
 12216      206C6F6E 
 12216      6720696E 
 12216      7400
 12217              	.LASF2:
 12218 01f1 7369676E 		.ascii	"signed char\000"
 12218      65642063 
 12218      68617200 
 12219              	.LASF72:
 12220 01fd 66696C6C 		.ascii	"fill_osr_temp_settings\000"
 12220      5F6F7372 
 12220      5F74656D 
 12220      705F7365 
 12220      7474696E 
 12221              	.LASF89:
 12222 0214 7265675F 		.ascii	"reg_addr\000"
 12222      61646472 
 12222      00
 12223              	.LASF9:
 12224 021d 6C6F6E67 		.ascii	"long int\000"
 12224      20696E74 
 12224      00
 12225              	.LASF53:
 12226 0226 626D6532 		.ascii	"bme280_settings\000"
 12226      38305F73 
 12226      65747469 
 12226      6E677300 
 12227              	.LASF111:
 12228 0236 6374726C 		.ascii	"ctrl_hum\000"
 12228      5F68756D 
 12228      00
 12229              	.LASF119:
 12230 023f 73656E73 		.ascii	"sensor_mode_reg_val\000"
 12230      6F725F6D 
 12230      6F64655F 
 12230      7265675F 
 12230      76616C00 
 12231              	.LASF146:
 12232 0253 6D656D63 		.ascii	"memcpy\000"
 12232      707900
 12233              	.LASF71:
 12234 025a 66696C6C 		.ascii	"fill_osr_press_settings\000"
 12234      5F6F7372 
 12234      5F707265 
 12234      73735F73 
 12234      65747469 
 12235              	.LASF19:
 12236 0272 75696E74 		.ascii	"uint16_t\000"
 12236      31365F74 
 12236      00
 12237              	.LASF50:
ARM GAS  C:\Users\simon\AppData\Local\Temp\cc07ySAM.s 			page 248


 12238 027b 74656D70 		.ascii	"temperature\000"
 12238      65726174 
 12238      75726500 
 12239              	.LASF95:
 12240 0287 6469675F 		.ascii	"dig_h4_msb\000"
 12240      68345F6D 
 12240      736200
 12241              	.LASF78:
 12242 0292 74656D70 		.ascii	"temperature_max\000"
 12242      65726174 
 12242      7572655F 
 12242      6D617800 
 12243              	.LASF10:
 12244 02a2 5F5F7569 		.ascii	"__uint32_t\000"
 12244      6E743332 
 12244      5F7400
 12245              	.LASF137:
 12246 02ad 636F6D70 		.ascii	"comp_data\000"
 12246      5F646174 
 12246      6100
 12247              	.LASF77:
 12248 02b7 74656D70 		.ascii	"temperature_min\000"
 12248      65726174 
 12248      7572655F 
 12248      6D696E00 
 12249              	.LASF46:
 12250 02c7 745F6669 		.ascii	"t_fine\000"
 12250      6E6500
 12251              	.LASF4:
 12252 02ce 5F5F696E 		.ascii	"__int16_t\000"
 12252      7431365F 
 12252      7400
 12253              	.LASF129:
 12254 02d8 626D6532 		.ascii	"bme280_set_sensor_settings\000"
 12254      38305F73 
 12254      65745F73 
 12254      656E736F 
 12254      725F7365 
 12255              	.LASF121:
 12256 02f3 626D6532 		.ascii	"bme280_get_sensor_mode\000"
 12256      38305F67 
 12256      65745F73 
 12256      656E736F 
 12256      725F6D6F 
 12257              	.LASF58:
 12258 030a 7374616E 		.ascii	"standby_time\000"
 12258      6462795F 
 12258      74696D65 
 12258      00
 12259              	.LASF100:
 12260 0317 64657369 		.ascii	"desired_settings\000"
 12260      7265645F 
 12260      73657474 
 12260      696E6773 
 12260      00
 12261              	.LASF106:
 12262 0328 626D6532 		.ascii	"bme280_get_regs\000"
ARM GAS  C:\Users\simon\AppData\Local\Temp\cc07ySAM.s 			page 249


 12262      38305F67 
 12262      65745F72 
 12262      65677300 
 12263              	.LASF15:
 12264 0338 756E7369 		.ascii	"unsigned int\000"
 12264      676E6564 
 12264      20696E74 
 12264      00
 12265              	.LASF134:
 12266 0345 64617461 		.ascii	"data_msb\000"
 12266      5F6D7362 
 12266      00
 12267              	.LASF92:
 12268 034e 70617273 		.ascii	"parse_temp_press_calib_data\000"
 12268      655F7465 
 12268      6D705F70 
 12268      72657373 
 12268      5F63616C 
 12269              	.LASF75:
 12270 036a 76617231 		.ascii	"var1\000"
 12270      00
 12271              	.LASF76:
 12272 036f 76617232 		.ascii	"var2\000"
 12272      00
 12273              	.LASF11:
 12274 0374 6C6F6E67 		.ascii	"long unsigned int\000"
 12274      20756E73 
 12274      69676E65 
 12274      6420696E 
 12274      7400
 12275              	.LASF82:
 12276 0386 76617234 		.ascii	"var4\000"
 12276      00
 12277              	.LASF86:
 12278 038b 76617235 		.ascii	"var5\000"
 12278      00
 12279              	.LASF88:
 12280 0390 696E7465 		.ascii	"interleave_reg_addr\000"
 12280      726C6561 
 12280      76655F72 
 12280      65675F61 
 12280      64647200 
 12281              	.LASF120:
 12282 03a4 626D6532 		.ascii	"bme280_get_sensor_settings\000"
 12282      38305F67 
 12282      65745F73 
 12282      656E736F 
 12282      725F7365 
 12283              	.LASF7:
 12284 03bf 73686F72 		.ascii	"short unsigned int\000"
 12284      7420756E 
 12284      7369676E 
 12284      65642069 
 12284      6E7400
 12285              	.LASF79:
 12286 03d2 636F6D70 		.ascii	"compensate_temperature\000"
 12286      656E7361 
ARM GAS  C:\Users\simon\AppData\Local\Temp\cc07ySAM.s 			page 250


 12286      74655F74 
 12286      656D7065 
 12286      72617475 
 12287              	.LASF51:
 12288 03e9 68756D69 		.ascii	"humidity\000"
 12288      64697479 
 12288      00
 12289              	.LASF132:
 12290 03f2 64617461 		.ascii	"data_xlsb\000"
 12290      5F786C73 
 12290      6200
 12291              	.LASF126:
 12292 03fc 626D6532 		.ascii	"bme280_init\000"
 12292      38305F69 
 12292      6E697400 
 12293              	.LASF101:
 12294 0408 73657474 		.ascii	"settings_changed\000"
 12294      696E6773 
 12294      5F636861 
 12294      6E676564 
 12294      00
 12295              	.LASF128:
 12296 0419 7075745F 		.ascii	"put_device_to_sleep\000"
 12296      64657669 
 12296      63655F74 
 12296      6F5F736C 
 12296      65657000 
 12297              	.LASF68:
 12298 042d 7265675F 		.ascii	"reg_data\000"
 12298      64617461 
 12298      00
 12299              	.LASF148:
 12300 0436 626D6532 		.ascii	"bme280.c\000"
 12300      38302E63 
 12300      00
 12301              	.LASF64:
 12302 043f 77726974 		.ascii	"write\000"
 12302      6500
 12303              	.LASF74:
 12304 0445 756E636F 		.ascii	"uncomp_data\000"
 12304      6D705F64 
 12304      61746100 
 12305              	.LASF102:
 12306 0451 6E756C6C 		.ascii	"null_ptr_check\000"
 12306      5F707472 
 12306      5F636865 
 12306      636B00
 12307              	.LASF125:
 12308 0460 736F6674 		.ascii	"soft_rst_cmd\000"
 12308      5F727374 
 12308      5F636D64 
 12308      00
 12309              	.LASF62:
 12310 046d 696E7466 		.ascii	"intf\000"
 12310      00
 12311              	.LASF28:
 12312 0472 6469675F 		.ascii	"dig_t1\000"
ARM GAS  C:\Users\simon\AppData\Local\Temp\cc07ySAM.s 			page 251


 12312      743100
 12313              	.LASF29:
 12314 0479 6469675F 		.ascii	"dig_t2\000"
 12314      743200
 12315              	.LASF30:
 12316 0480 6469675F 		.ascii	"dig_t3\000"
 12316      743300
 12317              	.LASF105:
 12318 0487 73697A65 		.ascii	"sizetype\000"
 12318      74797065 
 12318      00
 12319              	.LASF23:
 12320 0490 6C6F6E67 		.ascii	"long double\000"
 12320      20646F75 
 12320      626C6500 
 12321              	.LASF133:
 12322 049c 64617461 		.ascii	"data_lsb\000"
 12322      5F6C7362 
 12322      00
 12323              	.LASF59:
 12324 04a5 626D6532 		.ascii	"bme280_dev\000"
 12324      38305F64 
 12324      657600
 12325              	.LASF48:
 12326 04b0 626D6532 		.ascii	"bme280_data\000"
 12326      38305F64 
 12326      61746100 
 12327              	.LASF98:
 12328 04bc 6172655F 		.ascii	"are_settings_changed\000"
 12328      73657474 
 12328      696E6773 
 12328      5F636861 
 12328      6E676564 
 12329              	.LASF109:
 12330 04d1 7265675F 		.ascii	"reg_addr_cnt\000"
 12330      61646472 
 12330      5F636E74 
 12330      00
 12331              	.LASF26:
 12332 04de 626D6532 		.ascii	"bme280_com_fptr_t\000"
 12332      38305F63 
 12332      6F6D5F66 
 12332      7074725F 
 12332      7400
 12333              	.LASF123:
 12334 04f0 73746174 		.ascii	"status_reg\000"
 12334      75735F72 
 12334      656700
 12335              	.LASF127:
 12336 04fb 7472795F 		.ascii	"try_count\000"
 12336      636F756E 
 12336      7400
 12337              	.LASF49:
 12338 0505 70726573 		.ascii	"pressure\000"
 12338      73757265 
 12338      00
 12339              	.LASF24:
ARM GAS  C:\Users\simon\AppData\Local\Temp\cc07ySAM.s 			page 252


 12340 050e 424D4532 		.ascii	"BME280_SPI_INTF\000"
 12340      38305F53 
 12340      50495F49 
 12340      4E544600 
 12341              	.LASF67:
 12342 051e 73657474 		.ascii	"settings\000"
 12342      696E6773 
 12342      00
 12343              	.LASF84:
 12344 0527 70726573 		.ascii	"pressure_max\000"
 12344      73757265 
 12344      5F6D6178 
 12344      00
 12345              	.LASF70:
 12346 0534 66696C6C 		.ascii	"fill_standby_settings\000"
 12346      5F737461 
 12346      6E646279 
 12346      5F736574 
 12346      74696E67 
 12347              	.LASF83:
 12348 054a 70726573 		.ascii	"pressure_min\000"
 12348      73757265 
 12348      5F6D696E 
 12348      00
 12349              	.LASF135:
 12350 0557 626D6532 		.ascii	"bme280_compensate_data\000"
 12350      38305F63 
 12350      6F6D7065 
 12350      6E736174 
 12350      655F6461 
 12351              	.LASF130:
 12352 056e 626D6532 		.ascii	"bme280_set_sensor_mode\000"
 12352      38305F73 
 12352      65745F73 
 12352      656E736F 
 12352      725F6D6F 
 12353              	.LASF141:
 12354 0585 74656D70 		.ascii	"temp_osr\000"
 12354      5F6F7372 
 12354      00
 12355              	.LASF20:
 12356 058e 696E7433 		.ascii	"int32_t\000"
 12356      325F7400 
 12357              	.LASF3:
 12358 0596 756E7369 		.ascii	"unsigned char\000"
 12358      676E6564 
 12358      20636861 
 12358      7200
 12359              	.LASF56:
 12360 05a4 6F73725F 		.ascii	"osr_h\000"
 12360      6800
 12361              	.LASF124:
 12362 05aa 7472795F 		.ascii	"try_run\000"
 12362      72756E00 
 12363              	.LASF5:
 12364 05b2 73686F72 		.ascii	"short int\000"
 12364      7420696E 
ARM GAS  C:\Users\simon\AppData\Local\Temp\cc07ySAM.s 			page 253


 12364      7400
 12365              	.LASF54:
 12366 05bc 6F73725F 		.ascii	"osr_p\000"
 12366      7000
 12367              	.LASF112:
 12368 05c2 6374726C 		.ascii	"ctrl_meas\000"
 12368      5F6D6561 
 12368      7300
 12369              	.LASF94:
 12370 05cc 6469675F 		.ascii	"dig_h4_lsb\000"
 12370      68345F6C 
 12370      736200
 12371              	.LASF55:
 12372 05d7 6F73725F 		.ascii	"osr_t\000"
 12372      7400
 12373              	.LASF116:
 12374 05dd 72656C6F 		.ascii	"reload_device_settings\000"
 12374      61645F64 
 12374      65766963 
 12374      655F7365 
 12374      7474696E 
 12375              	.LASF93:
 12376 05f4 70617273 		.ascii	"parse_humidity_calib_data\000"
 12376      655F6875 
 12376      6D696469 
 12376      74795F63 
 12376      616C6962 
 12377              	.LASF52:
 12378 060e 626D6532 		.ascii	"bme280_uncomp_data\000"
 12378      38305F75 
 12378      6E636F6D 
 12378      705F6461 
 12378      746100
 12379              	.LASF144:
 12380 0621 6F73725F 		.ascii	"osr_sett_to_act_osr\000"
 12380      73657474 
 12380      5F746F5F 
 12380      6163745F 
 12380      6F737200 
 12381              	.LASF87:
 12382 0635 68756D69 		.ascii	"humidity_max\000"
 12382      64697479 
 12382      5F6D6178 
 12382      00
 12383              	.LASF65:
 12384 0642 64656C61 		.ascii	"delay_ms\000"
 12384      795F6D73 
 12384      00
 12385              	.LASF80:
 12386 064b 636F6D70 		.ascii	"compensate_pressure\000"
 12386      656E7361 
 12386      74655F70 
 12386      72657373 
 12386      75726500 
 12387              	.LASF21:
 12388 065f 75696E74 		.ascii	"uint32_t\000"
 12388      33325F74 
ARM GAS  C:\Users\simon\AppData\Local\Temp\cc07ySAM.s 			page 254


 12388      00
 12389              	.LASF60:
 12390 0668 63686970 		.ascii	"chip_id\000"
 12390      5F696400 
 12391              	.LASF63:
 12392 0670 72656164 		.ascii	"read\000"
 12392      00
 12393              	.LASF138:
 12394 0675 626D6532 		.ascii	"bme280_get_sensor_data\000"
 12394      38305F67 
 12394      65745F73 
 12394      656E736F 
 12394      725F6461 
 12395              	.LASF6:
 12396 068c 5F5F7569 		.ascii	"__uint16_t\000"
 12396      6E743136 
 12396      5F7400
 12397              	.LASF91:
 12398 0697 696E6465 		.ascii	"index\000"
 12398      7800
 12399              	.LASF113:
 12400 069d 7365745F 		.ascii	"set_osr_press_temp_settings\000"
 12400      6F73725F 
 12400      70726573 
 12400      735F7465 
 12400      6D705F73 
 12401              	.LASF8:
 12402 06b9 5F5F696E 		.ascii	"__int32_t\000"
 12402      7433325F 
 12402      7400
 12403              	.LASF81:
 12404 06c3 76617233 		.ascii	"var3\000"
 12404      00
 12405              	.LASF16:
 12406 06c8 696E7438 		.ascii	"int8_t\000"
 12406      5F7400
 12407              	.LASF69:
 12408 06cf 66696C6C 		.ascii	"fill_filter_settings\000"
 12408      5F66696C 
 12408      7465725F 
 12408      73657474 
 12408      696E6773 
 12409              	.LASF57:
 12410 06e4 66696C74 		.ascii	"filter\000"
 12410      657200
 12411              	.LASF104:
 12412 06eb 6765745F 		.ascii	"get_calib_data\000"
 12412      63616C69 
 12412      625F6461 
 12412      746100
 12413              	.LASF150:
 12414 06fa 626D6532 		.ascii	"bme280_intf\000"
 12414      38305F69 
 12414      6E746600 
 12415              	.LASF145:
 12416 0706 6D656D73 		.ascii	"memset\000"
 12416      657400
ARM GAS  C:\Users\simon\AppData\Local\Temp\cc07ySAM.s 			page 255


 12417              	.LASF103:
 12418 070d 72736C74 		.ascii	"rslt\000"
 12418      00
 12419              	.LASF136:
 12420 0712 73656E73 		.ascii	"sensor_comp\000"
 12420      6F725F63 
 12420      6F6D7000 
 12421              	.LASF17:
 12422 071e 75696E74 		.ascii	"uint8_t\000"
 12422      385F7400 
 12423              	.LASF108:
 12424 0726 74656D70 		.ascii	"temp_len\000"
 12424      5F6C656E 
 12424      00
 12425              	.LASF25:
 12426 072f 424D4532 		.ascii	"BME280_I2C_INTF\000"
 12426      38305F49 
 12426      32435F49 
 12426      4E544600 
 12427              	.LASF40:
 12428 073f 6469675F 		.ascii	"dig_h1\000"
 12428      683100
 12429              	.LASF41:
 12430 0746 6469675F 		.ascii	"dig_h2\000"
 12430      683200
 12431              	.LASF42:
 12432 074d 6469675F 		.ascii	"dig_h3\000"
 12432      683300
 12433              	.LASF43:
 12434 0754 6469675F 		.ascii	"dig_h4\000"
 12434      683400
 12435              	.LASF44:
 12436 075b 6469675F 		.ascii	"dig_h5\000"
 12436      683500
 12437              	.LASF45:
 12438 0762 6469675F 		.ascii	"dig_h6\000"
 12438      683600
 12439              	.LASF118:
 12440 0769 73656E73 		.ascii	"sensor_mode\000"
 12440      6F725F6D 
 12440      6F646500 
 12441              	.LASF149:
 12442 0775 443A5C4F 		.ascii	"D:\\OneDrive\\Documents\\Husky Robotics\\HR19-20\\E"
 12442      6E654472 
 12442      6976655C 
 12442      446F6375 
 12442      6D656E74 
 12443 07a3 6C656374 		.ascii	"lectronics\\PSoC Projects\\Science Board\\ScienceFi"
 12443      726F6E69 
 12443      63735C50 
 12443      536F4320 
 12443      50726F6A 
 12444 07d3 726D7761 		.ascii	"rmware.cydsn\000"
 12444      72652E63 
 12444      7964736E 
 12444      00
 12445              	.LASF143:
ARM GAS  C:\Users\simon\AppData\Local\Temp\cc07ySAM.s 			page 256


 12446 07e0 68756D5F 		.ascii	"hum_osr\000"
 12446      6F737200 
 12447              	.LASF22:
 12448 07e8 696E7436 		.ascii	"int64_t\000"
 12448      345F7400 
 12449              	.LASF99:
 12450 07f0 7375625F 		.ascii	"sub_settings\000"
 12450      73657474 
 12450      696E6773 
 12450      00
 12451              	.LASF31:
 12452 07fd 6469675F 		.ascii	"dig_p1\000"
 12452      703100
 12453              	.LASF32:
 12454 0804 6469675F 		.ascii	"dig_p2\000"
 12454      703200
 12455              	.LASF33:
 12456 080b 6469675F 		.ascii	"dig_p3\000"
 12456      703300
 12457              	.LASF34:
 12458 0812 6469675F 		.ascii	"dig_p4\000"
 12458      703400
 12459              	.LASF35:
 12460 0819 6469675F 		.ascii	"dig_p5\000"
 12460      703500
 12461              	.LASF36:
 12462 0820 6469675F 		.ascii	"dig_p6\000"
 12462      703600
 12463              	.LASF37:
 12464 0827 6469675F 		.ascii	"dig_p7\000"
 12464      703700
 12465              	.LASF38:
 12466 082e 6469675F 		.ascii	"dig_p8\000"
 12466      703800
 12467              	.LASF39:
 12468 0835 6469675F 		.ascii	"dig_p9\000"
 12468      703900
 12469              	.LASF61:
 12470 083c 6465765F 		.ascii	"dev_id\000"
 12470      696400
 12471              	.LASF110:
 12472 0843 7365745F 		.ascii	"set_osr_humidity_settings\000"
 12472      6F73725F 
 12472      68756D69 
 12472      64697479 
 12472      5F736574 
 12473              	.LASF47:
 12474 085d 626D6532 		.ascii	"bme280_calib_data\000"
 12474      38305F63 
 12474      616C6962 
 12474      5F646174 
 12474      6100
 12475              		.ident	"GCC: (GNU Tools for ARM Embedded Processors) 5.4.1 20160609 (release) [ARM/embedded-5-bran
